
caracara_electrical.elf:     file format elf32-littlearm

Sections:
Idx Name          Size      VMA       LMA       File off  Algn
  0 .isr_vector   000001d8  08000000  08000000  00001000  2**0
                  CONTENTS, ALLOC, LOAD, READONLY, DATA
  1 .text         00009ec4  080001e0  080001e0  000011e0  2**4
                  CONTENTS, ALLOC, LOAD, READONLY, CODE
  2 .rodata       00000434  0800a0a8  0800a0a8  0000b0a8  2**3
                  CONTENTS, ALLOC, LOAD, READONLY, DATA
  3 .ARM.extab    00000000  0800a4dc  0800a4dc  0000c390  2**0
                  CONTENTS, READONLY
  4 .ARM          00000008  0800a4dc  0800a4dc  0000b4dc  2**2
                  CONTENTS, ALLOC, LOAD, READONLY, DATA
  5 .preinit_array 00000000  0800a4e4  0800a4e4  0000c390  2**0
                  CONTENTS, ALLOC, LOAD, DATA
  6 .init_array   00000004  0800a4e4  0800a4e4  0000b4e4  2**2
                  CONTENTS, ALLOC, LOAD, READONLY, DATA
  7 .fini_array   00000004  0800a4e8  0800a4e8  0000b4e8  2**2
                  CONTENTS, ALLOC, LOAD, READONLY, DATA
  8 .data         00000390  20000000  0800a4ec  0000c000  2**2
                  CONTENTS, ALLOC, LOAD, DATA
  9 .bss          00002138  20000390  0800a87c  0000c390  2**2
                  ALLOC
 10 ._user_heap_stack 00000600  200024c8  0800a87c  0000c4c8  2**0
                  ALLOC
 11 .ARM.attributes 00000030  00000000  00000000  0000c390  2**0
                  CONTENTS, READONLY
 12 .debug_info   0002eee8  00000000  00000000  0000c3c0  2**0
                  CONTENTS, READONLY, DEBUGGING, OCTETS
 13 .debug_abbrev 0000690e  00000000  00000000  0003b2a8  2**0
                  CONTENTS, READONLY, DEBUGGING, OCTETS
 14 .debug_loclists 000128c3  00000000  00000000  00041bb6  2**0
                  CONTENTS, READONLY, DEBUGGING, OCTETS
 15 .debug_aranges 00001af0  00000000  00000000  00054480  2**3
                  CONTENTS, READONLY, DEBUGGING, OCTETS
 16 .debug_rnglists 00001b37  00000000  00000000  00055f70  2**0
                  CONTENTS, READONLY, DEBUGGING, OCTETS
 17 .debug_macro  0002cc96  00000000  00000000  00057aa7  2**0
                  CONTENTS, READONLY, DEBUGGING, OCTETS
 18 .debug_line   0002d8d4  00000000  00000000  0008473d  2**0
                  CONTENTS, READONLY, DEBUGGING, OCTETS
 19 .debug_str    0010747b  00000000  00000000  000b2011  2**0
                  CONTENTS, READONLY, DEBUGGING, OCTETS
 20 .comment      00000043  00000000  00000000  001b948c  2**0
                  CONTENTS, READONLY
 21 .debug_frame  000054a4  00000000  00000000  001b94d0  2**2
                  CONTENTS, READONLY, DEBUGGING, OCTETS
 22 .debug_line_str 00000053  00000000  00000000  001be974  2**0
                  CONTENTS, READONLY, DEBUGGING, OCTETS

Disassembly of section .text:

080001e0 <__do_global_dtors_aux>:
 80001e0:	b510      	push	{r4, lr}
 80001e2:	4c05      	ldr	r4, [pc, #20]	@ (80001f8 <__do_global_dtors_aux+0x18>)
 80001e4:	7823      	ldrb	r3, [r4, #0]
 80001e6:	b933      	cbnz	r3, 80001f6 <__do_global_dtors_aux+0x16>
 80001e8:	4b04      	ldr	r3, [pc, #16]	@ (80001fc <__do_global_dtors_aux+0x1c>)
 80001ea:	b113      	cbz	r3, 80001f2 <__do_global_dtors_aux+0x12>
 80001ec:	4804      	ldr	r0, [pc, #16]	@ (8000200 <__do_global_dtors_aux+0x20>)
 80001ee:	f3af 8000 	nop.w
 80001f2:	2301      	movs	r3, #1
 80001f4:	7023      	strb	r3, [r4, #0]
 80001f6:	bd10      	pop	{r4, pc}
 80001f8:	20000390 	.word	0x20000390
 80001fc:	00000000 	.word	0x00000000
 8000200:	0800a08c 	.word	0x0800a08c

08000204 <frame_dummy>:
 8000204:	b508      	push	{r3, lr}
 8000206:	4b03      	ldr	r3, [pc, #12]	@ (8000214 <frame_dummy+0x10>)
 8000208:	b11b      	cbz	r3, 8000212 <frame_dummy+0xe>
 800020a:	4903      	ldr	r1, [pc, #12]	@ (8000218 <frame_dummy+0x14>)
 800020c:	4803      	ldr	r0, [pc, #12]	@ (800021c <frame_dummy+0x18>)
 800020e:	f3af 8000 	nop.w
 8000212:	bd08      	pop	{r3, pc}
 8000214:	00000000 	.word	0x00000000
 8000218:	20000394 	.word	0x20000394
 800021c:	0800a08c 	.word	0x0800a08c

08000220 <memchr>:
 8000220:	f001 01ff 	and.w	r1, r1, #255	@ 0xff
 8000224:	2a10      	cmp	r2, #16
 8000226:	db2b      	blt.n	8000280 <memchr+0x60>
 8000228:	f010 0f07 	tst.w	r0, #7
 800022c:	d008      	beq.n	8000240 <memchr+0x20>
 800022e:	f810 3b01 	ldrb.w	r3, [r0], #1
 8000232:	3a01      	subs	r2, #1
 8000234:	428b      	cmp	r3, r1
 8000236:	d02d      	beq.n	8000294 <memchr+0x74>
 8000238:	f010 0f07 	tst.w	r0, #7
 800023c:	b342      	cbz	r2, 8000290 <memchr+0x70>
 800023e:	d1f6      	bne.n	800022e <memchr+0xe>
 8000240:	b4f0      	push	{r4, r5, r6, r7}
 8000242:	ea41 2101 	orr.w	r1, r1, r1, lsl #8
 8000246:	ea41 4101 	orr.w	r1, r1, r1, lsl #16
 800024a:	f022 0407 	bic.w	r4, r2, #7
 800024e:	f07f 0700 	mvns.w	r7, #0
 8000252:	2300      	movs	r3, #0
 8000254:	e8f0 5602 	ldrd	r5, r6, [r0], #8
 8000258:	3c08      	subs	r4, #8
 800025a:	ea85 0501 	eor.w	r5, r5, r1
 800025e:	ea86 0601 	eor.w	r6, r6, r1
 8000262:	fa85 f547 	uadd8	r5, r5, r7
 8000266:	faa3 f587 	sel	r5, r3, r7
 800026a:	fa86 f647 	uadd8	r6, r6, r7
 800026e:	faa5 f687 	sel	r6, r5, r7
 8000272:	b98e      	cbnz	r6, 8000298 <memchr+0x78>
 8000274:	d1ee      	bne.n	8000254 <memchr+0x34>
 8000276:	bcf0      	pop	{r4, r5, r6, r7}
 8000278:	f001 01ff 	and.w	r1, r1, #255	@ 0xff
 800027c:	f002 0207 	and.w	r2, r2, #7
 8000280:	b132      	cbz	r2, 8000290 <memchr+0x70>
 8000282:	f810 3b01 	ldrb.w	r3, [r0], #1
 8000286:	3a01      	subs	r2, #1
 8000288:	ea83 0301 	eor.w	r3, r3, r1
 800028c:	b113      	cbz	r3, 8000294 <memchr+0x74>
 800028e:	d1f8      	bne.n	8000282 <memchr+0x62>
 8000290:	2000      	movs	r0, #0
 8000292:	4770      	bx	lr
 8000294:	3801      	subs	r0, #1
 8000296:	4770      	bx	lr
 8000298:	2d00      	cmp	r5, #0
 800029a:	bf06      	itte	eq
 800029c:	4635      	moveq	r5, r6
 800029e:	3803      	subeq	r0, #3
 80002a0:	3807      	subne	r0, #7
 80002a2:	f015 0f01 	tst.w	r5, #1
 80002a6:	d107      	bne.n	80002b8 <memchr+0x98>
 80002a8:	3001      	adds	r0, #1
 80002aa:	f415 7f80 	tst.w	r5, #256	@ 0x100
 80002ae:	bf02      	ittt	eq
 80002b0:	3001      	addeq	r0, #1
 80002b2:	f415 3fc0 	tsteq.w	r5, #98304	@ 0x18000
 80002b6:	3001      	addeq	r0, #1
 80002b8:	bcf0      	pop	{r4, r5, r6, r7}
 80002ba:	3801      	subs	r0, #1
 80002bc:	4770      	bx	lr
 80002be:	bf00      	nop

080002c0 <strlen>:
 80002c0:	4603      	mov	r3, r0
 80002c2:	f813 2b01 	ldrb.w	r2, [r3], #1
 80002c6:	2a00      	cmp	r2, #0
 80002c8:	d1fb      	bne.n	80002c2 <strlen+0x2>
 80002ca:	1a18      	subs	r0, r3, r0
 80002cc:	3801      	subs	r0, #1
 80002ce:	4770      	bx	lr

080002d0 <__aeabi_drsub>:
 80002d0:	f081 4100 	eor.w	r1, r1, #2147483648	@ 0x80000000
 80002d4:	e002      	b.n	80002dc <__adddf3>
 80002d6:	bf00      	nop

080002d8 <__aeabi_dsub>:
 80002d8:	f083 4300 	eor.w	r3, r3, #2147483648	@ 0x80000000

080002dc <__adddf3>:
 80002dc:	b530      	push	{r4, r5, lr}
 80002de:	ea4f 0441 	mov.w	r4, r1, lsl #1
 80002e2:	ea4f 0543 	mov.w	r5, r3, lsl #1
 80002e6:	ea94 0f05 	teq	r4, r5
 80002ea:	bf08      	it	eq
 80002ec:	ea90 0f02 	teqeq	r0, r2
 80002f0:	bf1f      	itttt	ne
 80002f2:	ea54 0c00 	orrsne.w	ip, r4, r0
 80002f6:	ea55 0c02 	orrsne.w	ip, r5, r2
 80002fa:	ea7f 5c64 	mvnsne.w	ip, r4, asr #21
 80002fe:	ea7f 5c65 	mvnsne.w	ip, r5, asr #21
 8000302:	f000 80e2 	beq.w	80004ca <__adddf3+0x1ee>
 8000306:	ea4f 5454 	mov.w	r4, r4, lsr #21
 800030a:	ebd4 5555 	rsbs	r5, r4, r5, lsr #21
 800030e:	bfb8      	it	lt
 8000310:	426d      	neglt	r5, r5
 8000312:	dd0c      	ble.n	800032e <__adddf3+0x52>
 8000314:	442c      	add	r4, r5
 8000316:	ea80 0202 	eor.w	r2, r0, r2
 800031a:	ea81 0303 	eor.w	r3, r1, r3
 800031e:	ea82 0000 	eor.w	r0, r2, r0
 8000322:	ea83 0101 	eor.w	r1, r3, r1
 8000326:	ea80 0202 	eor.w	r2, r0, r2
 800032a:	ea81 0303 	eor.w	r3, r1, r3
 800032e:	2d36      	cmp	r5, #54	@ 0x36
 8000330:	bf88      	it	hi
 8000332:	bd30      	pophi	{r4, r5, pc}
 8000334:	f011 4f00 	tst.w	r1, #2147483648	@ 0x80000000
 8000338:	ea4f 3101 	mov.w	r1, r1, lsl #12
 800033c:	f44f 1c80 	mov.w	ip, #1048576	@ 0x100000
 8000340:	ea4c 3111 	orr.w	r1, ip, r1, lsr #12
 8000344:	d002      	beq.n	800034c <__adddf3+0x70>
 8000346:	4240      	negs	r0, r0
 8000348:	eb61 0141 	sbc.w	r1, r1, r1, lsl #1
 800034c:	f013 4f00 	tst.w	r3, #2147483648	@ 0x80000000
 8000350:	ea4f 3303 	mov.w	r3, r3, lsl #12
 8000354:	ea4c 3313 	orr.w	r3, ip, r3, lsr #12
 8000358:	d002      	beq.n	8000360 <__adddf3+0x84>
 800035a:	4252      	negs	r2, r2
 800035c:	eb63 0343 	sbc.w	r3, r3, r3, lsl #1
 8000360:	ea94 0f05 	teq	r4, r5
 8000364:	f000 80a7 	beq.w	80004b6 <__adddf3+0x1da>
 8000368:	f1a4 0401 	sub.w	r4, r4, #1
 800036c:	f1d5 0e20 	rsbs	lr, r5, #32
 8000370:	db0d      	blt.n	800038e <__adddf3+0xb2>
 8000372:	fa02 fc0e 	lsl.w	ip, r2, lr
 8000376:	fa22 f205 	lsr.w	r2, r2, r5
 800037a:	1880      	adds	r0, r0, r2
 800037c:	f141 0100 	adc.w	r1, r1, #0
 8000380:	fa03 f20e 	lsl.w	r2, r3, lr
 8000384:	1880      	adds	r0, r0, r2
 8000386:	fa43 f305 	asr.w	r3, r3, r5
 800038a:	4159      	adcs	r1, r3
 800038c:	e00e      	b.n	80003ac <__adddf3+0xd0>
 800038e:	f1a5 0520 	sub.w	r5, r5, #32
 8000392:	f10e 0e20 	add.w	lr, lr, #32
 8000396:	2a01      	cmp	r2, #1
 8000398:	fa03 fc0e 	lsl.w	ip, r3, lr
 800039c:	bf28      	it	cs
 800039e:	f04c 0c02 	orrcs.w	ip, ip, #2
 80003a2:	fa43 f305 	asr.w	r3, r3, r5
 80003a6:	18c0      	adds	r0, r0, r3
 80003a8:	eb51 71e3 	adcs.w	r1, r1, r3, asr #31
 80003ac:	f001 4500 	and.w	r5, r1, #2147483648	@ 0x80000000
 80003b0:	d507      	bpl.n	80003c2 <__adddf3+0xe6>
 80003b2:	f04f 0e00 	mov.w	lr, #0
 80003b6:	f1dc 0c00 	rsbs	ip, ip, #0
 80003ba:	eb7e 0000 	sbcs.w	r0, lr, r0
 80003be:	eb6e 0101 	sbc.w	r1, lr, r1
 80003c2:	f5b1 1f80 	cmp.w	r1, #1048576	@ 0x100000
 80003c6:	d31b      	bcc.n	8000400 <__adddf3+0x124>
 80003c8:	f5b1 1f00 	cmp.w	r1, #2097152	@ 0x200000
 80003cc:	d30c      	bcc.n	80003e8 <__adddf3+0x10c>
 80003ce:	0849      	lsrs	r1, r1, #1
 80003d0:	ea5f 0030 	movs.w	r0, r0, rrx
 80003d4:	ea4f 0c3c 	mov.w	ip, ip, rrx
 80003d8:	f104 0401 	add.w	r4, r4, #1
 80003dc:	ea4f 5244 	mov.w	r2, r4, lsl #21
 80003e0:	f512 0f80 	cmn.w	r2, #4194304	@ 0x400000
 80003e4:	f080 809a 	bcs.w	800051c <__adddf3+0x240>
 80003e8:	f1bc 4f00 	cmp.w	ip, #2147483648	@ 0x80000000
 80003ec:	bf08      	it	eq
 80003ee:	ea5f 0c50 	movseq.w	ip, r0, lsr #1
 80003f2:	f150 0000 	adcs.w	r0, r0, #0
 80003f6:	eb41 5104 	adc.w	r1, r1, r4, lsl #20
 80003fa:	ea41 0105 	orr.w	r1, r1, r5
 80003fe:	bd30      	pop	{r4, r5, pc}
 8000400:	ea5f 0c4c 	movs.w	ip, ip, lsl #1
 8000404:	4140      	adcs	r0, r0
 8000406:	eb41 0101 	adc.w	r1, r1, r1
 800040a:	3c01      	subs	r4, #1
 800040c:	bf28      	it	cs
 800040e:	f5b1 1f80 	cmpcs.w	r1, #1048576	@ 0x100000
 8000412:	d2e9      	bcs.n	80003e8 <__adddf3+0x10c>
 8000414:	f091 0f00 	teq	r1, #0
 8000418:	bf04      	itt	eq
 800041a:	4601      	moveq	r1, r0
 800041c:	2000      	moveq	r0, #0
 800041e:	fab1 f381 	clz	r3, r1
 8000422:	bf08      	it	eq
 8000424:	3320      	addeq	r3, #32
 8000426:	f1a3 030b 	sub.w	r3, r3, #11
 800042a:	f1b3 0220 	subs.w	r2, r3, #32
 800042e:	da0c      	bge.n	800044a <__adddf3+0x16e>
 8000430:	320c      	adds	r2, #12
 8000432:	dd08      	ble.n	8000446 <__adddf3+0x16a>
 8000434:	f102 0c14 	add.w	ip, r2, #20
 8000438:	f1c2 020c 	rsb	r2, r2, #12
 800043c:	fa01 f00c 	lsl.w	r0, r1, ip
 8000440:	fa21 f102 	lsr.w	r1, r1, r2
 8000444:	e00c      	b.n	8000460 <__adddf3+0x184>
 8000446:	f102 0214 	add.w	r2, r2, #20
 800044a:	bfd8      	it	le
 800044c:	f1c2 0c20 	rsble	ip, r2, #32
 8000450:	fa01 f102 	lsl.w	r1, r1, r2
 8000454:	fa20 fc0c 	lsr.w	ip, r0, ip
 8000458:	bfdc      	itt	le
 800045a:	ea41 010c 	orrle.w	r1, r1, ip
 800045e:	4090      	lslle	r0, r2
 8000460:	1ae4      	subs	r4, r4, r3
 8000462:	bfa2      	ittt	ge
 8000464:	eb01 5104 	addge.w	r1, r1, r4, lsl #20
 8000468:	4329      	orrge	r1, r5
 800046a:	bd30      	popge	{r4, r5, pc}
 800046c:	ea6f 0404 	mvn.w	r4, r4
 8000470:	3c1f      	subs	r4, #31
 8000472:	da1c      	bge.n	80004ae <__adddf3+0x1d2>
 8000474:	340c      	adds	r4, #12
 8000476:	dc0e      	bgt.n	8000496 <__adddf3+0x1ba>
 8000478:	f104 0414 	add.w	r4, r4, #20
 800047c:	f1c4 0220 	rsb	r2, r4, #32
 8000480:	fa20 f004 	lsr.w	r0, r0, r4
 8000484:	fa01 f302 	lsl.w	r3, r1, r2
 8000488:	ea40 0003 	orr.w	r0, r0, r3
 800048c:	fa21 f304 	lsr.w	r3, r1, r4
 8000490:	ea45 0103 	orr.w	r1, r5, r3
 8000494:	bd30      	pop	{r4, r5, pc}
 8000496:	f1c4 040c 	rsb	r4, r4, #12
 800049a:	f1c4 0220 	rsb	r2, r4, #32
 800049e:	fa20 f002 	lsr.w	r0, r0, r2
 80004a2:	fa01 f304 	lsl.w	r3, r1, r4
 80004a6:	ea40 0003 	orr.w	r0, r0, r3
 80004aa:	4629      	mov	r1, r5
 80004ac:	bd30      	pop	{r4, r5, pc}
 80004ae:	fa21 f004 	lsr.w	r0, r1, r4
 80004b2:	4629      	mov	r1, r5
 80004b4:	bd30      	pop	{r4, r5, pc}
 80004b6:	f094 0f00 	teq	r4, #0
 80004ba:	f483 1380 	eor.w	r3, r3, #1048576	@ 0x100000
 80004be:	bf06      	itte	eq
 80004c0:	f481 1180 	eoreq.w	r1, r1, #1048576	@ 0x100000
 80004c4:	3401      	addeq	r4, #1
 80004c6:	3d01      	subne	r5, #1
 80004c8:	e74e      	b.n	8000368 <__adddf3+0x8c>
 80004ca:	ea7f 5c64 	mvns.w	ip, r4, asr #21
 80004ce:	bf18      	it	ne
 80004d0:	ea7f 5c65 	mvnsne.w	ip, r5, asr #21
 80004d4:	d029      	beq.n	800052a <__adddf3+0x24e>
 80004d6:	ea94 0f05 	teq	r4, r5
 80004da:	bf08      	it	eq
 80004dc:	ea90 0f02 	teqeq	r0, r2
 80004e0:	d005      	beq.n	80004ee <__adddf3+0x212>
 80004e2:	ea54 0c00 	orrs.w	ip, r4, r0
 80004e6:	bf04      	itt	eq
 80004e8:	4619      	moveq	r1, r3
 80004ea:	4610      	moveq	r0, r2
 80004ec:	bd30      	pop	{r4, r5, pc}
 80004ee:	ea91 0f03 	teq	r1, r3
 80004f2:	bf1e      	ittt	ne
 80004f4:	2100      	movne	r1, #0
 80004f6:	2000      	movne	r0, #0
 80004f8:	bd30      	popne	{r4, r5, pc}
 80004fa:	ea5f 5c54 	movs.w	ip, r4, lsr #21
 80004fe:	d105      	bne.n	800050c <__adddf3+0x230>
 8000500:	0040      	lsls	r0, r0, #1
 8000502:	4149      	adcs	r1, r1
 8000504:	bf28      	it	cs
 8000506:	f041 4100 	orrcs.w	r1, r1, #2147483648	@ 0x80000000
 800050a:	bd30      	pop	{r4, r5, pc}
 800050c:	f514 0480 	adds.w	r4, r4, #4194304	@ 0x400000
 8000510:	bf3c      	itt	cc
 8000512:	f501 1180 	addcc.w	r1, r1, #1048576	@ 0x100000
 8000516:	bd30      	popcc	{r4, r5, pc}
 8000518:	f001 4500 	and.w	r5, r1, #2147483648	@ 0x80000000
 800051c:	f045 41fe 	orr.w	r1, r5, #2130706432	@ 0x7f000000
 8000520:	f441 0170 	orr.w	r1, r1, #15728640	@ 0xf00000
 8000524:	f04f 0000 	mov.w	r0, #0
 8000528:	bd30      	pop	{r4, r5, pc}
 800052a:	ea7f 5c64 	mvns.w	ip, r4, asr #21
 800052e:	bf1a      	itte	ne
 8000530:	4619      	movne	r1, r3
 8000532:	4610      	movne	r0, r2
 8000534:	ea7f 5c65 	mvnseq.w	ip, r5, asr #21
 8000538:	bf1c      	itt	ne
 800053a:	460b      	movne	r3, r1
 800053c:	4602      	movne	r2, r0
 800053e:	ea50 3401 	orrs.w	r4, r0, r1, lsl #12
 8000542:	bf06      	itte	eq
 8000544:	ea52 3503 	orrseq.w	r5, r2, r3, lsl #12
 8000548:	ea91 0f03 	teqeq	r1, r3
 800054c:	f441 2100 	orrne.w	r1, r1, #524288	@ 0x80000
 8000550:	bd30      	pop	{r4, r5, pc}
 8000552:	bf00      	nop

08000554 <__aeabi_ui2d>:
 8000554:	f090 0f00 	teq	r0, #0
 8000558:	bf04      	itt	eq
 800055a:	2100      	moveq	r1, #0
 800055c:	4770      	bxeq	lr
 800055e:	b530      	push	{r4, r5, lr}
 8000560:	f44f 6480 	mov.w	r4, #1024	@ 0x400
 8000564:	f104 0432 	add.w	r4, r4, #50	@ 0x32
 8000568:	f04f 0500 	mov.w	r5, #0
 800056c:	f04f 0100 	mov.w	r1, #0
 8000570:	e750      	b.n	8000414 <__adddf3+0x138>
 8000572:	bf00      	nop

08000574 <__aeabi_i2d>:
 8000574:	f090 0f00 	teq	r0, #0
 8000578:	bf04      	itt	eq
 800057a:	2100      	moveq	r1, #0
 800057c:	4770      	bxeq	lr
 800057e:	b530      	push	{r4, r5, lr}
 8000580:	f44f 6480 	mov.w	r4, #1024	@ 0x400
 8000584:	f104 0432 	add.w	r4, r4, #50	@ 0x32
 8000588:	f010 4500 	ands.w	r5, r0, #2147483648	@ 0x80000000
 800058c:	bf48      	it	mi
 800058e:	4240      	negmi	r0, r0
 8000590:	f04f 0100 	mov.w	r1, #0
 8000594:	e73e      	b.n	8000414 <__adddf3+0x138>
 8000596:	bf00      	nop

08000598 <__aeabi_f2d>:
 8000598:	0042      	lsls	r2, r0, #1
 800059a:	ea4f 01e2 	mov.w	r1, r2, asr #3
 800059e:	ea4f 0131 	mov.w	r1, r1, rrx
 80005a2:	ea4f 7002 	mov.w	r0, r2, lsl #28
 80005a6:	bf1f      	itttt	ne
 80005a8:	f012 437f 	andsne.w	r3, r2, #4278190080	@ 0xff000000
 80005ac:	f093 4f7f 	teqne	r3, #4278190080	@ 0xff000000
 80005b0:	f081 5160 	eorne.w	r1, r1, #939524096	@ 0x38000000
 80005b4:	4770      	bxne	lr
 80005b6:	f032 427f 	bics.w	r2, r2, #4278190080	@ 0xff000000
 80005ba:	bf08      	it	eq
 80005bc:	4770      	bxeq	lr
 80005be:	f093 4f7f 	teq	r3, #4278190080	@ 0xff000000
 80005c2:	bf04      	itt	eq
 80005c4:	f441 2100 	orreq.w	r1, r1, #524288	@ 0x80000
 80005c8:	4770      	bxeq	lr
 80005ca:	b530      	push	{r4, r5, lr}
 80005cc:	f44f 7460 	mov.w	r4, #896	@ 0x380
 80005d0:	f001 4500 	and.w	r5, r1, #2147483648	@ 0x80000000
 80005d4:	f021 4100 	bic.w	r1, r1, #2147483648	@ 0x80000000
 80005d8:	e71c      	b.n	8000414 <__adddf3+0x138>
 80005da:	bf00      	nop

080005dc <__aeabi_ul2d>:
 80005dc:	ea50 0201 	orrs.w	r2, r0, r1
 80005e0:	bf08      	it	eq
 80005e2:	4770      	bxeq	lr
 80005e4:	b530      	push	{r4, r5, lr}
 80005e6:	f04f 0500 	mov.w	r5, #0
 80005ea:	e00a      	b.n	8000602 <__aeabi_l2d+0x16>

080005ec <__aeabi_l2d>:
 80005ec:	ea50 0201 	orrs.w	r2, r0, r1
 80005f0:	bf08      	it	eq
 80005f2:	4770      	bxeq	lr
 80005f4:	b530      	push	{r4, r5, lr}
 80005f6:	f011 4500 	ands.w	r5, r1, #2147483648	@ 0x80000000
 80005fa:	d502      	bpl.n	8000602 <__aeabi_l2d+0x16>
 80005fc:	4240      	negs	r0, r0
 80005fe:	eb61 0141 	sbc.w	r1, r1, r1, lsl #1
 8000602:	f44f 6480 	mov.w	r4, #1024	@ 0x400
 8000606:	f104 0432 	add.w	r4, r4, #50	@ 0x32
 800060a:	ea5f 5c91 	movs.w	ip, r1, lsr #22
 800060e:	f43f aed8 	beq.w	80003c2 <__adddf3+0xe6>
 8000612:	f04f 0203 	mov.w	r2, #3
 8000616:	ea5f 0cdc 	movs.w	ip, ip, lsr #3
 800061a:	bf18      	it	ne
 800061c:	3203      	addne	r2, #3
 800061e:	ea5f 0cdc 	movs.w	ip, ip, lsr #3
 8000622:	bf18      	it	ne
 8000624:	3203      	addne	r2, #3
 8000626:	eb02 02dc 	add.w	r2, r2, ip, lsr #3
 800062a:	f1c2 0320 	rsb	r3, r2, #32
 800062e:	fa00 fc03 	lsl.w	ip, r0, r3
 8000632:	fa20 f002 	lsr.w	r0, r0, r2
 8000636:	fa01 fe03 	lsl.w	lr, r1, r3
 800063a:	ea40 000e 	orr.w	r0, r0, lr
 800063e:	fa21 f102 	lsr.w	r1, r1, r2
 8000642:	4414      	add	r4, r2
 8000644:	e6bd      	b.n	80003c2 <__adddf3+0xe6>
 8000646:	bf00      	nop

08000648 <__aeabi_dmul>:
 8000648:	b570      	push	{r4, r5, r6, lr}
 800064a:	f04f 0cff 	mov.w	ip, #255	@ 0xff
 800064e:	f44c 6ce0 	orr.w	ip, ip, #1792	@ 0x700
 8000652:	ea1c 5411 	ands.w	r4, ip, r1, lsr #20
 8000656:	bf1d      	ittte	ne
 8000658:	ea1c 5513 	andsne.w	r5, ip, r3, lsr #20
 800065c:	ea94 0f0c 	teqne	r4, ip
 8000660:	ea95 0f0c 	teqne	r5, ip
 8000664:	f000 f8de 	bleq	8000824 <__aeabi_dmul+0x1dc>
 8000668:	442c      	add	r4, r5
 800066a:	ea81 0603 	eor.w	r6, r1, r3
 800066e:	ea21 514c 	bic.w	r1, r1, ip, lsl #21
 8000672:	ea23 534c 	bic.w	r3, r3, ip, lsl #21
 8000676:	ea50 3501 	orrs.w	r5, r0, r1, lsl #12
 800067a:	bf18      	it	ne
 800067c:	ea52 3503 	orrsne.w	r5, r2, r3, lsl #12
 8000680:	f441 1180 	orr.w	r1, r1, #1048576	@ 0x100000
 8000684:	f443 1380 	orr.w	r3, r3, #1048576	@ 0x100000
 8000688:	d038      	beq.n	80006fc <__aeabi_dmul+0xb4>
 800068a:	fba0 ce02 	umull	ip, lr, r0, r2
 800068e:	f04f 0500 	mov.w	r5, #0
 8000692:	fbe1 e502 	umlal	lr, r5, r1, r2
 8000696:	f006 4200 	and.w	r2, r6, #2147483648	@ 0x80000000
 800069a:	fbe0 e503 	umlal	lr, r5, r0, r3
 800069e:	f04f 0600 	mov.w	r6, #0
 80006a2:	fbe1 5603 	umlal	r5, r6, r1, r3
 80006a6:	f09c 0f00 	teq	ip, #0
 80006aa:	bf18      	it	ne
 80006ac:	f04e 0e01 	orrne.w	lr, lr, #1
 80006b0:	f1a4 04ff 	sub.w	r4, r4, #255	@ 0xff
 80006b4:	f5b6 7f00 	cmp.w	r6, #512	@ 0x200
 80006b8:	f564 7440 	sbc.w	r4, r4, #768	@ 0x300
 80006bc:	d204      	bcs.n	80006c8 <__aeabi_dmul+0x80>
 80006be:	ea5f 0e4e 	movs.w	lr, lr, lsl #1
 80006c2:	416d      	adcs	r5, r5
 80006c4:	eb46 0606 	adc.w	r6, r6, r6
 80006c8:	ea42 21c6 	orr.w	r1, r2, r6, lsl #11
 80006cc:	ea41 5155 	orr.w	r1, r1, r5, lsr #21
 80006d0:	ea4f 20c5 	mov.w	r0, r5, lsl #11
 80006d4:	ea40 505e 	orr.w	r0, r0, lr, lsr #21
 80006d8:	ea4f 2ece 	mov.w	lr, lr, lsl #11
 80006dc:	f1b4 0cfd 	subs.w	ip, r4, #253	@ 0xfd
 80006e0:	bf88      	it	hi
 80006e2:	f5bc 6fe0 	cmphi.w	ip, #1792	@ 0x700
 80006e6:	d81e      	bhi.n	8000726 <__aeabi_dmul+0xde>
 80006e8:	f1be 4f00 	cmp.w	lr, #2147483648	@ 0x80000000
 80006ec:	bf08      	it	eq
 80006ee:	ea5f 0e50 	movseq.w	lr, r0, lsr #1
 80006f2:	f150 0000 	adcs.w	r0, r0, #0
 80006f6:	eb41 5104 	adc.w	r1, r1, r4, lsl #20
 80006fa:	bd70      	pop	{r4, r5, r6, pc}
 80006fc:	f006 4600 	and.w	r6, r6, #2147483648	@ 0x80000000
 8000700:	ea46 0101 	orr.w	r1, r6, r1
 8000704:	ea40 0002 	orr.w	r0, r0, r2
 8000708:	ea81 0103 	eor.w	r1, r1, r3
 800070c:	ebb4 045c 	subs.w	r4, r4, ip, lsr #1
 8000710:	bfc2      	ittt	gt
 8000712:	ebd4 050c 	rsbsgt	r5, r4, ip
 8000716:	ea41 5104 	orrgt.w	r1, r1, r4, lsl #20
 800071a:	bd70      	popgt	{r4, r5, r6, pc}
 800071c:	f441 1180 	orr.w	r1, r1, #1048576	@ 0x100000
 8000720:	f04f 0e00 	mov.w	lr, #0
 8000724:	3c01      	subs	r4, #1
 8000726:	f300 80ab 	bgt.w	8000880 <__aeabi_dmul+0x238>
 800072a:	f114 0f36 	cmn.w	r4, #54	@ 0x36
 800072e:	bfde      	ittt	le
 8000730:	2000      	movle	r0, #0
 8000732:	f001 4100 	andle.w	r1, r1, #2147483648	@ 0x80000000
 8000736:	bd70      	pople	{r4, r5, r6, pc}
 8000738:	f1c4 0400 	rsb	r4, r4, #0
 800073c:	3c20      	subs	r4, #32
 800073e:	da35      	bge.n	80007ac <__aeabi_dmul+0x164>
 8000740:	340c      	adds	r4, #12
 8000742:	dc1b      	bgt.n	800077c <__aeabi_dmul+0x134>
 8000744:	f104 0414 	add.w	r4, r4, #20
 8000748:	f1c4 0520 	rsb	r5, r4, #32
 800074c:	fa00 f305 	lsl.w	r3, r0, r5
 8000750:	fa20 f004 	lsr.w	r0, r0, r4
 8000754:	fa01 f205 	lsl.w	r2, r1, r5
 8000758:	ea40 0002 	orr.w	r0, r0, r2
 800075c:	f001 4200 	and.w	r2, r1, #2147483648	@ 0x80000000
 8000760:	f021 4100 	bic.w	r1, r1, #2147483648	@ 0x80000000
 8000764:	eb10 70d3 	adds.w	r0, r0, r3, lsr #31
 8000768:	fa21 f604 	lsr.w	r6, r1, r4
 800076c:	eb42 0106 	adc.w	r1, r2, r6
 8000770:	ea5e 0e43 	orrs.w	lr, lr, r3, lsl #1
 8000774:	bf08      	it	eq
 8000776:	ea20 70d3 	biceq.w	r0, r0, r3, lsr #31
 800077a:	bd70      	pop	{r4, r5, r6, pc}
 800077c:	f1c4 040c 	rsb	r4, r4, #12
 8000780:	f1c4 0520 	rsb	r5, r4, #32
 8000784:	fa00 f304 	lsl.w	r3, r0, r4
 8000788:	fa20 f005 	lsr.w	r0, r0, r5
 800078c:	fa01 f204 	lsl.w	r2, r1, r4
 8000790:	ea40 0002 	orr.w	r0, r0, r2
 8000794:	f001 4100 	and.w	r1, r1, #2147483648	@ 0x80000000
 8000798:	eb10 70d3 	adds.w	r0, r0, r3, lsr #31
 800079c:	f141 0100 	adc.w	r1, r1, #0
 80007a0:	ea5e 0e43 	orrs.w	lr, lr, r3, lsl #1
 80007a4:	bf08      	it	eq
 80007a6:	ea20 70d3 	biceq.w	r0, r0, r3, lsr #31
 80007aa:	bd70      	pop	{r4, r5, r6, pc}
 80007ac:	f1c4 0520 	rsb	r5, r4, #32
 80007b0:	fa00 f205 	lsl.w	r2, r0, r5
 80007b4:	ea4e 0e02 	orr.w	lr, lr, r2
 80007b8:	fa20 f304 	lsr.w	r3, r0, r4
 80007bc:	fa01 f205 	lsl.w	r2, r1, r5
 80007c0:	ea43 0302 	orr.w	r3, r3, r2
 80007c4:	fa21 f004 	lsr.w	r0, r1, r4
 80007c8:	f001 4100 	and.w	r1, r1, #2147483648	@ 0x80000000
 80007cc:	fa21 f204 	lsr.w	r2, r1, r4
 80007d0:	ea20 0002 	bic.w	r0, r0, r2
 80007d4:	eb00 70d3 	add.w	r0, r0, r3, lsr #31
 80007d8:	ea5e 0e43 	orrs.w	lr, lr, r3, lsl #1
 80007dc:	bf08      	it	eq
 80007de:	ea20 70d3 	biceq.w	r0, r0, r3, lsr #31
 80007e2:	bd70      	pop	{r4, r5, r6, pc}
 80007e4:	f094 0f00 	teq	r4, #0
 80007e8:	d10f      	bne.n	800080a <__aeabi_dmul+0x1c2>
 80007ea:	f001 4600 	and.w	r6, r1, #2147483648	@ 0x80000000
 80007ee:	0040      	lsls	r0, r0, #1
 80007f0:	eb41 0101 	adc.w	r1, r1, r1
 80007f4:	f411 1f80 	tst.w	r1, #1048576	@ 0x100000
 80007f8:	bf08      	it	eq
 80007fa:	3c01      	subeq	r4, #1
 80007fc:	d0f7      	beq.n	80007ee <__aeabi_dmul+0x1a6>
 80007fe:	ea41 0106 	orr.w	r1, r1, r6
 8000802:	f095 0f00 	teq	r5, #0
 8000806:	bf18      	it	ne
 8000808:	4770      	bxne	lr
 800080a:	f003 4600 	and.w	r6, r3, #2147483648	@ 0x80000000
 800080e:	0052      	lsls	r2, r2, #1
 8000810:	eb43 0303 	adc.w	r3, r3, r3
 8000814:	f413 1f80 	tst.w	r3, #1048576	@ 0x100000
 8000818:	bf08      	it	eq
 800081a:	3d01      	subeq	r5, #1
 800081c:	d0f7      	beq.n	800080e <__aeabi_dmul+0x1c6>
 800081e:	ea43 0306 	orr.w	r3, r3, r6
 8000822:	4770      	bx	lr
 8000824:	ea94 0f0c 	teq	r4, ip
 8000828:	ea0c 5513 	and.w	r5, ip, r3, lsr #20
 800082c:	bf18      	it	ne
 800082e:	ea95 0f0c 	teqne	r5, ip
 8000832:	d00c      	beq.n	800084e <__aeabi_dmul+0x206>
 8000834:	ea50 0641 	orrs.w	r6, r0, r1, lsl #1
 8000838:	bf18      	it	ne
 800083a:	ea52 0643 	orrsne.w	r6, r2, r3, lsl #1
 800083e:	d1d1      	bne.n	80007e4 <__aeabi_dmul+0x19c>
 8000840:	ea81 0103 	eor.w	r1, r1, r3
 8000844:	f001 4100 	and.w	r1, r1, #2147483648	@ 0x80000000
 8000848:	f04f 0000 	mov.w	r0, #0
 800084c:	bd70      	pop	{r4, r5, r6, pc}
 800084e:	ea50 0641 	orrs.w	r6, r0, r1, lsl #1
 8000852:	bf06      	itte	eq
 8000854:	4610      	moveq	r0, r2
 8000856:	4619      	moveq	r1, r3
 8000858:	ea52 0643 	orrsne.w	r6, r2, r3, lsl #1
 800085c:	d019      	beq.n	8000892 <__aeabi_dmul+0x24a>
 800085e:	ea94 0f0c 	teq	r4, ip
 8000862:	d102      	bne.n	800086a <__aeabi_dmul+0x222>
 8000864:	ea50 3601 	orrs.w	r6, r0, r1, lsl #12
 8000868:	d113      	bne.n	8000892 <__aeabi_dmul+0x24a>
 800086a:	ea95 0f0c 	teq	r5, ip
 800086e:	d105      	bne.n	800087c <__aeabi_dmul+0x234>
 8000870:	ea52 3603 	orrs.w	r6, r2, r3, lsl #12
 8000874:	bf1c      	itt	ne
 8000876:	4610      	movne	r0, r2
 8000878:	4619      	movne	r1, r3
 800087a:	d10a      	bne.n	8000892 <__aeabi_dmul+0x24a>
 800087c:	ea81 0103 	eor.w	r1, r1, r3
 8000880:	f001 4100 	and.w	r1, r1, #2147483648	@ 0x80000000
 8000884:	f041 41fe 	orr.w	r1, r1, #2130706432	@ 0x7f000000
 8000888:	f441 0170 	orr.w	r1, r1, #15728640	@ 0xf00000
 800088c:	f04f 0000 	mov.w	r0, #0
 8000890:	bd70      	pop	{r4, r5, r6, pc}
 8000892:	f041 41fe 	orr.w	r1, r1, #2130706432	@ 0x7f000000
 8000896:	f441 0178 	orr.w	r1, r1, #16252928	@ 0xf80000
 800089a:	bd70      	pop	{r4, r5, r6, pc}

0800089c <__aeabi_ddiv>:
 800089c:	b570      	push	{r4, r5, r6, lr}
 800089e:	f04f 0cff 	mov.w	ip, #255	@ 0xff
 80008a2:	f44c 6ce0 	orr.w	ip, ip, #1792	@ 0x700
 80008a6:	ea1c 5411 	ands.w	r4, ip, r1, lsr #20
 80008aa:	bf1d      	ittte	ne
 80008ac:	ea1c 5513 	andsne.w	r5, ip, r3, lsr #20
 80008b0:	ea94 0f0c 	teqne	r4, ip
 80008b4:	ea95 0f0c 	teqne	r5, ip
 80008b8:	f000 f8a7 	bleq	8000a0a <__aeabi_ddiv+0x16e>
 80008bc:	eba4 0405 	sub.w	r4, r4, r5
 80008c0:	ea81 0e03 	eor.w	lr, r1, r3
 80008c4:	ea52 3503 	orrs.w	r5, r2, r3, lsl #12
 80008c8:	ea4f 3101 	mov.w	r1, r1, lsl #12
 80008cc:	f000 8088 	beq.w	80009e0 <__aeabi_ddiv+0x144>
 80008d0:	ea4f 3303 	mov.w	r3, r3, lsl #12
 80008d4:	f04f 5580 	mov.w	r5, #268435456	@ 0x10000000
 80008d8:	ea45 1313 	orr.w	r3, r5, r3, lsr #4
 80008dc:	ea43 6312 	orr.w	r3, r3, r2, lsr #24
 80008e0:	ea4f 2202 	mov.w	r2, r2, lsl #8
 80008e4:	ea45 1511 	orr.w	r5, r5, r1, lsr #4
 80008e8:	ea45 6510 	orr.w	r5, r5, r0, lsr #24
 80008ec:	ea4f 2600 	mov.w	r6, r0, lsl #8
 80008f0:	f00e 4100 	and.w	r1, lr, #2147483648	@ 0x80000000
 80008f4:	429d      	cmp	r5, r3
 80008f6:	bf08      	it	eq
 80008f8:	4296      	cmpeq	r6, r2
 80008fa:	f144 04fd 	adc.w	r4, r4, #253	@ 0xfd
 80008fe:	f504 7440 	add.w	r4, r4, #768	@ 0x300
 8000902:	d202      	bcs.n	800090a <__aeabi_ddiv+0x6e>
 8000904:	085b      	lsrs	r3, r3, #1
 8000906:	ea4f 0232 	mov.w	r2, r2, rrx
 800090a:	1ab6      	subs	r6, r6, r2
 800090c:	eb65 0503 	sbc.w	r5, r5, r3
 8000910:	085b      	lsrs	r3, r3, #1
 8000912:	ea4f 0232 	mov.w	r2, r2, rrx
 8000916:	f44f 1080 	mov.w	r0, #1048576	@ 0x100000
 800091a:	f44f 2c00 	mov.w	ip, #524288	@ 0x80000
 800091e:	ebb6 0e02 	subs.w	lr, r6, r2
 8000922:	eb75 0e03 	sbcs.w	lr, r5, r3
 8000926:	bf22      	ittt	cs
 8000928:	1ab6      	subcs	r6, r6, r2
 800092a:	4675      	movcs	r5, lr
 800092c:	ea40 000c 	orrcs.w	r0, r0, ip
 8000930:	085b      	lsrs	r3, r3, #1
 8000932:	ea4f 0232 	mov.w	r2, r2, rrx
 8000936:	ebb6 0e02 	subs.w	lr, r6, r2
 800093a:	eb75 0e03 	sbcs.w	lr, r5, r3
 800093e:	bf22      	ittt	cs
 8000940:	1ab6      	subcs	r6, r6, r2
 8000942:	4675      	movcs	r5, lr
 8000944:	ea40 005c 	orrcs.w	r0, r0, ip, lsr #1
 8000948:	085b      	lsrs	r3, r3, #1
 800094a:	ea4f 0232 	mov.w	r2, r2, rrx
 800094e:	ebb6 0e02 	subs.w	lr, r6, r2
 8000952:	eb75 0e03 	sbcs.w	lr, r5, r3
 8000956:	bf22      	ittt	cs
 8000958:	1ab6      	subcs	r6, r6, r2
 800095a:	4675      	movcs	r5, lr
 800095c:	ea40 009c 	orrcs.w	r0, r0, ip, lsr #2
 8000960:	085b      	lsrs	r3, r3, #1
 8000962:	ea4f 0232 	mov.w	r2, r2, rrx
 8000966:	ebb6 0e02 	subs.w	lr, r6, r2
 800096a:	eb75 0e03 	sbcs.w	lr, r5, r3
 800096e:	bf22      	ittt	cs
 8000970:	1ab6      	subcs	r6, r6, r2
 8000972:	4675      	movcs	r5, lr
 8000974:	ea40 00dc 	orrcs.w	r0, r0, ip, lsr #3
 8000978:	ea55 0e06 	orrs.w	lr, r5, r6
 800097c:	d018      	beq.n	80009b0 <__aeabi_ddiv+0x114>
 800097e:	ea4f 1505 	mov.w	r5, r5, lsl #4
 8000982:	ea45 7516 	orr.w	r5, r5, r6, lsr #28
 8000986:	ea4f 1606 	mov.w	r6, r6, lsl #4
 800098a:	ea4f 03c3 	mov.w	r3, r3, lsl #3
 800098e:	ea43 7352 	orr.w	r3, r3, r2, lsr #29
 8000992:	ea4f 02c2 	mov.w	r2, r2, lsl #3
 8000996:	ea5f 1c1c 	movs.w	ip, ip, lsr #4
 800099a:	d1c0      	bne.n	800091e <__aeabi_ddiv+0x82>
 800099c:	f411 1f80 	tst.w	r1, #1048576	@ 0x100000
 80009a0:	d10b      	bne.n	80009ba <__aeabi_ddiv+0x11e>
 80009a2:	ea41 0100 	orr.w	r1, r1, r0
 80009a6:	f04f 0000 	mov.w	r0, #0
 80009aa:	f04f 4c00 	mov.w	ip, #2147483648	@ 0x80000000
 80009ae:	e7b6      	b.n	800091e <__aeabi_ddiv+0x82>
 80009b0:	f411 1f80 	tst.w	r1, #1048576	@ 0x100000
 80009b4:	bf04      	itt	eq
 80009b6:	4301      	orreq	r1, r0
 80009b8:	2000      	moveq	r0, #0
 80009ba:	f1b4 0cfd 	subs.w	ip, r4, #253	@ 0xfd
 80009be:	bf88      	it	hi
 80009c0:	f5bc 6fe0 	cmphi.w	ip, #1792	@ 0x700
 80009c4:	f63f aeaf 	bhi.w	8000726 <__aeabi_dmul+0xde>
 80009c8:	ebb5 0c03 	subs.w	ip, r5, r3
 80009cc:	bf04      	itt	eq
 80009ce:	ebb6 0c02 	subseq.w	ip, r6, r2
 80009d2:	ea5f 0c50 	movseq.w	ip, r0, lsr #1
 80009d6:	f150 0000 	adcs.w	r0, r0, #0
 80009da:	eb41 5104 	adc.w	r1, r1, r4, lsl #20
 80009de:	bd70      	pop	{r4, r5, r6, pc}
 80009e0:	f00e 4e00 	and.w	lr, lr, #2147483648	@ 0x80000000
 80009e4:	ea4e 3111 	orr.w	r1, lr, r1, lsr #12
 80009e8:	eb14 045c 	adds.w	r4, r4, ip, lsr #1
 80009ec:	bfc2      	ittt	gt
 80009ee:	ebd4 050c 	rsbsgt	r5, r4, ip
 80009f2:	ea41 5104 	orrgt.w	r1, r1, r4, lsl #20
 80009f6:	bd70      	popgt	{r4, r5, r6, pc}
 80009f8:	f441 1180 	orr.w	r1, r1, #1048576	@ 0x100000
 80009fc:	f04f 0e00 	mov.w	lr, #0
 8000a00:	3c01      	subs	r4, #1
 8000a02:	e690      	b.n	8000726 <__aeabi_dmul+0xde>
 8000a04:	ea45 0e06 	orr.w	lr, r5, r6
 8000a08:	e68d      	b.n	8000726 <__aeabi_dmul+0xde>
 8000a0a:	ea0c 5513 	and.w	r5, ip, r3, lsr #20
 8000a0e:	ea94 0f0c 	teq	r4, ip
 8000a12:	bf08      	it	eq
 8000a14:	ea95 0f0c 	teqeq	r5, ip
 8000a18:	f43f af3b 	beq.w	8000892 <__aeabi_dmul+0x24a>
 8000a1c:	ea94 0f0c 	teq	r4, ip
 8000a20:	d10a      	bne.n	8000a38 <__aeabi_ddiv+0x19c>
 8000a22:	ea50 3401 	orrs.w	r4, r0, r1, lsl #12
 8000a26:	f47f af34 	bne.w	8000892 <__aeabi_dmul+0x24a>
 8000a2a:	ea95 0f0c 	teq	r5, ip
 8000a2e:	f47f af25 	bne.w	800087c <__aeabi_dmul+0x234>
 8000a32:	4610      	mov	r0, r2
 8000a34:	4619      	mov	r1, r3
 8000a36:	e72c      	b.n	8000892 <__aeabi_dmul+0x24a>
 8000a38:	ea95 0f0c 	teq	r5, ip
 8000a3c:	d106      	bne.n	8000a4c <__aeabi_ddiv+0x1b0>
 8000a3e:	ea52 3503 	orrs.w	r5, r2, r3, lsl #12
 8000a42:	f43f aefd 	beq.w	8000840 <__aeabi_dmul+0x1f8>
 8000a46:	4610      	mov	r0, r2
 8000a48:	4619      	mov	r1, r3
 8000a4a:	e722      	b.n	8000892 <__aeabi_dmul+0x24a>
 8000a4c:	ea50 0641 	orrs.w	r6, r0, r1, lsl #1
 8000a50:	bf18      	it	ne
 8000a52:	ea52 0643 	orrsne.w	r6, r2, r3, lsl #1
 8000a56:	f47f aec5 	bne.w	80007e4 <__aeabi_dmul+0x19c>
 8000a5a:	ea50 0441 	orrs.w	r4, r0, r1, lsl #1
 8000a5e:	f47f af0d 	bne.w	800087c <__aeabi_dmul+0x234>
 8000a62:	ea52 0543 	orrs.w	r5, r2, r3, lsl #1
 8000a66:	f47f aeeb 	bne.w	8000840 <__aeabi_dmul+0x1f8>
 8000a6a:	e712      	b.n	8000892 <__aeabi_dmul+0x24a>

08000a6c <__gedf2>:
 8000a6c:	f04f 3cff 	mov.w	ip, #4294967295	@ 0xffffffff
 8000a70:	e006      	b.n	8000a80 <__cmpdf2+0x4>
 8000a72:	bf00      	nop

08000a74 <__ledf2>:
 8000a74:	f04f 0c01 	mov.w	ip, #1
 8000a78:	e002      	b.n	8000a80 <__cmpdf2+0x4>
 8000a7a:	bf00      	nop

08000a7c <__cmpdf2>:
 8000a7c:	f04f 0c01 	mov.w	ip, #1
 8000a80:	f84d cd04 	str.w	ip, [sp, #-4]!
 8000a84:	ea4f 0c41 	mov.w	ip, r1, lsl #1
 8000a88:	ea7f 5c6c 	mvns.w	ip, ip, asr #21
 8000a8c:	ea4f 0c43 	mov.w	ip, r3, lsl #1
 8000a90:	bf18      	it	ne
 8000a92:	ea7f 5c6c 	mvnsne.w	ip, ip, asr #21
 8000a96:	d01b      	beq.n	8000ad0 <__cmpdf2+0x54>
 8000a98:	b001      	add	sp, #4
 8000a9a:	ea50 0c41 	orrs.w	ip, r0, r1, lsl #1
 8000a9e:	bf0c      	ite	eq
 8000aa0:	ea52 0c43 	orrseq.w	ip, r2, r3, lsl #1
 8000aa4:	ea91 0f03 	teqne	r1, r3
 8000aa8:	bf02      	ittt	eq
 8000aaa:	ea90 0f02 	teqeq	r0, r2
 8000aae:	2000      	moveq	r0, #0
 8000ab0:	4770      	bxeq	lr
 8000ab2:	f110 0f00 	cmn.w	r0, #0
 8000ab6:	ea91 0f03 	teq	r1, r3
 8000aba:	bf58      	it	pl
 8000abc:	4299      	cmppl	r1, r3
 8000abe:	bf08      	it	eq
 8000ac0:	4290      	cmpeq	r0, r2
 8000ac2:	bf2c      	ite	cs
 8000ac4:	17d8      	asrcs	r0, r3, #31
 8000ac6:	ea6f 70e3 	mvncc.w	r0, r3, asr #31
 8000aca:	f040 0001 	orr.w	r0, r0, #1
 8000ace:	4770      	bx	lr
 8000ad0:	ea4f 0c41 	mov.w	ip, r1, lsl #1
 8000ad4:	ea7f 5c6c 	mvns.w	ip, ip, asr #21
 8000ad8:	d102      	bne.n	8000ae0 <__cmpdf2+0x64>
 8000ada:	ea50 3c01 	orrs.w	ip, r0, r1, lsl #12
 8000ade:	d107      	bne.n	8000af0 <__cmpdf2+0x74>
 8000ae0:	ea4f 0c43 	mov.w	ip, r3, lsl #1
 8000ae4:	ea7f 5c6c 	mvns.w	ip, ip, asr #21
 8000ae8:	d1d6      	bne.n	8000a98 <__cmpdf2+0x1c>
 8000aea:	ea52 3c03 	orrs.w	ip, r2, r3, lsl #12
 8000aee:	d0d3      	beq.n	8000a98 <__cmpdf2+0x1c>
 8000af0:	f85d 0b04 	ldr.w	r0, [sp], #4
 8000af4:	4770      	bx	lr
 8000af6:	bf00      	nop

08000af8 <__aeabi_cdrcmple>:
 8000af8:	4684      	mov	ip, r0
 8000afa:	4610      	mov	r0, r2
 8000afc:	4662      	mov	r2, ip
 8000afe:	468c      	mov	ip, r1
 8000b00:	4619      	mov	r1, r3
 8000b02:	4663      	mov	r3, ip
 8000b04:	e000      	b.n	8000b08 <__aeabi_cdcmpeq>
 8000b06:	bf00      	nop

08000b08 <__aeabi_cdcmpeq>:
 8000b08:	b501      	push	{r0, lr}
 8000b0a:	f7ff ffb7 	bl	8000a7c <__cmpdf2>
 8000b0e:	2800      	cmp	r0, #0
 8000b10:	bf48      	it	mi
 8000b12:	f110 0f00 	cmnmi.w	r0, #0
 8000b16:	bd01      	pop	{r0, pc}

08000b18 <__aeabi_dcmpeq>:
 8000b18:	f84d ed08 	str.w	lr, [sp, #-8]!
 8000b1c:	f7ff fff4 	bl	8000b08 <__aeabi_cdcmpeq>
 8000b20:	bf0c      	ite	eq
 8000b22:	2001      	moveq	r0, #1
 8000b24:	2000      	movne	r0, #0
 8000b26:	f85d fb08 	ldr.w	pc, [sp], #8
 8000b2a:	bf00      	nop

08000b2c <__aeabi_dcmplt>:
 8000b2c:	f84d ed08 	str.w	lr, [sp, #-8]!
 8000b30:	f7ff ffea 	bl	8000b08 <__aeabi_cdcmpeq>
 8000b34:	bf34      	ite	cc
 8000b36:	2001      	movcc	r0, #1
 8000b38:	2000      	movcs	r0, #0
 8000b3a:	f85d fb08 	ldr.w	pc, [sp], #8
 8000b3e:	bf00      	nop

08000b40 <__aeabi_dcmple>:
 8000b40:	f84d ed08 	str.w	lr, [sp, #-8]!
 8000b44:	f7ff ffe0 	bl	8000b08 <__aeabi_cdcmpeq>
 8000b48:	bf94      	ite	ls
 8000b4a:	2001      	movls	r0, #1
 8000b4c:	2000      	movhi	r0, #0
 8000b4e:	f85d fb08 	ldr.w	pc, [sp], #8
 8000b52:	bf00      	nop

08000b54 <__aeabi_dcmpge>:
 8000b54:	f84d ed08 	str.w	lr, [sp, #-8]!
 8000b58:	f7ff ffce 	bl	8000af8 <__aeabi_cdrcmple>
 8000b5c:	bf94      	ite	ls
 8000b5e:	2001      	movls	r0, #1
 8000b60:	2000      	movhi	r0, #0
 8000b62:	f85d fb08 	ldr.w	pc, [sp], #8
 8000b66:	bf00      	nop

08000b68 <__aeabi_dcmpgt>:
 8000b68:	f84d ed08 	str.w	lr, [sp, #-8]!
 8000b6c:	f7ff ffc4 	bl	8000af8 <__aeabi_cdrcmple>
 8000b70:	bf34      	ite	cc
 8000b72:	2001      	movcc	r0, #1
 8000b74:	2000      	movcs	r0, #0
 8000b76:	f85d fb08 	ldr.w	pc, [sp], #8
 8000b7a:	bf00      	nop

08000b7c <__aeabi_dcmpun>:
 8000b7c:	ea4f 0c41 	mov.w	ip, r1, lsl #1
 8000b80:	ea7f 5c6c 	mvns.w	ip, ip, asr #21
 8000b84:	d102      	bne.n	8000b8c <__aeabi_dcmpun+0x10>
 8000b86:	ea50 3c01 	orrs.w	ip, r0, r1, lsl #12
 8000b8a:	d10a      	bne.n	8000ba2 <__aeabi_dcmpun+0x26>
 8000b8c:	ea4f 0c43 	mov.w	ip, r3, lsl #1
 8000b90:	ea7f 5c6c 	mvns.w	ip, ip, asr #21
 8000b94:	d102      	bne.n	8000b9c <__aeabi_dcmpun+0x20>
 8000b96:	ea52 3c03 	orrs.w	ip, r2, r3, lsl #12
 8000b9a:	d102      	bne.n	8000ba2 <__aeabi_dcmpun+0x26>
 8000b9c:	f04f 0000 	mov.w	r0, #0
 8000ba0:	4770      	bx	lr
 8000ba2:	f04f 0001 	mov.w	r0, #1
 8000ba6:	4770      	bx	lr

08000ba8 <__aeabi_d2iz>:
 8000ba8:	ea4f 0241 	mov.w	r2, r1, lsl #1
 8000bac:	f512 1200 	adds.w	r2, r2, #2097152	@ 0x200000
 8000bb0:	d215      	bcs.n	8000bde <__aeabi_d2iz+0x36>
 8000bb2:	d511      	bpl.n	8000bd8 <__aeabi_d2iz+0x30>
 8000bb4:	f46f 7378 	mvn.w	r3, #992	@ 0x3e0
 8000bb8:	ebb3 5262 	subs.w	r2, r3, r2, asr #21
 8000bbc:	d912      	bls.n	8000be4 <__aeabi_d2iz+0x3c>
 8000bbe:	ea4f 23c1 	mov.w	r3, r1, lsl #11
 8000bc2:	f043 4300 	orr.w	r3, r3, #2147483648	@ 0x80000000
 8000bc6:	ea43 5350 	orr.w	r3, r3, r0, lsr #21
 8000bca:	f011 4f00 	tst.w	r1, #2147483648	@ 0x80000000
 8000bce:	fa23 f002 	lsr.w	r0, r3, r2
 8000bd2:	bf18      	it	ne
 8000bd4:	4240      	negne	r0, r0
 8000bd6:	4770      	bx	lr
 8000bd8:	f04f 0000 	mov.w	r0, #0
 8000bdc:	4770      	bx	lr
 8000bde:	ea50 3001 	orrs.w	r0, r0, r1, lsl #12
 8000be2:	d105      	bne.n	8000bf0 <__aeabi_d2iz+0x48>
 8000be4:	f011 4000 	ands.w	r0, r1, #2147483648	@ 0x80000000
 8000be8:	bf08      	it	eq
 8000bea:	f06f 4000 	mvneq.w	r0, #2147483648	@ 0x80000000
 8000bee:	4770      	bx	lr
 8000bf0:	f04f 0000 	mov.w	r0, #0
 8000bf4:	4770      	bx	lr
 8000bf6:	bf00      	nop

08000bf8 <__aeabi_uldivmod>:
 8000bf8:	b953      	cbnz	r3, 8000c10 <__aeabi_uldivmod+0x18>
 8000bfa:	b94a      	cbnz	r2, 8000c10 <__aeabi_uldivmod+0x18>
 8000bfc:	2900      	cmp	r1, #0
 8000bfe:	bf08      	it	eq
 8000c00:	2800      	cmpeq	r0, #0
 8000c02:	bf1c      	itt	ne
 8000c04:	f04f 31ff 	movne.w	r1, #4294967295	@ 0xffffffff
 8000c08:	f04f 30ff 	movne.w	r0, #4294967295	@ 0xffffffff
 8000c0c:	f000 b988 	b.w	8000f20 <__aeabi_idiv0>
 8000c10:	f1ad 0c08 	sub.w	ip, sp, #8
 8000c14:	e96d ce04 	strd	ip, lr, [sp, #-16]!
 8000c18:	f000 f806 	bl	8000c28 <__udivmoddi4>
 8000c1c:	f8dd e004 	ldr.w	lr, [sp, #4]
 8000c20:	e9dd 2302 	ldrd	r2, r3, [sp, #8]
 8000c24:	b004      	add	sp, #16
 8000c26:	4770      	bx	lr

08000c28 <__udivmoddi4>:
 8000c28:	e92d 47f0 	stmdb	sp!, {r4, r5, r6, r7, r8, r9, sl, lr}
 8000c2c:	9d08      	ldr	r5, [sp, #32]
 8000c2e:	468e      	mov	lr, r1
 8000c30:	4604      	mov	r4, r0
 8000c32:	4688      	mov	r8, r1
 8000c34:	2b00      	cmp	r3, #0
 8000c36:	d14a      	bne.n	8000cce <__udivmoddi4+0xa6>
 8000c38:	428a      	cmp	r2, r1
 8000c3a:	4617      	mov	r7, r2
 8000c3c:	d962      	bls.n	8000d04 <__udivmoddi4+0xdc>
 8000c3e:	fab2 f682 	clz	r6, r2
 8000c42:	b14e      	cbz	r6, 8000c58 <__udivmoddi4+0x30>
 8000c44:	f1c6 0320 	rsb	r3, r6, #32
 8000c48:	fa01 f806 	lsl.w	r8, r1, r6
 8000c4c:	fa20 f303 	lsr.w	r3, r0, r3
 8000c50:	40b7      	lsls	r7, r6
 8000c52:	ea43 0808 	orr.w	r8, r3, r8
 8000c56:	40b4      	lsls	r4, r6
 8000c58:	ea4f 4e17 	mov.w	lr, r7, lsr #16
 8000c5c:	fa1f fc87 	uxth.w	ip, r7
 8000c60:	fbb8 f1fe 	udiv	r1, r8, lr
 8000c64:	0c23      	lsrs	r3, r4, #16
 8000c66:	fb0e 8811 	mls	r8, lr, r1, r8
 8000c6a:	ea43 4308 	orr.w	r3, r3, r8, lsl #16
 8000c6e:	fb01 f20c 	mul.w	r2, r1, ip
 8000c72:	429a      	cmp	r2, r3
 8000c74:	d909      	bls.n	8000c8a <__udivmoddi4+0x62>
 8000c76:	18fb      	adds	r3, r7, r3
 8000c78:	f101 30ff 	add.w	r0, r1, #4294967295	@ 0xffffffff
 8000c7c:	f080 80ea 	bcs.w	8000e54 <__udivmoddi4+0x22c>
 8000c80:	429a      	cmp	r2, r3
 8000c82:	f240 80e7 	bls.w	8000e54 <__udivmoddi4+0x22c>
 8000c86:	3902      	subs	r1, #2
 8000c88:	443b      	add	r3, r7
 8000c8a:	1a9a      	subs	r2, r3, r2
 8000c8c:	b2a3      	uxth	r3, r4
 8000c8e:	fbb2 f0fe 	udiv	r0, r2, lr
 8000c92:	fb0e 2210 	mls	r2, lr, r0, r2
 8000c96:	ea43 4302 	orr.w	r3, r3, r2, lsl #16
 8000c9a:	fb00 fc0c 	mul.w	ip, r0, ip
 8000c9e:	459c      	cmp	ip, r3
 8000ca0:	d909      	bls.n	8000cb6 <__udivmoddi4+0x8e>
 8000ca2:	18fb      	adds	r3, r7, r3
 8000ca4:	f100 32ff 	add.w	r2, r0, #4294967295	@ 0xffffffff
 8000ca8:	f080 80d6 	bcs.w	8000e58 <__udivmoddi4+0x230>
 8000cac:	459c      	cmp	ip, r3
 8000cae:	f240 80d3 	bls.w	8000e58 <__udivmoddi4+0x230>
 8000cb2:	443b      	add	r3, r7
 8000cb4:	3802      	subs	r0, #2
 8000cb6:	ea40 4001 	orr.w	r0, r0, r1, lsl #16
 8000cba:	eba3 030c 	sub.w	r3, r3, ip
 8000cbe:	2100      	movs	r1, #0
 8000cc0:	b11d      	cbz	r5, 8000cca <__udivmoddi4+0xa2>
 8000cc2:	40f3      	lsrs	r3, r6
 8000cc4:	2200      	movs	r2, #0
 8000cc6:	e9c5 3200 	strd	r3, r2, [r5]
 8000cca:	e8bd 87f0 	ldmia.w	sp!, {r4, r5, r6, r7, r8, r9, sl, pc}
 8000cce:	428b      	cmp	r3, r1
 8000cd0:	d905      	bls.n	8000cde <__udivmoddi4+0xb6>
 8000cd2:	b10d      	cbz	r5, 8000cd8 <__udivmoddi4+0xb0>
 8000cd4:	e9c5 0100 	strd	r0, r1, [r5]
 8000cd8:	2100      	movs	r1, #0
 8000cda:	4608      	mov	r0, r1
 8000cdc:	e7f5      	b.n	8000cca <__udivmoddi4+0xa2>
 8000cde:	fab3 f183 	clz	r1, r3
 8000ce2:	2900      	cmp	r1, #0
 8000ce4:	d146      	bne.n	8000d74 <__udivmoddi4+0x14c>
 8000ce6:	4573      	cmp	r3, lr
 8000ce8:	d302      	bcc.n	8000cf0 <__udivmoddi4+0xc8>
 8000cea:	4282      	cmp	r2, r0
 8000cec:	f200 8105 	bhi.w	8000efa <__udivmoddi4+0x2d2>
 8000cf0:	1a84      	subs	r4, r0, r2
 8000cf2:	eb6e 0203 	sbc.w	r2, lr, r3
 8000cf6:	2001      	movs	r0, #1
 8000cf8:	4690      	mov	r8, r2
 8000cfa:	2d00      	cmp	r5, #0
 8000cfc:	d0e5      	beq.n	8000cca <__udivmoddi4+0xa2>
 8000cfe:	e9c5 4800 	strd	r4, r8, [r5]
 8000d02:	e7e2      	b.n	8000cca <__udivmoddi4+0xa2>
 8000d04:	2a00      	cmp	r2, #0
 8000d06:	f000 8090 	beq.w	8000e2a <__udivmoddi4+0x202>
 8000d0a:	fab2 f682 	clz	r6, r2
 8000d0e:	2e00      	cmp	r6, #0
 8000d10:	f040 80a4 	bne.w	8000e5c <__udivmoddi4+0x234>
 8000d14:	1a8a      	subs	r2, r1, r2
 8000d16:	0c03      	lsrs	r3, r0, #16
 8000d18:	ea4f 4e17 	mov.w	lr, r7, lsr #16
 8000d1c:	b280      	uxth	r0, r0
 8000d1e:	b2bc      	uxth	r4, r7
 8000d20:	2101      	movs	r1, #1
 8000d22:	fbb2 fcfe 	udiv	ip, r2, lr
 8000d26:	fb0e 221c 	mls	r2, lr, ip, r2
 8000d2a:	ea43 4302 	orr.w	r3, r3, r2, lsl #16
 8000d2e:	fb04 f20c 	mul.w	r2, r4, ip
 8000d32:	429a      	cmp	r2, r3
 8000d34:	d907      	bls.n	8000d46 <__udivmoddi4+0x11e>
 8000d36:	18fb      	adds	r3, r7, r3
 8000d38:	f10c 38ff 	add.w	r8, ip, #4294967295	@ 0xffffffff
 8000d3c:	d202      	bcs.n	8000d44 <__udivmoddi4+0x11c>
 8000d3e:	429a      	cmp	r2, r3
 8000d40:	f200 80e0 	bhi.w	8000f04 <__udivmoddi4+0x2dc>
 8000d44:	46c4      	mov	ip, r8
 8000d46:	1a9b      	subs	r3, r3, r2
 8000d48:	fbb3 f2fe 	udiv	r2, r3, lr
 8000d4c:	fb0e 3312 	mls	r3, lr, r2, r3
 8000d50:	ea40 4303 	orr.w	r3, r0, r3, lsl #16
 8000d54:	fb02 f404 	mul.w	r4, r2, r4
 8000d58:	429c      	cmp	r4, r3
 8000d5a:	d907      	bls.n	8000d6c <__udivmoddi4+0x144>
 8000d5c:	18fb      	adds	r3, r7, r3
 8000d5e:	f102 30ff 	add.w	r0, r2, #4294967295	@ 0xffffffff
 8000d62:	d202      	bcs.n	8000d6a <__udivmoddi4+0x142>
 8000d64:	429c      	cmp	r4, r3
 8000d66:	f200 80ca 	bhi.w	8000efe <__udivmoddi4+0x2d6>
 8000d6a:	4602      	mov	r2, r0
 8000d6c:	1b1b      	subs	r3, r3, r4
 8000d6e:	ea42 400c 	orr.w	r0, r2, ip, lsl #16
 8000d72:	e7a5      	b.n	8000cc0 <__udivmoddi4+0x98>
 8000d74:	f1c1 0620 	rsb	r6, r1, #32
 8000d78:	408b      	lsls	r3, r1
 8000d7a:	fa22 f706 	lsr.w	r7, r2, r6
 8000d7e:	431f      	orrs	r7, r3
 8000d80:	fa0e f401 	lsl.w	r4, lr, r1
 8000d84:	fa20 f306 	lsr.w	r3, r0, r6
 8000d88:	fa2e fe06 	lsr.w	lr, lr, r6
 8000d8c:	ea4f 4917 	mov.w	r9, r7, lsr #16
 8000d90:	4323      	orrs	r3, r4
 8000d92:	fa00 f801 	lsl.w	r8, r0, r1
 8000d96:	fa1f fc87 	uxth.w	ip, r7
 8000d9a:	fbbe f0f9 	udiv	r0, lr, r9
 8000d9e:	0c1c      	lsrs	r4, r3, #16
 8000da0:	fb09 ee10 	mls	lr, r9, r0, lr
 8000da4:	ea44 440e 	orr.w	r4, r4, lr, lsl #16
 8000da8:	fb00 fe0c 	mul.w	lr, r0, ip
 8000dac:	45a6      	cmp	lr, r4
 8000dae:	fa02 f201 	lsl.w	r2, r2, r1
 8000db2:	d909      	bls.n	8000dc8 <__udivmoddi4+0x1a0>
 8000db4:	193c      	adds	r4, r7, r4
 8000db6:	f100 3aff 	add.w	sl, r0, #4294967295	@ 0xffffffff
 8000dba:	f080 809c 	bcs.w	8000ef6 <__udivmoddi4+0x2ce>
 8000dbe:	45a6      	cmp	lr, r4
 8000dc0:	f240 8099 	bls.w	8000ef6 <__udivmoddi4+0x2ce>
 8000dc4:	3802      	subs	r0, #2
 8000dc6:	443c      	add	r4, r7
 8000dc8:	eba4 040e 	sub.w	r4, r4, lr
 8000dcc:	fa1f fe83 	uxth.w	lr, r3
 8000dd0:	fbb4 f3f9 	udiv	r3, r4, r9
 8000dd4:	fb09 4413 	mls	r4, r9, r3, r4
 8000dd8:	ea4e 4404 	orr.w	r4, lr, r4, lsl #16
 8000ddc:	fb03 fc0c 	mul.w	ip, r3, ip
 8000de0:	45a4      	cmp	ip, r4
 8000de2:	d908      	bls.n	8000df6 <__udivmoddi4+0x1ce>
 8000de4:	193c      	adds	r4, r7, r4
 8000de6:	f103 3eff 	add.w	lr, r3, #4294967295	@ 0xffffffff
 8000dea:	f080 8082 	bcs.w	8000ef2 <__udivmoddi4+0x2ca>
 8000dee:	45a4      	cmp	ip, r4
 8000df0:	d97f      	bls.n	8000ef2 <__udivmoddi4+0x2ca>
 8000df2:	3b02      	subs	r3, #2
 8000df4:	443c      	add	r4, r7
 8000df6:	ea43 4000 	orr.w	r0, r3, r0, lsl #16
 8000dfa:	eba4 040c 	sub.w	r4, r4, ip
 8000dfe:	fba0 ec02 	umull	lr, ip, r0, r2
 8000e02:	4564      	cmp	r4, ip
 8000e04:	4673      	mov	r3, lr
 8000e06:	46e1      	mov	r9, ip
 8000e08:	d362      	bcc.n	8000ed0 <__udivmoddi4+0x2a8>
 8000e0a:	d05f      	beq.n	8000ecc <__udivmoddi4+0x2a4>
 8000e0c:	b15d      	cbz	r5, 8000e26 <__udivmoddi4+0x1fe>
 8000e0e:	ebb8 0203 	subs.w	r2, r8, r3
 8000e12:	eb64 0409 	sbc.w	r4, r4, r9
 8000e16:	fa04 f606 	lsl.w	r6, r4, r6
 8000e1a:	fa22 f301 	lsr.w	r3, r2, r1
 8000e1e:	431e      	orrs	r6, r3
 8000e20:	40cc      	lsrs	r4, r1
 8000e22:	e9c5 6400 	strd	r6, r4, [r5]
 8000e26:	2100      	movs	r1, #0
 8000e28:	e74f      	b.n	8000cca <__udivmoddi4+0xa2>
 8000e2a:	fbb1 fcf2 	udiv	ip, r1, r2
 8000e2e:	0c01      	lsrs	r1, r0, #16
 8000e30:	ea41 410e 	orr.w	r1, r1, lr, lsl #16
 8000e34:	b280      	uxth	r0, r0
 8000e36:	ea40 4201 	orr.w	r2, r0, r1, lsl #16
 8000e3a:	463b      	mov	r3, r7
 8000e3c:	4638      	mov	r0, r7
 8000e3e:	463c      	mov	r4, r7
 8000e40:	46b8      	mov	r8, r7
 8000e42:	46be      	mov	lr, r7
 8000e44:	2620      	movs	r6, #32
 8000e46:	fbb1 f1f7 	udiv	r1, r1, r7
 8000e4a:	eba2 0208 	sub.w	r2, r2, r8
 8000e4e:	ea41 410c 	orr.w	r1, r1, ip, lsl #16
 8000e52:	e766      	b.n	8000d22 <__udivmoddi4+0xfa>
 8000e54:	4601      	mov	r1, r0
 8000e56:	e718      	b.n	8000c8a <__udivmoddi4+0x62>
 8000e58:	4610      	mov	r0, r2
 8000e5a:	e72c      	b.n	8000cb6 <__udivmoddi4+0x8e>
 8000e5c:	f1c6 0220 	rsb	r2, r6, #32
 8000e60:	fa2e f302 	lsr.w	r3, lr, r2
 8000e64:	40b7      	lsls	r7, r6
 8000e66:	40b1      	lsls	r1, r6
 8000e68:	fa20 f202 	lsr.w	r2, r0, r2
 8000e6c:	ea4f 4e17 	mov.w	lr, r7, lsr #16
 8000e70:	430a      	orrs	r2, r1
 8000e72:	fbb3 f8fe 	udiv	r8, r3, lr
 8000e76:	b2bc      	uxth	r4, r7
 8000e78:	fb0e 3318 	mls	r3, lr, r8, r3
 8000e7c:	0c11      	lsrs	r1, r2, #16
 8000e7e:	ea41 4103 	orr.w	r1, r1, r3, lsl #16
 8000e82:	fb08 f904 	mul.w	r9, r8, r4
 8000e86:	40b0      	lsls	r0, r6
 8000e88:	4589      	cmp	r9, r1
 8000e8a:	ea4f 4310 	mov.w	r3, r0, lsr #16
 8000e8e:	b280      	uxth	r0, r0
 8000e90:	d93e      	bls.n	8000f10 <__udivmoddi4+0x2e8>
 8000e92:	1879      	adds	r1, r7, r1
 8000e94:	f108 3cff 	add.w	ip, r8, #4294967295	@ 0xffffffff
 8000e98:	d201      	bcs.n	8000e9e <__udivmoddi4+0x276>
 8000e9a:	4589      	cmp	r9, r1
 8000e9c:	d81f      	bhi.n	8000ede <__udivmoddi4+0x2b6>
 8000e9e:	eba1 0109 	sub.w	r1, r1, r9
 8000ea2:	fbb1 f9fe 	udiv	r9, r1, lr
 8000ea6:	fb09 f804 	mul.w	r8, r9, r4
 8000eaa:	fb0e 1119 	mls	r1, lr, r9, r1
 8000eae:	b292      	uxth	r2, r2
 8000eb0:	ea42 4201 	orr.w	r2, r2, r1, lsl #16
 8000eb4:	4542      	cmp	r2, r8
 8000eb6:	d229      	bcs.n	8000f0c <__udivmoddi4+0x2e4>
 8000eb8:	18ba      	adds	r2, r7, r2
 8000eba:	f109 31ff 	add.w	r1, r9, #4294967295	@ 0xffffffff
 8000ebe:	d2c4      	bcs.n	8000e4a <__udivmoddi4+0x222>
 8000ec0:	4542      	cmp	r2, r8
 8000ec2:	d2c2      	bcs.n	8000e4a <__udivmoddi4+0x222>
 8000ec4:	f1a9 0102 	sub.w	r1, r9, #2
 8000ec8:	443a      	add	r2, r7
 8000eca:	e7be      	b.n	8000e4a <__udivmoddi4+0x222>
 8000ecc:	45f0      	cmp	r8, lr
 8000ece:	d29d      	bcs.n	8000e0c <__udivmoddi4+0x1e4>
 8000ed0:	ebbe 0302 	subs.w	r3, lr, r2
 8000ed4:	eb6c 0c07 	sbc.w	ip, ip, r7
 8000ed8:	3801      	subs	r0, #1
 8000eda:	46e1      	mov	r9, ip
 8000edc:	e796      	b.n	8000e0c <__udivmoddi4+0x1e4>
 8000ede:	eba7 0909 	sub.w	r9, r7, r9
 8000ee2:	4449      	add	r1, r9
 8000ee4:	f1a8 0c02 	sub.w	ip, r8, #2
 8000ee8:	fbb1 f9fe 	udiv	r9, r1, lr
 8000eec:	fb09 f804 	mul.w	r8, r9, r4
 8000ef0:	e7db      	b.n	8000eaa <__udivmoddi4+0x282>
 8000ef2:	4673      	mov	r3, lr
 8000ef4:	e77f      	b.n	8000df6 <__udivmoddi4+0x1ce>
 8000ef6:	4650      	mov	r0, sl
 8000ef8:	e766      	b.n	8000dc8 <__udivmoddi4+0x1a0>
 8000efa:	4608      	mov	r0, r1
 8000efc:	e6fd      	b.n	8000cfa <__udivmoddi4+0xd2>
 8000efe:	443b      	add	r3, r7
 8000f00:	3a02      	subs	r2, #2
 8000f02:	e733      	b.n	8000d6c <__udivmoddi4+0x144>
 8000f04:	f1ac 0c02 	sub.w	ip, ip, #2
 8000f08:	443b      	add	r3, r7
 8000f0a:	e71c      	b.n	8000d46 <__udivmoddi4+0x11e>
 8000f0c:	4649      	mov	r1, r9
 8000f0e:	e79c      	b.n	8000e4a <__udivmoddi4+0x222>
 8000f10:	eba1 0109 	sub.w	r1, r1, r9
 8000f14:	46c4      	mov	ip, r8
 8000f16:	fbb1 f9fe 	udiv	r9, r1, lr
 8000f1a:	fb09 f804 	mul.w	r8, r9, r4
 8000f1e:	e7c4      	b.n	8000eaa <__udivmoddi4+0x282>

08000f20 <__aeabi_idiv0>:
 8000f20:	4770      	bx	lr
 8000f22:	bf00      	nop

08000f24 <Button_Update>:
static uint8_t bluePressed;
static uint8_t powerDown;



void Button_Update(SystemState *state){
 8000f24:	e92d 41f0 	stmdb	sp!, {r4, r5, r6, r7, r8, lr}


	GPIO_PinState buttonState = HAL_GPIO_ReadPin(GPIOC, BUTTON_IN_Pin); // read the button status
 8000f28:	2180      	movs	r1, #128	@ 0x80


	if ((buttonState == GPIO_PIN_RESET) && (buttonPushedAlready == 0)) // if the button gets pulled low (pushed) and it wasn't pulled low on the previous cycle
 8000f2a:	4f2a      	ldr	r7, [pc, #168]	@ (8000fd4 <Button_Update+0xb0>)
 8000f2c:	f8df 80c4 	ldr.w	r8, [pc, #196]	@ 8000ff4 <Button_Update+0xd0>
void Button_Update(SystemState *state){
 8000f30:	4606      	mov	r6, r0
	GPIO_PinState buttonState = HAL_GPIO_ReadPin(GPIOC, BUTTON_IN_Pin); // read the button status
 8000f32:	4829      	ldr	r0, [pc, #164]	@ (8000fd8 <Button_Update+0xb4>)
 8000f34:	f001 fec8 	bl	8002cc8 <HAL_GPIO_ReadPin>
	if ((buttonState == GPIO_PIN_RESET) && (buttonPushedAlready == 0)) // if the button gets pulled low (pushed) and it wasn't pulled low on the previous cycle
 8000f38:	783a      	ldrb	r2, [r7, #0]
 8000f3a:	ea42 0300 	orr.w	r3, r2, r0
 8000f3e:	f013 05ff 	ands.w	r5, r3, #255	@ 0xff
	GPIO_PinState buttonState = HAL_GPIO_ReadPin(GPIOC, BUTTON_IN_Pin); // read the button status
 8000f42:	4604      	mov	r4, r0
	if ((buttonState == GPIO_PIN_RESET) && (buttonPushedAlready == 0)) // if the button gets pulled low (pushed) and it wasn't pulled low on the previous cycle
 8000f44:	d132      	bne.n	8000fac <Button_Update+0x88>
	  {
	   	  wentLowTime = HAL_GetTick();
 8000f46:	f001 fd07 	bl	8002958 <HAL_GetTick>
 8000f4a:	4b24      	ldr	r3, [pc, #144]	@ (8000fdc <Button_Update+0xb8>)
 8000f4c:	6018      	str	r0, [r3, #0]
	   	  lockColor = 1; // lock the current led color so that we can blink it repeatedly
 8000f4e:	4b24      	ldr	r3, [pc, #144]	@ (8000fe0 <Button_Update+0xbc>)
 8000f50:	2201      	movs	r2, #1
 8000f52:	701a      	strb	r2, [r3, #0]
    	  buttonPushedAlready = 1; // this lets us know the button it already pushed so it doesn't get stuck if the button is held down
    	  buttonReleased = 0; //reset release flag so a new press starts clean
 8000f54:	4b23      	ldr	r3, [pc, #140]	@ (8000fe4 <Button_Update+0xc0>)
    	  buttonPushedAlready = 1; // this lets us know the button it already pushed so it doesn't get stuck if the button is held down
 8000f56:	703a      	strb	r2, [r7, #0]
    	  buttonReleased = 0; //reset release flag so a new press starts clean
 8000f58:	701d      	strb	r5, [r3, #0]

		  if (color == 'G'){ // if the red led is on, the 'G' is confusing but this is what the color variable gets set to when the red led is on
 8000f5a:	4b23      	ldr	r3, [pc, #140]	@ (8000fe8 <Button_Update+0xc4>)
 8000f5c:	781b      	ldrb	r3, [r3, #0]
 8000f5e:	2b47      	cmp	r3, #71	@ 0x47
 8000f60:	4b22      	ldr	r3, [pc, #136]	@ (8000fec <Button_Update+0xc8>)
 8000f62:	d11d      	bne.n	8000fa0 <Button_Update+0x7c>
		     /*we will use red to turn the sub off.
		      * The red led will flash slowly and the user will have to push it a
		      * second time in order to avoid accidentally powering the sub off
		      */

			  __HAL_TIM_SET_AUTORELOAD(&htim6, 7500); // give a longer period for the red led
 8000f64:	6818      	ldr	r0, [r3, #0]
		      checkRedMode = 1; // enter checkRedMode (we check for the second button push)
 8000f66:	f888 2000 	strb.w	r2, [r8]
			  __HAL_TIM_SET_AUTORELOAD(&htim6, 7500); // give a longer period for the red led
 8000f6a:	f641 514c 	movw	r1, #7500	@ 0x1d4c
 8000f6e:	62c1      	str	r1, [r0, #44]	@ 0x2c
 8000f70:	60d9      	str	r1, [r3, #12]
		    else if (color == 'R'){ // happens when the actual led is Blue
			    //CDC_Transmit_FS((uint8_t *)"Blue\r\n", 6);
		    	bluePressed = 1;
			    // fix me transmit something over USB so software can know we want to enter autonomous mode or whatever
		    }
		   __HAL_TIM_SET_COUNTER(&htim6, __HAL_TIM_GET_AUTORELOAD(&htim6) - 1); // force the previous timer to overflow, otherwise the led might stay on for a bit before the blink starts
 8000f72:	681a      	ldr	r2, [r3, #0]
 8000f74:	6ad3      	ldr	r3, [r2, #44]	@ 0x2c
 8000f76:	3b01      	subs	r3, #1
 8000f78:	6253      	str	r3, [r2, #36]	@ 0x24
		    wentHighTime = HAL_GetTick();
		    buttonReleased = 1; // we know the button was released
		    buttonPushedAlready = 0; //clear pushed flag so next press is detected
		}

		if ((checkRedMode == 1) && (buttonReleased == 1) && (buttonState == GPIO_PIN_RESET) && ((HAL_GetTick() - wentHighTime) > 200)){
 8000f7a:	f898 3000 	ldrb.w	r3, [r8]
 8000f7e:	2b01      	cmp	r3, #1
 8000f80:	d10c      	bne.n	8000f9c <Button_Update+0x78>
 8000f82:	4b18      	ldr	r3, [pc, #96]	@ (8000fe4 <Button_Update+0xc0>)
 8000f84:	781d      	ldrb	r5, [r3, #0]
 8000f86:	2d01      	cmp	r5, #1
 8000f88:	d108      	bne.n	8000f9c <Button_Update+0x78>
 8000f8a:	b93c      	cbnz	r4, 8000f9c <Button_Update+0x78>
 8000f8c:	f001 fce4 	bl	8002958 <HAL_GetTick>
 8000f90:	4b17      	ldr	r3, [pc, #92]	@ (8000ff0 <Button_Update+0xcc>)
 8000f92:	681b      	ldr	r3, [r3, #0]
 8000f94:	1ac0      	subs	r0, r0, r3
 8000f96:	28c8      	cmp	r0, #200	@ 0xc8
		    powerDown = 1; // power down if the red led is flashing and gets pressed a second time
		    state->powerDownButton = 1;
 8000f98:	bf88      	it	hi
 8000f9a:	63f5      	strhi	r5, [r6, #60]	@ 0x3c
	        //CDC_Transmit_FS((uint8_t *)"Power Off\r\n", 11);
		    // note that switch bounce is an issue with a standard push button. Hopefully the piezo button won't have any issues
		}
}
 8000f9c:	e8bd 81f0 	ldmia.w	sp!, {r4, r5, r6, r7, r8, pc}
			   __HAL_TIM_SET_AUTORELOAD(&htim6, 2000); // for non red colors we blink the leds faster
 8000fa0:	6819      	ldr	r1, [r3, #0]
 8000fa2:	f44f 62fa 	mov.w	r2, #2000	@ 0x7d0
 8000fa6:	62ca      	str	r2, [r1, #44]	@ 0x2c
 8000fa8:	60da      	str	r2, [r3, #12]
 8000faa:	e7e2      	b.n	8000f72 <Button_Update+0x4e>
		if ((buttonPushedAlready == 1) && (buttonState == GPIO_PIN_SET) && ((HAL_GetTick() - wentLowTime) > 200)){
 8000fac:	2a01      	cmp	r2, #1
 8000fae:	d1e4      	bne.n	8000f7a <Button_Update+0x56>
 8000fb0:	2801      	cmp	r0, #1
 8000fb2:	d1e2      	bne.n	8000f7a <Button_Update+0x56>
 8000fb4:	f001 fcd0 	bl	8002958 <HAL_GetTick>
 8000fb8:	4b08      	ldr	r3, [pc, #32]	@ (8000fdc <Button_Update+0xb8>)
 8000fba:	681b      	ldr	r3, [r3, #0]
 8000fbc:	1ac0      	subs	r0, r0, r3
 8000fbe:	28c8      	cmp	r0, #200	@ 0xc8
 8000fc0:	d9db      	bls.n	8000f7a <Button_Update+0x56>
		    wentHighTime = HAL_GetTick();
 8000fc2:	f001 fcc9 	bl	8002958 <HAL_GetTick>
 8000fc6:	4b0a      	ldr	r3, [pc, #40]	@ (8000ff0 <Button_Update+0xcc>)
 8000fc8:	6018      	str	r0, [r3, #0]
		    buttonReleased = 1; // we know the button was released
 8000fca:	4b06      	ldr	r3, [pc, #24]	@ (8000fe4 <Button_Update+0xc0>)
 8000fcc:	701c      	strb	r4, [r3, #0]
		    buttonPushedAlready = 0; //clear pushed flag so next press is detected
 8000fce:	2300      	movs	r3, #0
 8000fd0:	703b      	strb	r3, [r7, #0]
 8000fd2:	e7d2      	b.n	8000f7a <Button_Update+0x56>
 8000fd4:	200003b6 	.word	0x200003b6
 8000fd8:	48000800 	.word	0x48000800
 8000fdc:	200003b0 	.word	0x200003b0
 8000fe0:	200003b7 	.word	0x200003b7
 8000fe4:	200003b5 	.word	0x200003b5
 8000fe8:	20000000 	.word	0x20000000
 8000fec:	20000768 	.word	0x20000768
 8000ff0:	200003ac 	.word	0x200003ac
 8000ff4:	200003b4 	.word	0x200003b4

08000ff8 <Button_TimerCallback>:


void Button_TimerCallback(void)
{
 8000ff8:	b538      	push	{r3, r4, r5, lr}
	if (lockColor == 0){ // if the button hasn't been pushed then go ahead and change to the next color
 8000ffa:	4d29      	ldr	r5, [pc, #164]	@ (80010a0 <Button_TimerCallback+0xa8>)
 8000ffc:	4c29      	ldr	r4, [pc, #164]	@ (80010a4 <Button_TimerCallback+0xac>)
 8000ffe:	782a      	ldrb	r2, [r5, #0]
 8001000:	bb22      	cbnz	r2, 800104c <Button_TimerCallback+0x54>

		HAL_GPIO_WritePin(GPIOB, RED_Pin|GREEN_Pin|BLUE_Pin, GPIO_PIN_RESET); // turn off the previous led
 8001002:	4829      	ldr	r0, [pc, #164]	@ (80010a8 <Button_TimerCallback+0xb0>)
 8001004:	f44f 4160 	mov.w	r1, #57344	@ 0xe000
 8001008:	f001 fe64 	bl	8002cd4 <HAL_GPIO_WritePin>

	    if (color == 'R'){ // 'R' stands for red
 800100c:	7823      	ldrb	r3, [r4, #0]
 800100e:	2b52      	cmp	r3, #82	@ 0x52
 8001010:	d108      	bne.n	8001024 <Button_TimerCallback+0x2c>
	    	  HAL_GPIO_WritePin(GPIOB, RED_Pin, GPIO_PIN_SET); // turn on red led
 8001012:	4825      	ldr	r0, [pc, #148]	@ (80010a8 <Button_TimerCallback+0xb0>)
 8001014:	2201      	movs	r2, #1
 8001016:	f44f 5100 	mov.w	r1, #8192	@ 0x2000
 800101a:	f001 fe5b 	bl	8002cd4 <HAL_GPIO_WritePin>
	    	  color = 'G'; // next color is green
 800101e:	2347      	movs	r3, #71	@ 0x47
	    }

	    else if (color == 'G'){ // 'G' stands for green
	    	  HAL_GPIO_WritePin(GPIOB, GREEN_Pin, GPIO_PIN_SET); // turn on green led
	    	  color = 'B'; // next color is blue
 8001020:	7023      	strb	r3, [r4, #0]
	    	__HAL_TIM_SET_AUTORELOAD(&htim6, 65535); // set the timer period to something slower
	    	__HAL_TIM_SET_COUNTER(&htim6, __HAL_TIM_GET_AUTORELOAD(&htim6) - 1); // force the timer to overflow so we don't have to wait for the previous led blink to finish

	    }
	 }
}
 8001022:	bd38      	pop	{r3, r4, r5, pc}
	    else if (color == 'G'){ // 'G' stands for green
 8001024:	2b47      	cmp	r3, #71	@ 0x47
 8001026:	d107      	bne.n	8001038 <Button_TimerCallback+0x40>
	    	  HAL_GPIO_WritePin(GPIOB, GREEN_Pin, GPIO_PIN_SET); // turn on green led
 8001028:	481f      	ldr	r0, [pc, #124]	@ (80010a8 <Button_TimerCallback+0xb0>)
 800102a:	2201      	movs	r2, #1
 800102c:	f44f 4180 	mov.w	r1, #16384	@ 0x4000
 8001030:	f001 fe50 	bl	8002cd4 <HAL_GPIO_WritePin>
	    	  color = 'B'; // next color is blue
 8001034:	2342      	movs	r3, #66	@ 0x42
 8001036:	e7f3      	b.n	8001020 <Button_TimerCallback+0x28>
	    else if (color == 'B'){ // 'B' stands for blue
 8001038:	2b42      	cmp	r3, #66	@ 0x42
 800103a:	d1f2      	bne.n	8001022 <Button_TimerCallback+0x2a>
	    	  HAL_GPIO_WritePin(GPIOB, BLUE_Pin, GPIO_PIN_SET); // turn on blue led
 800103c:	481a      	ldr	r0, [pc, #104]	@ (80010a8 <Button_TimerCallback+0xb0>)
 800103e:	2201      	movs	r2, #1
 8001040:	f44f 4100 	mov.w	r1, #32768	@ 0x8000
 8001044:	f001 fe46 	bl	8002cd4 <HAL_GPIO_WritePin>
	    	  color = 'R'; // next color is blue
 8001048:	2352      	movs	r3, #82	@ 0x52
 800104a:	e7e9      	b.n	8001020 <Button_TimerCallback+0x28>
	    if (color == 'G'){
 800104c:	7823      	ldrb	r3, [r4, #0]
	    lockColor ++;
 800104e:	3201      	adds	r2, #1
	    if (color == 'G'){
 8001050:	2b47      	cmp	r3, #71	@ 0x47
	    lockColor ++;
 8001052:	702a      	strb	r2, [r5, #0]
	    if (color == 'G'){
 8001054:	d119      	bne.n	800108a <Button_TimerCallback+0x92>
	    HAL_GPIO_TogglePin(GPIOB,  RED_Pin);
 8001056:	f44f 5100 	mov.w	r1, #8192	@ 0x2000
	    HAL_GPIO_TogglePin(GPIOB,  BLUE_Pin);
 800105a:	4813      	ldr	r0, [pc, #76]	@ (80010a8 <Button_TimerCallback+0xb0>)
 800105c:	f001 fe3f 	bl	8002cde <HAL_GPIO_TogglePin>
	    if (lockColor == 20){ // toggle whatever led was pressed this many times
 8001060:	782b      	ldrb	r3, [r5, #0]
 8001062:	2b14      	cmp	r3, #20
 8001064:	d1dd      	bne.n	8001022 <Button_TimerCallback+0x2a>
	    	checkRedMode = 0; // exit checkRedMode
 8001066:	4a11      	ldr	r2, [pc, #68]	@ (80010ac <Button_TimerCallback+0xb4>)
	    	lockColor = 0; // reset lock color so that we can change to the next color
 8001068:	2300      	movs	r3, #0
	    	checkRedMode = 0; // exit checkRedMode
 800106a:	7013      	strb	r3, [r2, #0]
	    	buttonPushedAlready = 0; // reset this so that we can accept a new button input
 800106c:	4a10      	ldr	r2, [pc, #64]	@ (80010b0 <Button_TimerCallback+0xb8>)
	    	lockColor = 0; // reset lock color so that we can change to the next color
 800106e:	702b      	strb	r3, [r5, #0]
	    	buttonPushedAlready = 0; // reset this so that we can accept a new button input
 8001070:	7013      	strb	r3, [r2, #0]
	    	buttonReleased = 0;
 8001072:	4a10      	ldr	r2, [pc, #64]	@ (80010b4 <Button_TimerCallback+0xbc>)
 8001074:	7013      	strb	r3, [r2, #0]
	    	__HAL_TIM_SET_AUTORELOAD(&htim6, 65535); // set the timer period to something slower
 8001076:	4a10      	ldr	r2, [pc, #64]	@ (80010b8 <Button_TimerCallback+0xc0>)
 8001078:	6813      	ldr	r3, [r2, #0]
 800107a:	f64f 71ff 	movw	r1, #65535	@ 0xffff
 800107e:	62d9      	str	r1, [r3, #44]	@ 0x2c
 8001080:	60d1      	str	r1, [r2, #12]
	    	__HAL_TIM_SET_COUNTER(&htim6, __HAL_TIM_GET_AUTORELOAD(&htim6) - 1); // force the timer to overflow so we don't have to wait for the previous led blink to finish
 8001082:	6ada      	ldr	r2, [r3, #44]	@ 0x2c
 8001084:	3a01      	subs	r2, #1
 8001086:	625a      	str	r2, [r3, #36]	@ 0x24
}
 8001088:	e7cb      	b.n	8001022 <Button_TimerCallback+0x2a>
	    else if (color == 'B'){
 800108a:	2b42      	cmp	r3, #66	@ 0x42
 800108c:	d102      	bne.n	8001094 <Button_TimerCallback+0x9c>
	    HAL_GPIO_TogglePin(GPIOB,  GREEN_Pin);
 800108e:	f44f 4180 	mov.w	r1, #16384	@ 0x4000
 8001092:	e7e2      	b.n	800105a <Button_TimerCallback+0x62>
	    else if (color == 'R'){
 8001094:	2b52      	cmp	r3, #82	@ 0x52
 8001096:	d1e3      	bne.n	8001060 <Button_TimerCallback+0x68>
	    HAL_GPIO_TogglePin(GPIOB,  BLUE_Pin);
 8001098:	f44f 4100 	mov.w	r1, #32768	@ 0x8000
 800109c:	e7dd      	b.n	800105a <Button_TimerCallback+0x62>
 800109e:	bf00      	nop
 80010a0:	200003b7 	.word	0x200003b7
 80010a4:	20000000 	.word	0x20000000
 80010a8:	48000400 	.word	0x48000400
 80010ac:	200003b4 	.word	0x200003b4
 80010b0:	200003b6 	.word	0x200003b6
 80010b4:	200003b5 	.word	0x200003b5
 80010b8:	20000768 	.word	0x20000768

080010bc <Depth_Sensor_Init>:
    CDC_Transmit_FS(packet, PACKET_LEN);
}


HAL_StatusTypeDef Depth_Sensor_Init(I2C_HandleTypeDef *hi2c, SystemState *state)
{
 80010bc:	e92d 41f0 	stmdb	sp!, {r4, r5, r6, r7, r8, lr}
    s_hi2c  = hi2c;
    systemState = state;
 80010c0:	4b3e      	ldr	r3, [pc, #248]	@ (80011bc <Depth_Sensor_Init+0x100>)
    s_hi2c  = hi2c;
 80010c2:	4f3f      	ldr	r7, [pc, #252]	@ (80011c0 <Depth_Sensor_Init+0x104>)
{
 80010c4:	b088      	sub	sp, #32

    //Reset the sensor
    uint8_t cmd = MS5837_RESET;
    HAL_StatusTypeDef ret = HAL_I2C_Master_Transmit(s_hi2c,   MS5837_ADDR << 1, &cmd, 1, 5000);
 80010c6:	f241 3888 	movw	r8, #5000	@ 0x1388
    systemState = state;
 80010ca:	6019      	str	r1, [r3, #0]
    uint8_t cmd = MS5837_RESET;
 80010cc:	231e      	movs	r3, #30
    s_hi2c  = hi2c;
 80010ce:	6038      	str	r0, [r7, #0]
    uint8_t cmd = MS5837_RESET;
 80010d0:	f88d 300e 	strb.w	r3, [sp, #14]
    HAL_StatusTypeDef ret = HAL_I2C_Master_Transmit(s_hi2c,   MS5837_ADDR << 1, &cmd, 1, 5000);
 80010d4:	f8cd 8000 	str.w	r8, [sp]
 80010d8:	2301      	movs	r3, #1
 80010da:	f10d 020e 	add.w	r2, sp, #14
 80010de:	21ec      	movs	r1, #236	@ 0xec
 80010e0:	f001 ffe2 	bl	80030a8 <HAL_I2C_Master_Transmit>
 80010e4:	4604      	mov	r4, r0
    HAL_Delay(10); // datasheet: >= 2.8 ms reload time
 80010e6:	200a      	movs	r0, #10
 80010e8:	f001 fc3c 	bl	8002964 <HAL_Delay>

    if (ret != HAL_OK)
 80010ec:	2c00      	cmp	r4, #0
 80010ee:	d160      	bne.n	80011b2 <Depth_Sensor_Init+0xf6>
 80010f0:	4e34      	ldr	r6, [pc, #208]	@ (80011c4 <Depth_Sensor_Init+0x108>)
 80010f2:	24a0      	movs	r4, #160	@ 0xa0
 80010f4:	4635      	mov	r5, r6

    // Read PROM calibration coefficients (C0-C6)
    for (uint8_t i = 0; i < 7; i++)
    {
        uint8_t prom_cmd = MS5837_PROM_READ + (i * 2);
        ret = HAL_I2C_Master_Transmit(s_hi2c, MS5837_ADDR << 1, &prom_cmd, 1, 5000);
 80010f6:	f8cd 8000 	str.w	r8, [sp]
 80010fa:	6838      	ldr	r0, [r7, #0]
        uint8_t prom_cmd = MS5837_PROM_READ + (i * 2);
 80010fc:	f88d 400f 	strb.w	r4, [sp, #15]
        ret = HAL_I2C_Master_Transmit(s_hi2c, MS5837_ADDR << 1, &prom_cmd, 1, 5000);
 8001100:	2301      	movs	r3, #1
 8001102:	f10d 020f 	add.w	r2, sp, #15
 8001106:	21ec      	movs	r1, #236	@ 0xec
 8001108:	f001 ffce 	bl	80030a8 <HAL_I2C_Master_Transmit>

        if (ret != HAL_OK) {
 800110c:	2800      	cmp	r0, #0
 800110e:	d150      	bne.n	80011b2 <Depth_Sensor_Init+0xf6>
        	return HAL_ERROR;
        }

        uint8_t buf[2] = {0};
        ret = HAL_I2C_Master_Receive(s_hi2c, MS5837_ADDR << 1, buf, 2, 5000);
 8001110:	f8cd 8000 	str.w	r8, [sp]
        uint8_t buf[2] = {0};
 8001114:	f8ad 0010 	strh.w	r0, [sp, #16]
        ret = HAL_I2C_Master_Receive(s_hi2c, MS5837_ADDR << 1, buf, 2, 5000);
 8001118:	2302      	movs	r3, #2
 800111a:	6838      	ldr	r0, [r7, #0]
 800111c:	aa04      	add	r2, sp, #16
 800111e:	21ec      	movs	r1, #236	@ 0xec
 8001120:	f002 f870 	bl	8003204 <HAL_I2C_Master_Receive>
        if (ret != HAL_OK) {
 8001124:	2800      	cmp	r0, #0
 8001126:	d144      	bne.n	80011b2 <Depth_Sensor_Init+0xf6>
        	return HAL_ERROR;
        }

        coeff[i] = ((uint16_t)buf[0] << 8) | buf[1];
 8001128:	f8bd 3010 	ldrh.w	r3, [sp, #16]
    for (uint8_t i = 0; i < 7; i++)
 800112c:	3402      	adds	r4, #2
 800112e:	b2e4      	uxtb	r4, r4
        coeff[i] = ((uint16_t)buf[0] << 8) | buf[1];
 8001130:	ba5b      	rev16	r3, r3
    for (uint8_t i = 0; i < 7; i++)
 8001132:	2cae      	cmp	r4, #174	@ 0xae
        coeff[i] = ((uint16_t)buf[0] << 8) | buf[1];
 8001134:	f826 3b02 	strh.w	r3, [r6], #2
    for (uint8_t i = 0; i < 7; i++)
 8001138:	d1dd      	bne.n	80010f6 <Depth_Sensor_Init+0x3a>
    }

    // CRC check
    uint8_t crc_read       = coeff[0] >> 12;   // upper nibble of C0
 800113a:	882c      	ldrh	r4, [r5, #0]
 800113c:	ab04      	add	r3, sp, #16
 800113e:	0b24      	lsrs	r4, r4, #12
        crc_buf[i] = (i < 7) ? coeff[i] : 0x0000;
 8001140:	2807      	cmp	r0, #7
 8001142:	bf18      	it	ne
 8001144:	f835 2010 	ldrhne.w	r2, [r5, r0, lsl #1]
    for (uint8_t i = 0; i < 8; i++)
 8001148:	f100 0001 	add.w	r0, r0, #1
        crc_buf[i] = (i < 7) ? coeff[i] : 0x0000;
 800114c:	bf08      	it	eq
 800114e:	2200      	moveq	r2, #0
    for (uint8_t i = 0; i < 8; i++)
 8001150:	2808      	cmp	r0, #8
        crc_buf[i] = (i < 7) ? coeff[i] : 0x0000;
 8001152:	f823 2b02 	strh.w	r2, [r3], #2
    for (uint8_t i = 0; i < 8; i++)
 8001156:	d1f3      	bne.n	8001140 <Depth_Sensor_Init+0x84>
    crc_buf[0] = crc_buf[0] & 0x0FFF; //clear CRC nibble
 8001158:	f8bd 3010 	ldrh.w	r3, [sp, #16]
 800115c:	2200      	movs	r2, #0
 800115e:	f3c3 030b 	ubfx	r3, r3, #0, #12
 8001162:	f8ad 3010 	strh.w	r3, [sp, #16]
	uint16_t n_rem   = 0x00;
 8001166:	4613      	mov	r3, r2
            n_rem ^= (crc_buf[i >> 1] & 0x00FF);
 8001168:	f002 01fe 	and.w	r1, r2, #254	@ 0xfe
 800116c:	3120      	adds	r1, #32
 800116e:	4469      	add	r1, sp
        if (i % 2 == 1)
 8001170:	07d0      	lsls	r0, r2, #31
            n_rem ^= (crc_buf[i >> 1] & 0x00FF);
 8001172:	f831 1c10 	ldrh.w	r1, [r1, #-16]
 8001176:	bf46      	itte	mi
 8001178:	b2c9      	uxtbmi	r1, r1
 800117a:	404b      	eormi	r3, r1
            n_rem ^= (crc_buf[i >> 1] >> 8);
 800117c:	ea83 2311 	eorpl.w	r3, r3, r1, lsr #8
	uint16_t n_rem   = 0x00;
 8001180:	2008      	movs	r0, #8
            if (n_rem & 0x8000)
 8001182:	b219      	sxth	r1, r3
 8001184:	2900      	cmp	r1, #0
                n_rem = (n_rem << 1) ^ 0x3000;
 8001186:	bfba      	itte	lt
 8001188:	0049      	lsllt	r1, r1, #1
 800118a:	f481 5140 	eorlt.w	r1, r1, #12288	@ 0x3000
                n_rem <<= 1;
 800118e:	005b      	lslge	r3, r3, #1
        for (uint8_t n_bit = 8; n_bit > 0; n_bit--)
 8001190:	f100 30ff 	add.w	r0, r0, #4294967295	@ 0xffffffff
                n_rem = (n_rem << 1) ^ 0x3000;
 8001194:	bfb4      	ite	lt
 8001196:	b28b      	uxthlt	r3, r1
                n_rem <<= 1;
 8001198:	b29b      	uxthge	r3, r3
        for (uint8_t n_bit = 8; n_bit > 0; n_bit--)
 800119a:	f010 00ff 	ands.w	r0, r0, #255	@ 0xff
 800119e:	d1f0      	bne.n	8001182 <Depth_Sensor_Init+0xc6>
    for (uint8_t i = 0; i < 16; i++)
 80011a0:	3201      	adds	r2, #1
 80011a2:	2a10      	cmp	r2, #16
 80011a4:	d1e0      	bne.n	8001168 <Depth_Sensor_Init+0xac>
    uint8_t crc_calculated = crc4(coeff);

    if (crc_calculated != crc_read)
 80011a6:	ebb4 3f13 	cmp.w	r4, r3, lsr #12
 80011aa:	d102      	bne.n	80011b2 <Depth_Sensor_Init+0xf6>
    {
        return HAL_ERROR;
    }

    //prime the state machine
    sensor_state = 0;
 80011ac:	4b06      	ldr	r3, [pc, #24]	@ (80011c8 <Depth_Sensor_Init+0x10c>)
 80011ae:	7018      	strb	r0, [r3, #0]
    return HAL_OK;
 80011b0:	e000      	b.n	80011b4 <Depth_Sensor_Init+0xf8>
        return HAL_ERROR;
 80011b2:	2001      	movs	r0, #1
}
 80011b4:	b008      	add	sp, #32
 80011b6:	e8bd 81f0 	ldmia.w	sp!, {r4, r5, r6, r7, r8, pc}
 80011ba:	bf00      	nop
 80011bc:	200003d8 	.word	0x200003d8
 80011c0:	200003dc 	.word	0x200003dc
 80011c4:	200003ca 	.word	0x200003ca
 80011c8:	200003c8 	.word	0x200003c8

080011cc <Depth_Sensor_Update>:



void Depth_Sensor_Update(void){
 80011cc:	e92d 47f0 	stmdb	sp!, {r4, r5, r6, r7, r8, r9, sl, lr}
	uint32_t now = HAL_GetTick();
	uint8_t cmd;

	switch(sensor_state){
 80011d0:	4c96      	ldr	r4, [pc, #600]	@ (800142c <Depth_Sensor_Update+0x260>)
void Depth_Sensor_Update(void){
 80011d2:	b086      	sub	sp, #24
	uint32_t now = HAL_GetTick();
 80011d4:	f001 fbc0 	bl	8002958 <HAL_GetTick>
	switch(sensor_state){
 80011d8:	7826      	ldrb	r6, [r4, #0]
 80011da:	2e01      	cmp	r6, #1
	uint32_t now = HAL_GetTick();
 80011dc:	4605      	mov	r5, r0
	switch(sensor_state){
 80011de:	d018      	beq.n	8001212 <Depth_Sensor_Update+0x46>
 80011e0:	2e02      	cmp	r6, #2
 80011e2:	d052      	beq.n	800128a <Depth_Sensor_Update+0xbe>
 80011e4:	2e00      	cmp	r6, #0
 80011e6:	f040 8119 	bne.w	800141c <Depth_Sensor_Update+0x250>

	//state 0: kick off D1 pressure conversion
	case 0:
		cmd = MS5837_CONVERT_D1_8192;
 80011ea:	234a      	movs	r3, #74	@ 0x4a
 80011ec:	f88d 300b 	strb.w	r3, [sp, #11]
		HAL_I2C_Master_Transmit(s_hi2c, MS5837_ADDR << 1, &cmd, 1, 100);
 80011f0:	488f      	ldr	r0, [pc, #572]	@ (8001430 <Depth_Sensor_Update+0x264>)
 80011f2:	2364      	movs	r3, #100	@ 0x64
 80011f4:	9300      	str	r3, [sp, #0]
 80011f6:	6800      	ldr	r0, [r0, #0]
 80011f8:	2301      	movs	r3, #1
 80011fa:	f10d 020b 	add.w	r2, sp, #11
 80011fe:	21ec      	movs	r1, #236	@ 0xec
 8001200:	f001 ff52 	bl	80030a8 <HAL_I2C_Master_Transmit>
		tick = now;
 8001204:	4b8b      	ldr	r3, [pc, #556]	@ (8001434 <Depth_Sensor_Update+0x268>)
 8001206:	601d      	str	r5, [r3, #0]
        sensor_state = 1;
 8001208:	2301      	movs	r3, #1
            sensor_state = 0;
        }
		break;

	default:
		sensor_state = 0;
 800120a:	7023      	strb	r3, [r4, #0]
		break;
	}

}
 800120c:	b006      	add	sp, #24
 800120e:	e8bd 87f0 	ldmia.w	sp!, {r4, r5, r6, r7, r8, r9, sl, pc}
        if ((now - tick) >= CONVERSION_TIME_MS)
 8001212:	f8df 9220 	ldr.w	r9, [pc, #544]	@ 8001434 <Depth_Sensor_Update+0x268>
 8001216:	f8d9 3000 	ldr.w	r3, [r9]
 800121a:	1ac3      	subs	r3, r0, r3
 800121c:	2b11      	cmp	r3, #17
 800121e:	d9f5      	bls.n	800120c <Depth_Sensor_Update+0x40>
            HAL_I2C_Master_Transmit(s_hi2c, MS5837_ADDR << 1, &cmd, 1, 100);
 8001220:	4f83      	ldr	r7, [pc, #524]	@ (8001430 <Depth_Sensor_Update+0x264>)
            HAL_I2C_Master_Receive(s_hi2c, MS5837_ADDR << 1, data, 3, 100);
 8001222:	f8df a218 	ldr.w	sl, [pc, #536]	@ 800143c <Depth_Sensor_Update+0x270>
            HAL_I2C_Master_Transmit(s_hi2c, MS5837_ADDR << 1, &cmd, 1, 100);
 8001226:	f04f 0864 	mov.w	r8, #100	@ 0x64
            cmd = MS5837_ADC_READ;
 800122a:	2300      	movs	r3, #0
            HAL_I2C_Master_Transmit(s_hi2c, MS5837_ADDR << 1, &cmd, 1, 100);
 800122c:	f8cd 8000 	str.w	r8, [sp]
            cmd = MS5837_ADC_READ;
 8001230:	f88d 300b 	strb.w	r3, [sp, #11]
            HAL_I2C_Master_Transmit(s_hi2c, MS5837_ADDR << 1, &cmd, 1, 100);
 8001234:	f10d 020b 	add.w	r2, sp, #11
 8001238:	4633      	mov	r3, r6
 800123a:	21ec      	movs	r1, #236	@ 0xec
 800123c:	6838      	ldr	r0, [r7, #0]
 800123e:	f001 ff33 	bl	80030a8 <HAL_I2C_Master_Transmit>
            HAL_I2C_Master_Receive(s_hi2c, MS5837_ADDR << 1, data, 3, 100);
 8001242:	f8cd 8000 	str.w	r8, [sp]
 8001246:	2303      	movs	r3, #3
 8001248:	4652      	mov	r2, sl
 800124a:	21ec      	movs	r1, #236	@ 0xec
 800124c:	6838      	ldr	r0, [r7, #0]
 800124e:	f001 ffd9 	bl	8003204 <HAL_I2C_Master_Receive>
            D1 = ((uint32_t)data[0] << 16) | ((uint32_t)data[1] <<  8) |  (uint32_t)data[2];
 8001252:	f89a 3001 	ldrb.w	r3, [sl, #1]
 8001256:	f89a 2000 	ldrb.w	r2, [sl]
 800125a:	021b      	lsls	r3, r3, #8
 800125c:	ea43 4302 	orr.w	r3, r3, r2, lsl #16
 8001260:	f89a 2002 	ldrb.w	r2, [sl, #2]
 8001264:	4313      	orrs	r3, r2
 8001266:	4a74      	ldr	r2, [pc, #464]	@ (8001438 <Depth_Sensor_Update+0x26c>)
 8001268:	6013      	str	r3, [r2, #0]
            cmd = MS5837_CONVERT_D2_8192;
 800126a:	235a      	movs	r3, #90	@ 0x5a
            HAL_I2C_Master_Transmit(s_hi2c, MS5837_ADDR << 1, &cmd, 1, 100);
 800126c:	f8cd 8000 	str.w	r8, [sp]
            cmd = MS5837_CONVERT_D2_8192;
 8001270:	f88d 300b 	strb.w	r3, [sp, #11]
            HAL_I2C_Master_Transmit(s_hi2c, MS5837_ADDR << 1, &cmd, 1, 100);
 8001274:	6838      	ldr	r0, [r7, #0]
 8001276:	4633      	mov	r3, r6
 8001278:	f10d 020b 	add.w	r2, sp, #11
 800127c:	21ec      	movs	r1, #236	@ 0xec
 800127e:	f001 ff13 	bl	80030a8 <HAL_I2C_Master_Transmit>
            tick = now;
 8001282:	f8c9 5000 	str.w	r5, [r9]
            sensor_state = 2;
 8001286:	2302      	movs	r3, #2
 8001288:	e7bf      	b.n	800120a <Depth_Sensor_Update+0x3e>
        if ((now - tick) >= CONVERSION_TIME_MS)
 800128a:	4b6a      	ldr	r3, [pc, #424]	@ (8001434 <Depth_Sensor_Update+0x268>)
 800128c:	681b      	ldr	r3, [r3, #0]
 800128e:	1ac5      	subs	r5, r0, r3
 8001290:	2d11      	cmp	r5, #17
 8001292:	d9bb      	bls.n	800120c <Depth_Sensor_Update+0x40>
            HAL_I2C_Master_Transmit(s_hi2c, MS5837_ADDR << 1, &cmd, 1, 100);
 8001294:	4e66      	ldr	r6, [pc, #408]	@ (8001430 <Depth_Sensor_Update+0x264>)
            HAL_I2C_Master_Receive(s_hi2c, MS5837_ADDR << 1, data, 3, 100);
 8001296:	4d69      	ldr	r5, [pc, #420]	@ (800143c <Depth_Sensor_Update+0x270>)
            HAL_I2C_Master_Transmit(s_hi2c, MS5837_ADDR << 1, &cmd, 1, 100);
 8001298:	2764      	movs	r7, #100	@ 0x64
 800129a:	9700      	str	r7, [sp, #0]
            cmd = MS5837_ADC_READ;
 800129c:	2300      	movs	r3, #0
            HAL_I2C_Master_Transmit(s_hi2c, MS5837_ADDR << 1, &cmd, 1, 100);
 800129e:	6830      	ldr	r0, [r6, #0]
            cmd = MS5837_ADC_READ;
 80012a0:	f88d 300b 	strb.w	r3, [sp, #11]
            HAL_I2C_Master_Transmit(s_hi2c, MS5837_ADDR << 1, &cmd, 1, 100);
 80012a4:	f10d 020b 	add.w	r2, sp, #11
 80012a8:	2301      	movs	r3, #1
 80012aa:	21ec      	movs	r1, #236	@ 0xec
 80012ac:	f001 fefc 	bl	80030a8 <HAL_I2C_Master_Transmit>
            HAL_I2C_Master_Receive(s_hi2c, MS5837_ADDR << 1, data, 3, 100);
 80012b0:	9700      	str	r7, [sp, #0]
 80012b2:	462a      	mov	r2, r5
 80012b4:	6830      	ldr	r0, [r6, #0]
	int32_t dT = (int32_t)D2 - (int32_t)((uint32_t)coeff[5] * 256L);	//difference between actual and reference temperature
 80012b6:	4f62      	ldr	r7, [pc, #392]	@ (8001440 <Depth_Sensor_Update+0x274>)
            HAL_I2C_Master_Receive(s_hi2c, MS5837_ADDR << 1, data, 3, 100);
 80012b8:	2303      	movs	r3, #3
 80012ba:	21ec      	movs	r1, #236	@ 0xec
 80012bc:	f001 ffa2 	bl	8003204 <HAL_I2C_Master_Receive>
            D2 = ((uint32_t)data[0] << 16) | ((uint32_t)data[1] <<  8) | (uint32_t)data[2];
 80012c0:	786b      	ldrb	r3, [r5, #1]
 80012c2:	782a      	ldrb	r2, [r5, #0]
 80012c4:	021b      	lsls	r3, r3, #8
 80012c6:	ea43 4302 	orr.w	r3, r3, r2, lsl #16
 80012ca:	78aa      	ldrb	r2, [r5, #2]
	int32_t TEMP = 2000L + (((int64_t)(dT) * coeff[6]) / 8388608LL);
 80012cc:	89bd      	ldrh	r5, [r7, #12]
            D2 = ((uint32_t)data[0] << 16) | ((uint32_t)data[1] <<  8) | (uint32_t)data[2];
 80012ce:	431a      	orrs	r2, r3
 80012d0:	4b5c      	ldr	r3, [pc, #368]	@ (8001444 <Depth_Sensor_Update+0x278>)
 80012d2:	601a      	str	r2, [r3, #0]
	int32_t dT = (int32_t)D2 - (int32_t)((uint32_t)coeff[5] * 256L);	//difference between actual and reference temperature
 80012d4:	897b      	ldrh	r3, [r7, #10]
 80012d6:	eba2 2203 	sub.w	r2, r2, r3, lsl #8
	int32_t TEMP = 2000L + (((int64_t)(dT) * coeff[6]) / 8388608LL);
 80012da:	fb85 5602 	smull	r5, r6, r5, r2
 80012de:	2e00      	cmp	r6, #0
 80012e0:	da03      	bge.n	80012ea <Depth_Sensor_Update+0x11e>
 80012e2:	4b59      	ldr	r3, [pc, #356]	@ (8001448 <Depth_Sensor_Update+0x27c>)
 80012e4:	18ed      	adds	r5, r5, r3
 80012e6:	f146 0600 	adc.w	r6, r6, #0
	int64_t OFF = ((int64_t)(coeff[2]) * 131072L) + (((int64_t)(coeff[4]) * dT) / 64L); //pressure offset at actual temperature
 80012ea:	8939      	ldrh	r1, [r7, #8]
 80012ec:	fb81 1302 	smull	r1, r3, r1, r2
	int32_t TEMP = 2000L + (((int64_t)(dT) * coeff[6]) / 8388608LL);
 80012f0:	0ded      	lsrs	r5, r5, #23
	int64_t OFF = ((int64_t)(coeff[2]) * 131072L) + (((int64_t)(coeff[4]) * dT) / 64L); //pressure offset at actual temperature
 80012f2:	2b00      	cmp	r3, #0
	int32_t TEMP = 2000L + (((int64_t)(dT) * coeff[6]) / 8388608LL);
 80012f4:	ea45 2546 	orr.w	r5, r5, r6, lsl #9
 80012f8:	ea4f 56e6 	mov.w	r6, r6, asr #23
	int64_t OFF = ((int64_t)(coeff[2]) * 131072L) + (((int64_t)(coeff[4]) * dT) / 64L); //pressure offset at actual temperature
 80012fc:	da02      	bge.n	8001304 <Depth_Sensor_Update+0x138>
 80012fe:	313f      	adds	r1, #63	@ 0x3f
 8001300:	f143 0300 	adc.w	r3, r3, #0
 8001304:	f8b7 c004 	ldrh.w	ip, [r7, #4]
 8001308:	0989      	lsrs	r1, r1, #6
 800130a:	ea41 6183 	orr.w	r1, r1, r3, lsl #26
 800130e:	ea4f 30dc 	mov.w	r0, ip, lsr #15
 8001312:	ea4f 4c4c 	mov.w	ip, ip, lsl #17
 8001316:	eb11 010c 	adds.w	r1, r1, ip
 800131a:	eb40 10a3 	adc.w	r0, r0, r3, asr #6
	int64_t SENS = (((int64_t)coeff[1]) * 65536L) + (((int64_t)(coeff[3]) * dT) / 128L); //pressure sensitivity at actual temp
 800131e:	88fb      	ldrh	r3, [r7, #6]
 8001320:	fb83 3202 	smull	r3, r2, r3, r2
 8001324:	2a00      	cmp	r2, #0
 8001326:	da02      	bge.n	800132e <Depth_Sensor_Update+0x162>
 8001328:	337f      	adds	r3, #127	@ 0x7f
 800132a:	f142 0200 	adc.w	r2, r2, #0
 800132e:	887f      	ldrh	r7, [r7, #2]
 8001330:	09db      	lsrs	r3, r3, #7
 8001332:	ea43 6342 	orr.w	r3, r3, r2, lsl #25
 8001336:	043f      	lsls	r7, r7, #16
 8001338:	19db      	adds	r3, r3, r7
 800133a:	ea4f 12e2 	mov.w	r2, r2, asr #7
	int32_t TEMP = 2000L + (((int64_t)(dT) * coeff[6]) / 8388608LL);
 800133e:	f505 67fa 	add.w	r7, r5, #2000	@ 0x7d0
	int64_t SENS = (((int64_t)coeff[1]) * 65536L) + (((int64_t)(coeff[3]) * dT) / 128L); //pressure sensitivity at actual temp
 8001342:	f142 0200 	adc.w	r2, r2, #0
	if ((TEMP / 100) < 20)
 8001346:	f5b7 6ffa 	cmp.w	r7, #2000	@ 0x7d0
 800134a:	da69      	bge.n	8001420 <Depth_Sensor_Update+0x254>
	    OFFi  = (31LL * (TEMP - 2000LL) * (TEMP - 2000LL)) / 8LL;
 800134c:	436e      	muls	r6, r5
 800134e:	fba5 e505 	umull	lr, r5, r5, r5
 8001352:	eb05 0546 	add.w	r5, r5, r6, lsl #1
 8001356:	261f      	movs	r6, #31
 8001358:	fbae c706 	umull	ip, r7, lr, r6
	    SENSi = (63LL * (TEMP - 2000LL) * (TEMP - 2000LL)) / 32LL;
 800135c:	f04f 083f 	mov.w	r8, #63	@ 0x3f
	    OFFi  = (31LL * (TEMP - 2000LL) * (TEMP - 2000LL)) / 8LL;
 8001360:	fb06 7705 	mla	r7, r6, r5, r7
	    SENSi = (63LL * (TEMP - 2000LL) * (TEMP - 2000LL)) / 32LL;
 8001364:	fbae e608 	umull	lr, r6, lr, r8
 8001368:	fb08 6605 	mla	r6, r8, r5, r6
	    OFFi  = (31LL * (TEMP - 2000LL) * (TEMP - 2000LL)) / 8LL;
 800136c:	ea4f 0cdc 	mov.w	ip, ip, lsr #3
	    SENSi = (63LL * (TEMP - 2000LL) * (TEMP - 2000LL)) / 32LL;
 8001370:	ea4f 155e 	mov.w	r5, lr, lsr #5
	    OFFi  = (31LL * (TEMP - 2000LL) * (TEMP - 2000LL)) / 8LL;
 8001374:	ea4c 7c47 	orr.w	ip, ip, r7, lsl #29
	    SENSi = (63LL * (TEMP - 2000LL) * (TEMP - 2000LL)) / 32LL;
 8001378:	ea45 65c6 	orr.w	r5, r5, r6, lsl #27
	    OFFi  = (31LL * (TEMP - 2000LL) * (TEMP - 2000LL)) / 8LL;
 800137c:	10ff      	asrs	r7, r7, #3
	    SENSi = (63LL * (TEMP - 2000LL) * (TEMP - 2000LL)) / 32LL;
 800137e:	1176      	asrs	r6, r6, #5
	int64_t SENS2 = SENS - SENSi;
 8001380:	1b5b      	subs	r3, r3, r5
 8001382:	eb62 0506 	sbc.w	r5, r2, r6
	int32_t P2 = (int32_t)(((int64_t)D1 * SENS2 / 2097152LL - OFF2) / 32768LL) / 100;
 8001386:	4a2c      	ldr	r2, [pc, #176]	@ (8001438 <Depth_Sensor_Update+0x26c>)
 8001388:	6816      	ldr	r6, [r2, #0]
 800138a:	fba3 3206 	umull	r3, r2, r3, r6
 800138e:	fb06 2205 	mla	r2, r6, r5, r2
 8001392:	2a00      	cmp	r2, #0
 8001394:	da03      	bge.n	800139e <Depth_Sensor_Update+0x1d2>
 8001396:	4d2d      	ldr	r5, [pc, #180]	@ (800144c <Depth_Sensor_Update+0x280>)
 8001398:	195b      	adds	r3, r3, r5
 800139a:	f142 0200 	adc.w	r2, r2, #0
 800139e:	0d5b      	lsrs	r3, r3, #21
 80013a0:	ea43 23c2 	orr.w	r3, r3, r2, lsl #11
	int64_t OFF2  = OFF  - OFFi;
 80013a4:	ebb1 010c 	subs.w	r1, r1, ip
 80013a8:	eb60 0007 	sbc.w	r0, r0, r7
	int32_t P2 = (int32_t)(((int64_t)D1 * SENS2 / 2097152LL - OFF2) / 32768LL) / 100;
 80013ac:	1552      	asrs	r2, r2, #21
 80013ae:	1a5b      	subs	r3, r3, r1
 80013b0:	eb62 0200 	sbc.w	r2, r2, r0
 80013b4:	2a00      	cmp	r2, #0
 80013b6:	da04      	bge.n	80013c2 <Depth_Sensor_Update+0x1f6>
 80013b8:	f647 71ff 	movw	r1, #32767	@ 0x7fff
 80013bc:	185b      	adds	r3, r3, r1
 80013be:	f142 0200 	adc.w	r2, r2, #0
 80013c2:	0bdb      	lsrs	r3, r3, #15
 80013c4:	ea43 4342 	orr.w	r3, r3, r2, lsl #17
 80013c8:	2264      	movs	r2, #100	@ 0x64
 80013ca:	fb93 f3f2 	sdiv	r3, r3, r2
	float pressure_pa    = (float)P2 * 100.0f;
 80013ce:	ee07 3a90 	vmov	s15, r3
	float gauge_pressure = pressure_pa - ATMOSPHERIC_PA;  // subtract 101300 Pa
 80013d2:	eddf 6a1f 	vldr	s13, [pc, #124]	@ 8001450 <Depth_Sensor_Update+0x284>
 80013d6:	ed9f 7a1f 	vldr	s14, [pc, #124]	@ 8001454 <Depth_Sensor_Update+0x288>
	systemState->depth       = gauge_pressure / (SEAWATER_DENSITY * GRAVITY);
 80013da:	4b1f      	ldr	r3, [pc, #124]	@ (8001458 <Depth_Sensor_Update+0x28c>)
	float pressure_pa    = (float)P2 * 100.0f;
 80013dc:	eef8 7ae7 	vcvt.f32.s32	s15, s15
	systemState->depth       = gauge_pressure / (SEAWATER_DENSITY * GRAVITY);
 80013e0:	681b      	ldr	r3, [r3, #0]
	float gauge_pressure = pressure_pa - ATMOSPHERIC_PA;  // subtract 101300 Pa
 80013e2:	eea7 7aa6 	vfma.f32	s14, s15, s13
    packet[0] = 0xAA;
 80013e6:	22aa      	movs	r2, #170	@ 0xaa
 80013e8:	f88d 200c 	strb.w	r2, [sp, #12]
	systemState->depth       = gauge_pressure / (SEAWATER_DENSITY * GRAVITY);
 80013ec:	eddf 6a1b 	vldr	s13, [pc, #108]	@ 800145c <Depth_Sensor_Update+0x290>
    packet[1] = systemState->greenPressed;
 80013f0:	f893 2048 	ldrb.w	r2, [r3, #72]	@ 0x48
 80013f4:	f88d 200d 	strb.w	r2, [sp, #13]
	systemState->depth       = gauge_pressure / (SEAWATER_DENSITY * GRAVITY);
 80013f8:	eec7 7a26 	vdiv.f32	s15, s14, s13
    CDC_Transmit_FS(packet, PACKET_LEN);
 80013fc:	210a      	movs	r1, #10
 80013fe:	a803      	add	r0, sp, #12
	systemState->depth       = gauge_pressure / (SEAWATER_DENSITY * GRAVITY);
 8001400:	edc3 7a11 	vstr	s15, [r3, #68]	@ 0x44
    packet[2] = systemState->extKillState;
 8001404:	8f1b      	ldrh	r3, [r3, #56]	@ 0x38
    memcpy(&packet[4], &systemState->depth, sizeof(float));
 8001406:	edcd 7a04 	vstr	s15, [sp, #16]
    packet[2] = systemState->extKillState;
 800140a:	ba5b      	rev16	r3, r3
 800140c:	f8ad 300e 	strh.w	r3, [sp, #14]
    packet[8] = '\r';
 8001410:	f640 230d 	movw	r3, #2573	@ 0xa0d
 8001414:	f8ad 3014 	strh.w	r3, [sp, #20]
    CDC_Transmit_FS(packet, PACKET_LEN);
 8001418:	f005 ffd0 	bl	80073bc <CDC_Transmit_FS>
		sensor_state = 0;
 800141c:	2300      	movs	r3, #0
 800141e:	e6f4      	b.n	800120a <Depth_Sensor_Update+0x3e>
	int64_t SENSi = 0;
 8001420:	2500      	movs	r5, #0
 8001422:	462e      	mov	r6, r5
	int64_t OFFi  = 0;
 8001424:	46ac      	mov	ip, r5
 8001426:	462f      	mov	r7, r5
 8001428:	e7aa      	b.n	8001380 <Depth_Sensor_Update+0x1b4>
 800142a:	bf00      	nop
 800142c:	200003c8 	.word	0x200003c8
 8001430:	200003dc 	.word	0x200003dc
 8001434:	200003c4 	.word	0x200003c4
 8001438:	200003bc 	.word	0x200003bc
 800143c:	200003c0 	.word	0x200003c0
 8001440:	200003ca 	.word	0x200003ca
 8001444:	200003b8 	.word	0x200003b8
 8001448:	007fffff 	.word	0x007fffff
 800144c:	001fffff 	.word	0x001fffff
 8001450:	42c80000 	.word	0x42c80000
 8001454:	c7c5da00 	.word	0xc7c5da00
 8001458:	200003d8 	.word	0x200003d8
 800145c:	461dac2c 	.word	0x461dac2c

08001460 <Dropper_Start_Arming>:
static void Set_Dropper_Neutral(void){
	__HAL_TIM_SET_COMPARE(&htim8, TIM_CHANNEL_1, DROPPER_NEUTRAL);
}

void Dropper_Start_Arming(void)
{
 8001460:	b508      	push	{r3, lr}
	__HAL_TIM_SET_COMPARE(&htim8, TIM_CHANNEL_1, DROPPER_NEUTRAL);
 8001462:	4b06      	ldr	r3, [pc, #24]	@ (800147c <Dropper_Start_Arming+0x1c>)
 8001464:	681b      	ldr	r3, [r3, #0]
 8001466:	f648 429f 	movw	r2, #35999	@ 0x8c9f
 800146a:	635a      	str	r2, [r3, #52]	@ 0x34
    Set_Dropper_Neutral();
    dropperState = DROPPER_ARMING;
 800146c:	4b04      	ldr	r3, [pc, #16]	@ (8001480 <Dropper_Start_Arming+0x20>)
 800146e:	2201      	movs	r2, #1
 8001470:	701a      	strb	r2, [r3, #0]
    armingStartTime = HAL_GetTick();
 8001472:	f001 fa71 	bl	8002958 <HAL_GetTick>
 8001476:	4b03      	ldr	r3, [pc, #12]	@ (8001484 <Dropper_Start_Arming+0x24>)
 8001478:	6018      	str	r0, [r3, #0]
}
 800147a:	bd08      	pop	{r3, pc}
 800147c:	200006d0 	.word	0x200006d0
 8001480:	200003e8 	.word	0x200003e8
 8001484:	200003e4 	.word	0x200003e4

08001488 <Dropper_Init>:

void Dropper_Init(SystemState *state){
 8001488:	b508      	push	{r3, lr}

	systemState = state;
 800148a:	4b05      	ldr	r3, [pc, #20]	@ (80014a0 <Dropper_Init+0x18>)
	HAL_TIM_PWM_Start(&htim8, TIM_CHANNEL_1);
 800148c:	2100      	movs	r1, #0
	systemState = state;
 800148e:	6018      	str	r0, [r3, #0]
	HAL_TIM_PWM_Start(&htim8, TIM_CHANNEL_1);
 8001490:	4804      	ldr	r0, [pc, #16]	@ (80014a4 <Dropper_Init+0x1c>)
 8001492:	f003 ffb3 	bl	80053fc <HAL_TIM_PWM_Start>
	Dropper_Start_Arming();
}
 8001496:	e8bd 4008 	ldmia.w	sp!, {r3, lr}
	Dropper_Start_Arming();
 800149a:	f7ff bfe1 	b.w	8001460 <Dropper_Start_Arming>
 800149e:	bf00      	nop
 80014a0:	200003e0 	.word	0x200003e0
 80014a4:	200006d0 	.word	0x200006d0

080014a8 <Dropper_Update>:

void Dropper_Update(void){
 80014a8:	b510      	push	{r4, lr}
	switch(dropperState){
 80014aa:	4c11      	ldr	r4, [pc, #68]	@ (80014f0 <Dropper_Update+0x48>)
 80014ac:	7823      	ldrb	r3, [r4, #0]
 80014ae:	2b01      	cmp	r3, #1
 80014b0:	d003      	beq.n	80014ba <Dropper_Update+0x12>
 80014b2:	2b02      	cmp	r3, #2
 80014b4:	d017      	beq.n	80014e6 <Dropper_Update+0x3e>
 80014b6:	b163      	cbz	r3, 80014d2 <Dropper_Update+0x2a>

		default:
			break;

	}
}
 80014b8:	bd10      	pop	{r4, pc}
			if((HAL_GetTick() - armingStartTime) >= DROPPER_ARM_TIME_MS)
 80014ba:	f001 fa4d 	bl	8002958 <HAL_GetTick>
 80014be:	4b0d      	ldr	r3, [pc, #52]	@ (80014f4 <Dropper_Update+0x4c>)
 80014c0:	681b      	ldr	r3, [r3, #0]
 80014c2:	1ac0      	subs	r0, r0, r3
 80014c4:	f640 33b7 	movw	r3, #2999	@ 0xbb7
 80014c8:	4298      	cmp	r0, r3
 80014ca:	d9f5      	bls.n	80014b8 <Dropper_Update+0x10>
				dropperState = DROPPER_READY;
 80014cc:	2300      	movs	r3, #0
 80014ce:	7023      	strb	r3, [r4, #0]
 80014d0:	e7f2      	b.n	80014b8 <Dropper_Update+0x10>
			if (systemState->dropper){
 80014d2:	4a09      	ldr	r2, [pc, #36]	@ (80014f8 <Dropper_Update+0x50>)
				 __HAL_TIM_SET_COMPARE(&htim8, TIM_CHANNEL_1, DROPPER_OPEN);
 80014d4:	4b09      	ldr	r3, [pc, #36]	@ (80014fc <Dropper_Update+0x54>)
			if (systemState->dropper){
 80014d6:	6812      	ldr	r2, [r2, #0]
				 __HAL_TIM_SET_COMPARE(&htim8, TIM_CHANNEL_1, DROPPER_OPEN);
 80014d8:	681b      	ldr	r3, [r3, #0]
			if (systemState->dropper){
 80014da:	6b12      	ldr	r2, [r2, #48]	@ 0x30
 80014dc:	b12a      	cbz	r2, 80014ea <Dropper_Update+0x42>
				 __HAL_TIM_SET_COMPARE(&htim8, TIM_CHANNEL_1, DROPPER_OPEN);
 80014de:	f246 7220 	movw	r2, #26400	@ 0x6720
	__HAL_TIM_SET_COMPARE(&htim8, TIM_CHANNEL_1, DROPPER_NEUTRAL);
 80014e2:	635a      	str	r2, [r3, #52]	@ 0x34
}
 80014e4:	e7e8      	b.n	80014b8 <Dropper_Update+0x10>
	__HAL_TIM_SET_COMPARE(&htim8, TIM_CHANNEL_1, DROPPER_NEUTRAL);
 80014e6:	4b05      	ldr	r3, [pc, #20]	@ (80014fc <Dropper_Update+0x54>)
 80014e8:	681b      	ldr	r3, [r3, #0]
 80014ea:	f648 429f 	movw	r2, #35999	@ 0x8c9f
 80014ee:	e7f8      	b.n	80014e2 <Dropper_Update+0x3a>
 80014f0:	200003e8 	.word	0x200003e8
 80014f4:	200003e4 	.word	0x200003e4
 80014f8:	200003e0 	.word	0x200003e0
 80014fc:	200006d0 	.word	0x200006d0

08001500 <Dropper_Kill>:

void Dropper_Kill(void)
{
    dropperState = DROPPER_KILLED;
 8001500:	4b04      	ldr	r3, [pc, #16]	@ (8001514 <Dropper_Kill+0x14>)
 8001502:	2202      	movs	r2, #2
 8001504:	701a      	strb	r2, [r3, #0]
	__HAL_TIM_SET_COMPARE(&htim8, TIM_CHANNEL_1, DROPPER_NEUTRAL);
 8001506:	4b04      	ldr	r3, [pc, #16]	@ (8001518 <Dropper_Kill+0x18>)
 8001508:	681b      	ldr	r3, [r3, #0]
 800150a:	f648 429f 	movw	r2, #35999	@ 0x8c9f
 800150e:	635a      	str	r2, [r3, #52]	@ 0x34
    Set_Dropper_Neutral();
}
 8001510:	4770      	bx	lr
 8001512:	bf00      	nop
 8001514:	200003e8 	.word	0x200003e8
 8001518:	200006d0 	.word	0x200006d0

0800151c <SystemClock_Config>:
/**
  * @brief System Clock Configuration
  * @retval None
  */
void SystemClock_Config(void)
{
 800151c:	b510      	push	{r4, lr}
 800151e:	b094      	sub	sp, #80	@ 0x50
  RCC_OscInitTypeDef RCC_OscInitStruct = {0};
 8001520:	2238      	movs	r2, #56	@ 0x38
 8001522:	2100      	movs	r1, #0
 8001524:	a806      	add	r0, sp, #24
 8001526:	f006 fe84 	bl	8008232 <memset>
  RCC_ClkInitTypeDef RCC_ClkInitStruct = {0};
 800152a:	2100      	movs	r1, #0
 800152c:	2214      	movs	r2, #20
 800152e:	a801      	add	r0, sp, #4
 8001530:	f006 fe7f 	bl	8008232 <memset>

  /** Configure the main internal regulator output voltage
  */
  HAL_PWREx_ControlVoltageScaling(PWR_REGULATOR_VOLTAGE_SCALE1);
 8001534:	f44f 7000 	mov.w	r0, #512	@ 0x200
 8001538:	f002 fdd8 	bl	80040ec <HAL_PWREx_ControlVoltageScaling>

  /** Initializes the RCC Oscillators according to the specified parameters
  * in the RCC_OscInitTypeDef structure.
  */
  RCC_OscInitStruct.OscillatorType = RCC_OSCILLATORTYPE_HSE;
  RCC_OscInitStruct.HSEState = RCC_HSE_ON;
 800153c:	2201      	movs	r2, #1
 800153e:	f44f 3380 	mov.w	r3, #65536	@ 0x10000
 8001542:	e9cd 2306 	strd	r2, r3, [sp, #24]
  RCC_OscInitStruct.PLL.PLLState = RCC_PLL_ON;
  RCC_OscInitStruct.PLL.PLLSource = RCC_PLLSOURCE_HSE;
  RCC_OscInitStruct.PLL.PLLM = RCC_PLLM_DIV1;
 8001546:	920f      	str	r2, [sp, #60]	@ 0x3c
  RCC_OscInitStruct.PLL.PLLSource = RCC_PLLSOURCE_HSE;
 8001548:	2302      	movs	r3, #2
  RCC_OscInitStruct.PLL.PLLN = 12;
 800154a:	220c      	movs	r2, #12
  RCC_OscInitStruct.PLL.PLLSource = RCC_PLLSOURCE_HSE;
 800154c:	2403      	movs	r4, #3
  RCC_OscInitStruct.PLL.PLLP = RCC_PLLP_DIV2;
 800154e:	e9cd 2310 	strd	r2, r3, [sp, #64]	@ 0x40
  RCC_OscInitStruct.PLL.PLLSource = RCC_PLLSOURCE_HSE;
 8001552:	e9cd 340d 	strd	r3, r4, [sp, #52]	@ 0x34
  RCC_OscInitStruct.PLL.PLLQ = RCC_PLLQ_DIV4;
  RCC_OscInitStruct.PLL.PLLR = RCC_PLLR_DIV8;
 8001556:	2204      	movs	r2, #4
 8001558:	2308      	movs	r3, #8
  if (HAL_RCC_OscConfig(&RCC_OscInitStruct) != HAL_OK)
 800155a:	a806      	add	r0, sp, #24
  RCC_OscInitStruct.PLL.PLLR = RCC_PLLR_DIV8;
 800155c:	e9cd 2312 	strd	r2, r3, [sp, #72]	@ 0x48
  if (HAL_RCC_OscConfig(&RCC_OscInitStruct) != HAL_OK)
 8001560:	f002 fe24 	bl	80041ac <HAL_RCC_OscConfig>
 8001564:	4601      	mov	r1, r0
 8001566:	b108      	cbz	r0, 800156c <SystemClock_Config+0x50>
  \details Disables IRQ interrupts by setting the I-bit in the CPSR.
           Can only be executed in Privileged modes.
 */
__STATIC_FORCEINLINE void __disable_irq(void)
{
  __ASM volatile ("cpsid i" : : : "memory");
 8001568:	b672      	cpsid	i
void Error_Handler(void)
{
  /* USER CODE BEGIN Error_Handler_Debug */
  /* User can add his own implementation to report the HAL error return state */
  __disable_irq();
  while (1)
 800156a:	e7fe      	b.n	800156a <SystemClock_Config+0x4e>
  RCC_ClkInitStruct.APB1CLKDivider = RCC_HCLK_DIV1;
 800156c:	e9cd 0003 	strd	r0, r0, [sp, #12]
  RCC_ClkInitStruct.ClockType = RCC_CLOCKTYPE_HCLK|RCC_CLOCKTYPE_SYSCLK
 8001570:	230f      	movs	r3, #15
  RCC_ClkInitStruct.APB2CLKDivider = RCC_HCLK_DIV1;
 8001572:	9005      	str	r0, [sp, #20]
  if (HAL_RCC_ClockConfig(&RCC_ClkInitStruct, FLASH_LATENCY_0) != HAL_OK)
 8001574:	a801      	add	r0, sp, #4
  RCC_ClkInitStruct.SYSCLKSource = RCC_SYSCLKSOURCE_PLLCLK;
 8001576:	e9cd 3401 	strd	r3, r4, [sp, #4]
  if (HAL_RCC_ClockConfig(&RCC_ClkInitStruct, FLASH_LATENCY_0) != HAL_OK)
 800157a:	f003 f84f 	bl	800461c <HAL_RCC_ClockConfig>
 800157e:	b108      	cbz	r0, 8001584 <SystemClock_Config+0x68>
 8001580:	b672      	cpsid	i
  while (1)
 8001582:	e7fe      	b.n	8001582 <SystemClock_Config+0x66>
}
 8001584:	b014      	add	sp, #80	@ 0x50
 8001586:	bd10      	pop	{r4, pc}

08001588 <main>:
{
 8001588:	b580      	push	{r7, lr}
 800158a:	b09c      	sub	sp, #112	@ 0x70
  HAL_Init();
 800158c:	f001 f9c8 	bl	8002920 <HAL_Init>
  SystemClock_Config();
 8001590:	f7ff ffc4 	bl	800151c <SystemClock_Config>
  GPIO_InitTypeDef GPIO_InitStruct = {0};
 8001594:	2214      	movs	r2, #20
 8001596:	2100      	movs	r1, #0
 8001598:	a80f      	add	r0, sp, #60	@ 0x3c
 800159a:	f006 fe4a 	bl	8008232 <memset>
  __HAL_RCC_GPIOC_CLK_ENABLE();
 800159e:	4bab      	ldr	r3, [pc, #684]	@ (800184c <main+0x2c4>)
  HAL_GPIO_WritePin(GPIOC, LED_BLUE_Pin|LED_GREEN_Pin|LED_RED_Pin|POWER_OFF_Pin
 80015a0:	48ab      	ldr	r0, [pc, #684]	@ (8001850 <main+0x2c8>)
  __HAL_RCC_GPIOC_CLK_ENABLE();
 80015a2:	6cda      	ldr	r2, [r3, #76]	@ 0x4c
 80015a4:	f042 0204 	orr.w	r2, r2, #4
 80015a8:	64da      	str	r2, [r3, #76]	@ 0x4c
 80015aa:	6cda      	ldr	r2, [r3, #76]	@ 0x4c
 80015ac:	f002 0204 	and.w	r2, r2, #4
 80015b0:	9201      	str	r2, [sp, #4]
 80015b2:	9a01      	ldr	r2, [sp, #4]
  __HAL_RCC_GPIOF_CLK_ENABLE();
 80015b4:	6cda      	ldr	r2, [r3, #76]	@ 0x4c
 80015b6:	f042 0220 	orr.w	r2, r2, #32
 80015ba:	64da      	str	r2, [r3, #76]	@ 0x4c
 80015bc:	6cda      	ldr	r2, [r3, #76]	@ 0x4c
 80015be:	f002 0220 	and.w	r2, r2, #32
 80015c2:	9202      	str	r2, [sp, #8]
 80015c4:	9a02      	ldr	r2, [sp, #8]
  __HAL_RCC_GPIOA_CLK_ENABLE();
 80015c6:	6cda      	ldr	r2, [r3, #76]	@ 0x4c
 80015c8:	f042 0201 	orr.w	r2, r2, #1
 80015cc:	64da      	str	r2, [r3, #76]	@ 0x4c
 80015ce:	6cda      	ldr	r2, [r3, #76]	@ 0x4c
 80015d0:	f002 0201 	and.w	r2, r2, #1
 80015d4:	9203      	str	r2, [sp, #12]
 80015d6:	9a03      	ldr	r2, [sp, #12]
  __HAL_RCC_GPIOB_CLK_ENABLE();
 80015d8:	6cda      	ldr	r2, [r3, #76]	@ 0x4c
 80015da:	f042 0202 	orr.w	r2, r2, #2
 80015de:	64da      	str	r2, [r3, #76]	@ 0x4c
 80015e0:	6cdb      	ldr	r3, [r3, #76]	@ 0x4c
 80015e2:	f003 0302 	and.w	r3, r3, #2
 80015e6:	9304      	str	r3, [sp, #16]
  HAL_GPIO_WritePin(GPIOC, LED_BLUE_Pin|LED_GREEN_Pin|LED_RED_Pin|POWER_OFF_Pin
 80015e8:	2200      	movs	r2, #0
 80015ea:	f44f 4169 	mov.w	r1, #59648	@ 0xe900
  __HAL_RCC_GPIOB_CLK_ENABLE();
 80015ee:	9b04      	ldr	r3, [sp, #16]
  HAL_GPIO_WritePin(GPIOC, LED_BLUE_Pin|LED_GREEN_Pin|LED_RED_Pin|POWER_OFF_Pin
 80015f0:	f001 fb70 	bl	8002cd4 <HAL_GPIO_WritePin>
  HAL_GPIO_WritePin(GPIOA, BUZZER_Pin|D__PU_Pin, GPIO_PIN_RESET);
 80015f4:	2200      	movs	r2, #0
 80015f6:	f44f 6182 	mov.w	r1, #1040	@ 0x410
 80015fa:	f04f 4090 	mov.w	r0, #1207959552	@ 0x48000000
 80015fe:	f001 fb69 	bl	8002cd4 <HAL_GPIO_WritePin>
  HAL_GPIO_WritePin(GPIOB, RED_Pin|GREEN_Pin|BLUE_Pin, GPIO_PIN_RESET);
 8001602:	2200      	movs	r2, #0
 8001604:	4893      	ldr	r0, [pc, #588]	@ (8001854 <main+0x2cc>)
 8001606:	f44f 4160 	mov.w	r1, #57344	@ 0xe000
  GPIO_InitStruct.Pull = GPIO_NOPULL;
 800160a:	2400      	movs	r4, #0
  HAL_GPIO_WritePin(GPIOB, RED_Pin|GREEN_Pin|BLUE_Pin, GPIO_PIN_RESET);
 800160c:	f001 fb62 	bl	8002cd4 <HAL_GPIO_WritePin>
  GPIO_InitStruct.Mode = GPIO_MODE_OUTPUT_PP;
 8001610:	2501      	movs	r5, #1
 8001612:	f44f 4369 	mov.w	r3, #59648	@ 0xe900
  HAL_GPIO_Init(GPIOC, &GPIO_InitStruct);
 8001616:	488e      	ldr	r0, [pc, #568]	@ (8001850 <main+0x2c8>)
 8001618:	a90f      	add	r1, sp, #60	@ 0x3c
  GPIO_InitStruct.Mode = GPIO_MODE_OUTPUT_PP;
 800161a:	e9cd 350f 	strd	r3, r5, [sp, #60]	@ 0x3c
  GPIO_InitStruct.Speed = GPIO_SPEED_FREQ_LOW;
 800161e:	e9cd 4411 	strd	r4, r4, [sp, #68]	@ 0x44
  HAL_GPIO_Init(GPIOC, &GPIO_InitStruct);
 8001622:	f001 fa87 	bl	8002b34 <HAL_GPIO_Init>
  GPIO_InitStruct.Pin = BUZZER_Pin|D__PU_Pin;
 8001626:	f44f 6382 	mov.w	r3, #1040	@ 0x410
  HAL_GPIO_Init(GPIOA, &GPIO_InitStruct);
 800162a:	a90f      	add	r1, sp, #60	@ 0x3c
 800162c:	f04f 4090 	mov.w	r0, #1207959552	@ 0x48000000
  GPIO_InitStruct.Mode = GPIO_MODE_OUTPUT_PP;
 8001630:	e9cd 350f 	strd	r3, r5, [sp, #60]	@ 0x3c
  GPIO_InitStruct.Pull = GPIO_PULLDOWN;
 8001634:	2702      	movs	r7, #2
  GPIO_InitStruct.Pin = EXT_KILL_Pin;
 8001636:	f44f 5880 	mov.w	r8, #4096	@ 0x1000
  GPIO_InitStruct.Speed = GPIO_SPEED_FREQ_LOW;
 800163a:	e9cd 4411 	strd	r4, r4, [sp, #68]	@ 0x44
  HAL_GPIO_Init(GPIOA, &GPIO_InitStruct);
 800163e:	f001 fa79 	bl	8002b34 <HAL_GPIO_Init>
  HAL_GPIO_Init(EXT_KILL_GPIO_Port, &GPIO_InitStruct);
 8001642:	4884      	ldr	r0, [pc, #528]	@ (8001854 <main+0x2cc>)
  GPIO_InitStruct.Pull = GPIO_PULLDOWN;
 8001644:	9711      	str	r7, [sp, #68]	@ 0x44
  HAL_GPIO_Init(EXT_KILL_GPIO_Port, &GPIO_InitStruct);
 8001646:	a90f      	add	r1, sp, #60	@ 0x3c
  GPIO_InitStruct.Mode = GPIO_MODE_INPUT;
 8001648:	e9cd 840f 	strd	r8, r4, [sp, #60]	@ 0x3c
  HAL_GPIO_Init(EXT_KILL_GPIO_Port, &GPIO_InitStruct);
 800164c:	f001 fa72 	bl	8002b34 <HAL_GPIO_Init>
  GPIO_InitStruct.Pin = RED_Pin|GREEN_Pin|BLUE_Pin;
 8001650:	f44f 4360 	mov.w	r3, #57344	@ 0xe000
  HAL_GPIO_Init(GPIOB, &GPIO_InitStruct);
 8001654:	487f      	ldr	r0, [pc, #508]	@ (8001854 <main+0x2cc>)
 8001656:	a90f      	add	r1, sp, #60	@ 0x3c
  GPIO_InitStruct.Mode = GPIO_MODE_OUTPUT_PP;
 8001658:	e9cd 350f 	strd	r3, r5, [sp, #60]	@ 0x3c
  GPIO_InitStruct.Pin = BUTTON_IN_Pin;
 800165c:	2680      	movs	r6, #128	@ 0x80
  GPIO_InitStruct.Speed = GPIO_SPEED_FREQ_LOW;
 800165e:	e9cd 4411 	strd	r4, r4, [sp, #68]	@ 0x44
  HAL_GPIO_Init(GPIOB, &GPIO_InitStruct);
 8001662:	f001 fa67 	bl	8002b34 <HAL_GPIO_Init>
  HAL_GPIO_Init(BUTTON_IN_GPIO_Port, &GPIO_InitStruct);
 8001666:	487a      	ldr	r0, [pc, #488]	@ (8001850 <main+0x2c8>)
  GPIO_InitStruct.Pull = GPIO_PULLUP;
 8001668:	9511      	str	r5, [sp, #68]	@ 0x44
  HAL_GPIO_Init(BUTTON_IN_GPIO_Port, &GPIO_InitStruct);
 800166a:	a90f      	add	r1, sp, #60	@ 0x3c
  GPIO_InitStruct.Mode = GPIO_MODE_INPUT;
 800166c:	e9cd 640f 	strd	r6, r4, [sp, #60]	@ 0x3c
  HAL_GPIO_Init(BUTTON_IN_GPIO_Port, &GPIO_InitStruct);
 8001670:	f001 fa60 	bl	8002b34 <HAL_GPIO_Init>
  HAL_GPIO_Init(VBUS_DETECT_GPIO_Port, &GPIO_InitStruct);
 8001674:	4876      	ldr	r0, [pc, #472]	@ (8001850 <main+0x2c8>)
  GPIO_InitStruct.Pull = GPIO_PULLDOWN;
 8001676:	9711      	str	r7, [sp, #68]	@ 0x44
  HAL_GPIO_Init(VBUS_DETECT_GPIO_Port, &GPIO_InitStruct);
 8001678:	a90f      	add	r1, sp, #60	@ 0x3c
  GPIO_InitStruct.Mode = GPIO_MODE_INPUT;
 800167a:	e9cd 840f 	strd	r8, r4, [sp, #60]	@ 0x3c
  HAL_GPIO_Init(VBUS_DETECT_GPIO_Port, &GPIO_InitStruct);
 800167e:	f001 fa59 	bl	8002b34 <HAL_GPIO_Init>
  TIM_OC_InitTypeDef sConfigOC = {0};
 8001682:	221c      	movs	r2, #28
 8001684:	4621      	mov	r1, r4
 8001686:	a808      	add	r0, sp, #32
  htim1.Instance = TIM1;
 8001688:	4d73      	ldr	r5, [pc, #460]	@ (8001858 <main+0x2d0>)
  TIM_MasterConfigTypeDef sMasterConfig = {0};
 800168a:	9407      	str	r4, [sp, #28]
 800168c:	e9cd 4405 	strd	r4, r4, [sp, #20]
  TIM_OC_InitTypeDef sConfigOC = {0};
 8001690:	f006 fdcf 	bl	8008232 <memset>
  TIM_BreakDeadTimeConfigTypeDef sBreakDeadTimeConfig = {0};
 8001694:	2234      	movs	r2, #52	@ 0x34
 8001696:	4621      	mov	r1, r4
 8001698:	a80f      	add	r0, sp, #60	@ 0x3c
 800169a:	f006 fdca 	bl	8008232 <memset>
  htim1.Instance = TIM1;
 800169e:	4b6f      	ldr	r3, [pc, #444]	@ (800185c <main+0x2d4>)
  htim1.Init.CounterMode = TIM_COUNTERMODE_UP;
 80016a0:	60ac      	str	r4, [r5, #8]
  htim1.Init.Period = 65535;
 80016a2:	f64f 77ff 	movw	r7, #65535	@ 0xffff
  if (HAL_TIM_PWM_Init(&htim1) != HAL_OK)
 80016a6:	4628      	mov	r0, r5
  htim1.Init.Prescaler = 0;
 80016a8:	e9c5 3400 	strd	r3, r4, [r5]
  htim1.Init.ClockDivision = TIM_CLOCKDIVISION_DIV1;
 80016ac:	e9c5 7403 	strd	r7, r4, [r5, #12]
  htim1.Init.AutoReloadPreload = TIM_AUTORELOAD_PRELOAD_ENABLE;
 80016b0:	e9c5 4605 	strd	r4, r6, [r5, #20]
  if (HAL_TIM_PWM_Init(&htim1) != HAL_OK)
 80016b4:	f003 fd12 	bl	80050dc <HAL_TIM_PWM_Init>
 80016b8:	b108      	cbz	r0, 80016be <main+0x136>
 80016ba:	b672      	cpsid	i
  while (1)
 80016bc:	e7fe      	b.n	80016bc <main+0x134>
  sMasterConfig.MasterOutputTrigger2 = TIM_TRGO2_RESET;
 80016be:	e9cd 0005 	strd	r0, r0, [sp, #20]
  sMasterConfig.MasterSlaveMode = TIM_MASTERSLAVEMODE_DISABLE;
 80016c2:	9007      	str	r0, [sp, #28]
  if (HAL_TIMEx_MasterConfigSynchronization(&htim1, &sMasterConfig) != HAL_OK)
 80016c4:	a905      	add	r1, sp, #20
 80016c6:	4628      	mov	r0, r5
 80016c8:	f003 fe9a 	bl	8005400 <HAL_TIMEx_MasterConfigSynchronization>
 80016cc:	4602      	mov	r2, r0
 80016ce:	b108      	cbz	r0, 80016d4 <main+0x14c>
 80016d0:	b672      	cpsid	i
  while (1)
 80016d2:	e7fe      	b.n	80016d2 <main+0x14a>
  sConfigOC.OCMode = TIM_OCMODE_PWM1;
 80016d4:	f04f 0860 	mov.w	r8, #96	@ 0x60
  sConfigOC.Pulse = 0;
 80016d8:	e9cd 8008 	strd	r8, r0, [sp, #32]
  sConfigOC.OCNPolarity = TIM_OCNPOLARITY_HIGH;
 80016dc:	e9cd 000a 	strd	r0, r0, [sp, #40]	@ 0x28
  sConfigOC.OCIdleState = TIM_OCIDLESTATE_RESET;
 80016e0:	e9cd 000c 	strd	r0, r0, [sp, #48]	@ 0x30
  sConfigOC.OCNIdleState = TIM_OCNIDLESTATE_RESET;
 80016e4:	900e      	str	r0, [sp, #56]	@ 0x38
  if (HAL_TIM_PWM_ConfigChannel(&htim1, &sConfigOC, TIM_CHANNEL_1) != HAL_OK)
 80016e6:	a908      	add	r1, sp, #32
 80016e8:	4628      	mov	r0, r5
 80016ea:	f003 fd6b 	bl	80051c4 <HAL_TIM_PWM_ConfigChannel>
 80016ee:	b108      	cbz	r0, 80016f4 <main+0x16c>
 80016f0:	b672      	cpsid	i
  while (1)
 80016f2:	e7fe      	b.n	80016f2 <main+0x16a>
  sBreakDeadTimeConfig.BreakPolarity = TIM_BREAKPOLARITY_HIGH;
 80016f4:	f44f 5300 	mov.w	r3, #8192	@ 0x2000
  sBreakDeadTimeConfig.BreakFilter = 0;
 80016f8:	e9cd 3014 	strd	r3, r0, [sp, #80]	@ 0x50
  sBreakDeadTimeConfig.Break2Polarity = TIM_BREAK2POLARITY_HIGH;
 80016fc:	f04f 7300 	mov.w	r3, #33554432	@ 0x2000000
  sBreakDeadTimeConfig.OffStateIDLEMode = TIM_OSSI_DISABLE;
 8001700:	e9cd 000f 	strd	r0, r0, [sp, #60]	@ 0x3c
  sBreakDeadTimeConfig.DeadTime = 0;
 8001704:	e9cd 0011 	strd	r0, r0, [sp, #68]	@ 0x44
  sBreakDeadTimeConfig.Break2State = TIM_BREAK2_DISABLE;
 8001708:	e9cd 0016 	strd	r0, r0, [sp, #88]	@ 0x58
  sBreakDeadTimeConfig.Break2Filter = 0;
 800170c:	e9cd 3018 	strd	r3, r0, [sp, #96]	@ 0x60
  sBreakDeadTimeConfig.AutomaticOutput = TIM_AUTOMATICOUTPUT_DISABLE;
 8001710:	e9cd 001a 	strd	r0, r0, [sp, #104]	@ 0x68
  sBreakDeadTimeConfig.BreakState = TIM_BREAK_DISABLE;
 8001714:	9013      	str	r0, [sp, #76]	@ 0x4c
  if (HAL_TIMEx_ConfigBreakDeadTime(&htim1, &sBreakDeadTimeConfig) != HAL_OK)
 8001716:	a90f      	add	r1, sp, #60	@ 0x3c
 8001718:	4628      	mov	r0, r5
 800171a:	f003 fec1 	bl	80054a0 <HAL_TIMEx_ConfigBreakDeadTime>
 800171e:	4604      	mov	r4, r0
 8001720:	b108      	cbz	r0, 8001726 <main+0x19e>
 8001722:	b672      	cpsid	i
  while (1)
 8001724:	e7fe      	b.n	8001724 <main+0x19c>
  HAL_TIM_MspPostInit(&htim1);
 8001726:	4628      	mov	r0, r5
  htim2.Instance = TIM2;
 8001728:	4d4d      	ldr	r5, [pc, #308]	@ (8001860 <main+0x2d8>)
  HAL_TIM_MspPostInit(&htim1);
 800172a:	f000 fe11 	bl	8002350 <HAL_TIM_MspPostInit>
  TIM_OC_InitTypeDef sConfigOC = {0};
 800172e:	221c      	movs	r2, #28
 8001730:	4621      	mov	r1, r4
 8001732:	a80f      	add	r0, sp, #60	@ 0x3c
  TIM_MasterConfigTypeDef sMasterConfig = {0};
 8001734:	e9cd 4408 	strd	r4, r4, [sp, #32]
 8001738:	940a      	str	r4, [sp, #40]	@ 0x28
  TIM_OC_InitTypeDef sConfigOC = {0};
 800173a:	f006 fd7a 	bl	8008232 <memset>
  htim2.Instance = TIM2;
 800173e:	f04f 4380 	mov.w	r3, #1073741824	@ 0x40000000
  if (HAL_TIM_PWM_Init(&htim2) != HAL_OK)
 8001742:	4628      	mov	r0, r5
  htim2.Init.Prescaler = 0;
 8001744:	e9c5 3400 	strd	r3, r4, [r5]
  htim2.Init.Period = 65535;
 8001748:	e9c5 4702 	strd	r4, r7, [r5, #8]
  htim2.Init.ClockDivision = TIM_CLOCKDIVISION_DIV1;
 800174c:	612c      	str	r4, [r5, #16]
  htim2.Init.AutoReloadPreload = TIM_AUTORELOAD_PRELOAD_ENABLE;
 800174e:	61ae      	str	r6, [r5, #24]
  if (HAL_TIM_PWM_Init(&htim2) != HAL_OK)
 8001750:	f003 fcc4 	bl	80050dc <HAL_TIM_PWM_Init>
 8001754:	b108      	cbz	r0, 800175a <main+0x1d2>
 8001756:	b672      	cpsid	i
  while (1)
 8001758:	e7fe      	b.n	8001758 <main+0x1d0>
  sMasterConfig.MasterOutputTrigger = TIM_TRGO_RESET;
 800175a:	9008      	str	r0, [sp, #32]
  sMasterConfig.MasterSlaveMode = TIM_MASTERSLAVEMODE_DISABLE;
 800175c:	900a      	str	r0, [sp, #40]	@ 0x28
  if (HAL_TIMEx_MasterConfigSynchronization(&htim2, &sMasterConfig) != HAL_OK)
 800175e:	a908      	add	r1, sp, #32
 8001760:	4628      	mov	r0, r5
 8001762:	f003 fe4d 	bl	8005400 <HAL_TIMEx_MasterConfigSynchronization>
 8001766:	4602      	mov	r2, r0
 8001768:	b108      	cbz	r0, 800176e <main+0x1e6>
 800176a:	b672      	cpsid	i
  while (1)
 800176c:	e7fe      	b.n	800176c <main+0x1e4>
  sConfigOC.Pulse = 0;
 800176e:	e9cd 800f 	strd	r8, r0, [sp, #60]	@ 0x3c
  sConfigOC.OCPolarity = TIM_OCPOLARITY_HIGH;
 8001772:	9011      	str	r0, [sp, #68]	@ 0x44
  sConfigOC.OCFastMode = TIM_OCFAST_DISABLE;
 8001774:	9013      	str	r0, [sp, #76]	@ 0x4c
  if (HAL_TIM_PWM_ConfigChannel(&htim2, &sConfigOC, TIM_CHANNEL_1) != HAL_OK)
 8001776:	a90f      	add	r1, sp, #60	@ 0x3c
 8001778:	4628      	mov	r0, r5
 800177a:	f003 fd23 	bl	80051c4 <HAL_TIM_PWM_ConfigChannel>
 800177e:	4604      	mov	r4, r0
 8001780:	b108      	cbz	r0, 8001786 <main+0x1fe>
 8001782:	b672      	cpsid	i
  while (1)
 8001784:	e7fe      	b.n	8001784 <main+0x1fc>
  HAL_TIM_MspPostInit(&htim2);
 8001786:	4628      	mov	r0, r5
 8001788:	f000 fde2 	bl	8002350 <HAL_TIM_MspPostInit>
  htim3.Instance = TIM3;
 800178c:	4d35      	ldr	r5, [pc, #212]	@ (8001864 <main+0x2dc>)
  TIM_MasterConfigTypeDef sMasterConfig = {0};
 800178e:	940a      	str	r4, [sp, #40]	@ 0x28
  TIM_OC_InitTypeDef sConfigOC = {0};
 8001790:	221c      	movs	r2, #28
 8001792:	4621      	mov	r1, r4
 8001794:	a80f      	add	r0, sp, #60	@ 0x3c
  TIM_MasterConfigTypeDef sMasterConfig = {0};
 8001796:	e9cd 4408 	strd	r4, r4, [sp, #32]
  TIM_OC_InitTypeDef sConfigOC = {0};
 800179a:	f006 fd4a 	bl	8008232 <memset>
  htim3.Instance = TIM3;
 800179e:	4b32      	ldr	r3, [pc, #200]	@ (8001868 <main+0x2e0>)
  htim3.Init.ClockDivision = TIM_CLOCKDIVISION_DIV1;
 80017a0:	612c      	str	r4, [r5, #16]
  if (HAL_TIM_PWM_Init(&htim3) != HAL_OK)
 80017a2:	4628      	mov	r0, r5
  htim3.Init.Prescaler = 0;
 80017a4:	e9c5 3400 	strd	r3, r4, [r5]
  htim3.Init.Period = 65535;
 80017a8:	e9c5 4702 	strd	r4, r7, [r5, #8]
  htim3.Init.AutoReloadPreload = TIM_AUTORELOAD_PRELOAD_ENABLE;
 80017ac:	61ae      	str	r6, [r5, #24]
  if (HAL_TIM_PWM_Init(&htim3) != HAL_OK)
 80017ae:	f003 fc95 	bl	80050dc <HAL_TIM_PWM_Init>
 80017b2:	b108      	cbz	r0, 80017b8 <main+0x230>
 80017b4:	b672      	cpsid	i
  while (1)
 80017b6:	e7fe      	b.n	80017b6 <main+0x22e>
  sMasterConfig.MasterOutputTrigger = TIM_TRGO_RESET;
 80017b8:	9008      	str	r0, [sp, #32]
  sMasterConfig.MasterSlaveMode = TIM_MASTERSLAVEMODE_DISABLE;
 80017ba:	900a      	str	r0, [sp, #40]	@ 0x28
  if (HAL_TIMEx_MasterConfigSynchronization(&htim3, &sMasterConfig) != HAL_OK)
 80017bc:	a908      	add	r1, sp, #32
 80017be:	4628      	mov	r0, r5
 80017c0:	f003 fe1e 	bl	8005400 <HAL_TIMEx_MasterConfigSynchronization>
 80017c4:	4602      	mov	r2, r0
 80017c6:	b108      	cbz	r0, 80017cc <main+0x244>
 80017c8:	b672      	cpsid	i
  while (1)
 80017ca:	e7fe      	b.n	80017ca <main+0x242>
  sConfigOC.Pulse = 0;
 80017cc:	e9cd 800f 	strd	r8, r0, [sp, #60]	@ 0x3c
  sConfigOC.OCPolarity = TIM_OCPOLARITY_HIGH;
 80017d0:	9011      	str	r0, [sp, #68]	@ 0x44
  sConfigOC.OCFastMode = TIM_OCFAST_DISABLE;
 80017d2:	9013      	str	r0, [sp, #76]	@ 0x4c
  if (HAL_TIM_PWM_ConfigChannel(&htim3, &sConfigOC, TIM_CHANNEL_1) != HAL_OK)
 80017d4:	a90f      	add	r1, sp, #60	@ 0x3c
 80017d6:	4628      	mov	r0, r5
 80017d8:	f003 fcf4 	bl	80051c4 <HAL_TIM_PWM_ConfigChannel>
 80017dc:	b108      	cbz	r0, 80017e2 <main+0x25a>
 80017de:	b672      	cpsid	i
  while (1)
 80017e0:	e7fe      	b.n	80017e0 <main+0x258>
  TIM_MasterConfigTypeDef sMasterConfig = {0};
 80017e2:	2400      	movs	r4, #0
  HAL_TIM_MspPostInit(&htim3);
 80017e4:	481f      	ldr	r0, [pc, #124]	@ (8001864 <main+0x2dc>)
  htim4.Instance = TIM4;
 80017e6:	4d21      	ldr	r5, [pc, #132]	@ (800186c <main+0x2e4>)
  HAL_TIM_MspPostInit(&htim3);
 80017e8:	f000 fdb2 	bl	8002350 <HAL_TIM_MspPostInit>
  TIM_OC_InitTypeDef sConfigOC = {0};
 80017ec:	221c      	movs	r2, #28
 80017ee:	4621      	mov	r1, r4
 80017f0:	a80f      	add	r0, sp, #60	@ 0x3c
  TIM_MasterConfigTypeDef sMasterConfig = {0};
 80017f2:	e9cd 4408 	strd	r4, r4, [sp, #32]
 80017f6:	940a      	str	r4, [sp, #40]	@ 0x28
  TIM_OC_InitTypeDef sConfigOC = {0};
 80017f8:	f006 fd1b 	bl	8008232 <memset>
  htim4.Instance = TIM4;
 80017fc:	4b1c      	ldr	r3, [pc, #112]	@ (8001870 <main+0x2e8>)
  htim4.Init.CounterMode = TIM_COUNTERMODE_UP;
 80017fe:	60ac      	str	r4, [r5, #8]
  htim4.Init.Period = 65535;
 8001800:	f64f 78ff 	movw	r8, #65535	@ 0xffff
  htim4.Init.AutoReloadPreload = TIM_AUTORELOAD_PRELOAD_ENABLE;
 8001804:	2780      	movs	r7, #128	@ 0x80
  if (HAL_TIM_PWM_Init(&htim4) != HAL_OK)
 8001806:	4628      	mov	r0, r5
  htim4.Init.Prescaler = 0;
 8001808:	e9c5 3400 	strd	r3, r4, [r5]
  htim4.Init.ClockDivision = TIM_CLOCKDIVISION_DIV1;
 800180c:	e9c5 8403 	strd	r8, r4, [r5, #12]
  htim4.Init.AutoReloadPreload = TIM_AUTORELOAD_PRELOAD_ENABLE;
 8001810:	61af      	str	r7, [r5, #24]
  if (HAL_TIM_PWM_Init(&htim4) != HAL_OK)
 8001812:	f003 fc63 	bl	80050dc <HAL_TIM_PWM_Init>
 8001816:	b108      	cbz	r0, 800181c <main+0x294>
 8001818:	b672      	cpsid	i
  while (1)
 800181a:	e7fe      	b.n	800181a <main+0x292>
  sMasterConfig.MasterOutputTrigger = TIM_TRGO_RESET;
 800181c:	9008      	str	r0, [sp, #32]
  sMasterConfig.MasterSlaveMode = TIM_MASTERSLAVEMODE_DISABLE;
 800181e:	900a      	str	r0, [sp, #40]	@ 0x28
  if (HAL_TIMEx_MasterConfigSynchronization(&htim4, &sMasterConfig) != HAL_OK)
 8001820:	a908      	add	r1, sp, #32
 8001822:	4628      	mov	r0, r5
 8001824:	f003 fdec 	bl	8005400 <HAL_TIMEx_MasterConfigSynchronization>
 8001828:	4602      	mov	r2, r0
 800182a:	b108      	cbz	r0, 8001830 <main+0x2a8>
 800182c:	b672      	cpsid	i
  while (1)
 800182e:	e7fe      	b.n	800182e <main+0x2a6>
  sConfigOC.OCMode = TIM_OCMODE_PWM1;
 8001830:	2660      	movs	r6, #96	@ 0x60
  sConfigOC.Pulse = 0;
 8001832:	e9cd 600f 	strd	r6, r0, [sp, #60]	@ 0x3c
  sConfigOC.OCPolarity = TIM_OCPOLARITY_HIGH;
 8001836:	9011      	str	r0, [sp, #68]	@ 0x44
  sConfigOC.OCFastMode = TIM_OCFAST_DISABLE;
 8001838:	9013      	str	r0, [sp, #76]	@ 0x4c
  if (HAL_TIM_PWM_ConfigChannel(&htim4, &sConfigOC, TIM_CHANNEL_1) != HAL_OK)
 800183a:	a90f      	add	r1, sp, #60	@ 0x3c
 800183c:	4628      	mov	r0, r5
 800183e:	f003 fcc1 	bl	80051c4 <HAL_TIM_PWM_ConfigChannel>
 8001842:	4604      	mov	r4, r0
 8001844:	b1b0      	cbz	r0, 8001874 <main+0x2ec>
 8001846:	b672      	cpsid	i
  while (1)
 8001848:	e7fe      	b.n	8001848 <main+0x2c0>
 800184a:	bf00      	nop
 800184c:	40021000 	.word	0x40021000
 8001850:	48000800 	.word	0x48000800
 8001854:	48000400 	.word	0x48000400
 8001858:	200008e4 	.word	0x200008e4
 800185c:	40012c00 	.word	0x40012c00
 8001860:	20000898 	.word	0x20000898
 8001864:	2000084c 	.word	0x2000084c
 8001868:	40000400 	.word	0x40000400
 800186c:	20000800 	.word	0x20000800
 8001870:	40000800 	.word	0x40000800
  HAL_TIM_MspPostInit(&htim4);
 8001874:	4628      	mov	r0, r5
 8001876:	f000 fd6b 	bl	8002350 <HAL_TIM_MspPostInit>
  htim5.Instance = TIM5;
 800187a:	4da8      	ldr	r5, [pc, #672]	@ (8001b1c <main+0x594>)
  TIM_MasterConfigTypeDef sMasterConfig = {0};
 800187c:	940a      	str	r4, [sp, #40]	@ 0x28
  TIM_OC_InitTypeDef sConfigOC = {0};
 800187e:	221c      	movs	r2, #28
 8001880:	4621      	mov	r1, r4
 8001882:	a80f      	add	r0, sp, #60	@ 0x3c
  TIM_MasterConfigTypeDef sMasterConfig = {0};
 8001884:	e9cd 4408 	strd	r4, r4, [sp, #32]
  TIM_OC_InitTypeDef sConfigOC = {0};
 8001888:	f006 fcd3 	bl	8008232 <memset>
  htim5.Instance = TIM5;
 800188c:	4ba4      	ldr	r3, [pc, #656]	@ (8001b20 <main+0x598>)
  htim5.Init.ClockDivision = TIM_CLOCKDIVISION_DIV1;
 800188e:	612c      	str	r4, [r5, #16]
  if (HAL_TIM_PWM_Init(&htim5) != HAL_OK)
 8001890:	4628      	mov	r0, r5
  htim5.Init.Prescaler = 0;
 8001892:	e9c5 3400 	strd	r3, r4, [r5]
  htim5.Init.Period = 65535;
 8001896:	e9c5 4802 	strd	r4, r8, [r5, #8]
  htim5.Init.AutoReloadPreload = TIM_AUTORELOAD_PRELOAD_ENABLE;
 800189a:	61af      	str	r7, [r5, #24]
  if (HAL_TIM_PWM_Init(&htim5) != HAL_OK)
 800189c:	f003 fc1e 	bl	80050dc <HAL_TIM_PWM_Init>
 80018a0:	b108      	cbz	r0, 80018a6 <main+0x31e>
 80018a2:	b672      	cpsid	i
  while (1)
 80018a4:	e7fe      	b.n	80018a4 <main+0x31c>
  sMasterConfig.MasterOutputTrigger = TIM_TRGO_RESET;
 80018a6:	9008      	str	r0, [sp, #32]
  sMasterConfig.MasterSlaveMode = TIM_MASTERSLAVEMODE_DISABLE;
 80018a8:	900a      	str	r0, [sp, #40]	@ 0x28
  if (HAL_TIMEx_MasterConfigSynchronization(&htim5, &sMasterConfig) != HAL_OK)
 80018aa:	a908      	add	r1, sp, #32
 80018ac:	4628      	mov	r0, r5
 80018ae:	f003 fda7 	bl	8005400 <HAL_TIMEx_MasterConfigSynchronization>
 80018b2:	4602      	mov	r2, r0
 80018b4:	b108      	cbz	r0, 80018ba <main+0x332>
 80018b6:	b672      	cpsid	i
  while (1)
 80018b8:	e7fe      	b.n	80018b8 <main+0x330>
  sConfigOC.Pulse = 0;
 80018ba:	e9cd 600f 	strd	r6, r0, [sp, #60]	@ 0x3c
  sConfigOC.OCPolarity = TIM_OCPOLARITY_HIGH;
 80018be:	9011      	str	r0, [sp, #68]	@ 0x44
  sConfigOC.OCFastMode = TIM_OCFAST_DISABLE;
 80018c0:	9013      	str	r0, [sp, #76]	@ 0x4c
  if (HAL_TIM_PWM_ConfigChannel(&htim5, &sConfigOC, TIM_CHANNEL_1) != HAL_OK)
 80018c2:	a90f      	add	r1, sp, #60	@ 0x3c
 80018c4:	4628      	mov	r0, r5
 80018c6:	f003 fc7d 	bl	80051c4 <HAL_TIM_PWM_ConfigChannel>
 80018ca:	4604      	mov	r4, r0
 80018cc:	b108      	cbz	r0, 80018d2 <main+0x34a>
 80018ce:	b672      	cpsid	i
  while (1)
 80018d0:	e7fe      	b.n	80018d0 <main+0x348>
  HAL_TIM_MspPostInit(&htim5);
 80018d2:	4628      	mov	r0, r5
 80018d4:	f000 fd3c 	bl	8002350 <HAL_TIM_MspPostInit>
  TIM_OC_InitTypeDef sConfigOC = {0};
 80018d8:	221c      	movs	r2, #28
 80018da:	4621      	mov	r1, r4
 80018dc:	a808      	add	r0, sp, #32
  htim8.Instance = TIM8;
 80018de:	4d91      	ldr	r5, [pc, #580]	@ (8001b24 <main+0x59c>)
  TIM_MasterConfigTypeDef sMasterConfig = {0};
 80018e0:	9407      	str	r4, [sp, #28]
 80018e2:	e9cd 4405 	strd	r4, r4, [sp, #20]
  TIM_OC_InitTypeDef sConfigOC = {0};
 80018e6:	f006 fca4 	bl	8008232 <memset>
  TIM_BreakDeadTimeConfigTypeDef sBreakDeadTimeConfig = {0};
 80018ea:	2234      	movs	r2, #52	@ 0x34
 80018ec:	4621      	mov	r1, r4
 80018ee:	a80f      	add	r0, sp, #60	@ 0x3c
 80018f0:	f006 fc9f 	bl	8008232 <memset>
  htim8.Instance = TIM8;
 80018f4:	4b8c      	ldr	r3, [pc, #560]	@ (8001b28 <main+0x5a0>)
  htim8.Init.AutoReloadPreload = TIM_AUTORELOAD_PRELOAD_ENABLE;
 80018f6:	61af      	str	r7, [r5, #24]
  if (HAL_TIM_PWM_Init(&htim8) != HAL_OK)
 80018f8:	4628      	mov	r0, r5
  htim8.Init.Prescaler = 0;
 80018fa:	e9c5 3400 	strd	r3, r4, [r5]
  htim8.Init.Period = 65535;
 80018fe:	e9c5 4802 	strd	r4, r8, [r5, #8]
  htim8.Init.RepetitionCounter = 0;
 8001902:	e9c5 4404 	strd	r4, r4, [r5, #16]
  if (HAL_TIM_PWM_Init(&htim8) != HAL_OK)
 8001906:	f003 fbe9 	bl	80050dc <HAL_TIM_PWM_Init>
 800190a:	b108      	cbz	r0, 8001910 <main+0x388>
 800190c:	b672      	cpsid	i
  while (1)
 800190e:	e7fe      	b.n	800190e <main+0x386>
  sMasterConfig.MasterOutputTrigger2 = TIM_TRGO2_RESET;
 8001910:	e9cd 0005 	strd	r0, r0, [sp, #20]
  sMasterConfig.MasterSlaveMode = TIM_MASTERSLAVEMODE_DISABLE;
 8001914:	9007      	str	r0, [sp, #28]
  if (HAL_TIMEx_MasterConfigSynchronization(&htim8, &sMasterConfig) != HAL_OK)
 8001916:	a905      	add	r1, sp, #20
 8001918:	4628      	mov	r0, r5
 800191a:	f003 fd71 	bl	8005400 <HAL_TIMEx_MasterConfigSynchronization>
 800191e:	4602      	mov	r2, r0
 8001920:	b108      	cbz	r0, 8001926 <main+0x39e>
 8001922:	b672      	cpsid	i
  while (1)
 8001924:	e7fe      	b.n	8001924 <main+0x39c>
  sConfigOC.Pulse = 0;
 8001926:	e9cd 6008 	strd	r6, r0, [sp, #32]
  sConfigOC.OCNPolarity = TIM_OCNPOLARITY_HIGH;
 800192a:	e9cd 000a 	strd	r0, r0, [sp, #40]	@ 0x28
  sConfigOC.OCIdleState = TIM_OCIDLESTATE_RESET;
 800192e:	e9cd 000c 	strd	r0, r0, [sp, #48]	@ 0x30
  sConfigOC.OCNIdleState = TIM_OCNIDLESTATE_RESET;
 8001932:	900e      	str	r0, [sp, #56]	@ 0x38
  if (HAL_TIM_PWM_ConfigChannel(&htim8, &sConfigOC, TIM_CHANNEL_1) != HAL_OK)
 8001934:	a908      	add	r1, sp, #32
 8001936:	4628      	mov	r0, r5
 8001938:	f003 fc44 	bl	80051c4 <HAL_TIM_PWM_ConfigChannel>
 800193c:	b108      	cbz	r0, 8001942 <main+0x3ba>
 800193e:	b672      	cpsid	i
  while (1)
 8001940:	e7fe      	b.n	8001940 <main+0x3b8>
  sBreakDeadTimeConfig.BreakPolarity = TIM_BREAKPOLARITY_HIGH;
 8001942:	f44f 5300 	mov.w	r3, #8192	@ 0x2000
  sBreakDeadTimeConfig.BreakFilter = 0;
 8001946:	e9cd 3014 	strd	r3, r0, [sp, #80]	@ 0x50
  sBreakDeadTimeConfig.Break2Polarity = TIM_BREAK2POLARITY_HIGH;
 800194a:	f04f 7300 	mov.w	r3, #33554432	@ 0x2000000
  sBreakDeadTimeConfig.OffStateIDLEMode = TIM_OSSI_DISABLE;
 800194e:	e9cd 000f 	strd	r0, r0, [sp, #60]	@ 0x3c
  sBreakDeadTimeConfig.DeadTime = 0;
 8001952:	e9cd 0011 	strd	r0, r0, [sp, #68]	@ 0x44
  sBreakDeadTimeConfig.Break2State = TIM_BREAK2_DISABLE;
 8001956:	e9cd 0016 	strd	r0, r0, [sp, #88]	@ 0x58
  sBreakDeadTimeConfig.Break2Filter = 0;
 800195a:	e9cd 3018 	strd	r3, r0, [sp, #96]	@ 0x60
  sBreakDeadTimeConfig.AutomaticOutput = TIM_AUTOMATICOUTPUT_DISABLE;
 800195e:	e9cd 001a 	strd	r0, r0, [sp, #104]	@ 0x68
  sBreakDeadTimeConfig.BreakState = TIM_BREAK_DISABLE;
 8001962:	9013      	str	r0, [sp, #76]	@ 0x4c
  if (HAL_TIMEx_ConfigBreakDeadTime(&htim8, &sBreakDeadTimeConfig) != HAL_OK)
 8001964:	a90f      	add	r1, sp, #60	@ 0x3c
 8001966:	4628      	mov	r0, r5
 8001968:	f003 fd9a 	bl	80054a0 <HAL_TIMEx_ConfigBreakDeadTime>
 800196c:	b108      	cbz	r0, 8001972 <main+0x3ea>
 800196e:	b672      	cpsid	i
  while (1)
 8001970:	e7fe      	b.n	8001970 <main+0x3e8>
  TIM_MasterConfigTypeDef sMasterConfig = {0};
 8001972:	2500      	movs	r5, #0
  HAL_TIM_MspPostInit(&htim8);
 8001974:	486b      	ldr	r0, [pc, #428]	@ (8001b24 <main+0x59c>)
  htim15.Instance = TIM15;
 8001976:	4c6d      	ldr	r4, [pc, #436]	@ (8001b2c <main+0x5a4>)
  HAL_TIM_MspPostInit(&htim8);
 8001978:	f000 fcea 	bl	8002350 <HAL_TIM_MspPostInit>
  TIM_OC_InitTypeDef sConfigOC = {0};
 800197c:	4629      	mov	r1, r5
 800197e:	221c      	movs	r2, #28
 8001980:	a808      	add	r0, sp, #32
  TIM_MasterConfigTypeDef sMasterConfig = {0};
 8001982:	e9cd 5505 	strd	r5, r5, [sp, #20]
 8001986:	9507      	str	r5, [sp, #28]
  TIM_OC_InitTypeDef sConfigOC = {0};
 8001988:	f006 fc53 	bl	8008232 <memset>
  TIM_BreakDeadTimeConfigTypeDef sBreakDeadTimeConfig = {0};
 800198c:	4629      	mov	r1, r5
 800198e:	2234      	movs	r2, #52	@ 0x34
 8001990:	a80f      	add	r0, sp, #60	@ 0x3c
 8001992:	f006 fc4e 	bl	8008232 <memset>
  htim15.Instance = TIM15;
 8001996:	4b66      	ldr	r3, [pc, #408]	@ (8001b30 <main+0x5a8>)
  htim15.Init.CounterMode = TIM_COUNTERMODE_UP;
 8001998:	60a5      	str	r5, [r4, #8]
  htim15.Init.Period = 65535;
 800199a:	f64f 76ff 	movw	r6, #65535	@ 0xffff
  htim15.Init.Prescaler = 0;
 800199e:	e9c4 3500 	strd	r3, r5, [r4]
  htim15.Init.ClockDivision = TIM_CLOCKDIVISION_DIV1;
 80019a2:	e9c4 6503 	strd	r6, r5, [r4, #12]
  htim15.Init.RepetitionCounter = 0;
 80019a6:	6165      	str	r5, [r4, #20]
  if (HAL_TIM_PWM_Init(&htim15) != HAL_OK)
 80019a8:	4620      	mov	r0, r4
  htim15.Init.AutoReloadPreload = TIM_AUTORELOAD_PRELOAD_ENABLE;
 80019aa:	2580      	movs	r5, #128	@ 0x80
 80019ac:	61a5      	str	r5, [r4, #24]
  if (HAL_TIM_PWM_Init(&htim15) != HAL_OK)
 80019ae:	f003 fb95 	bl	80050dc <HAL_TIM_PWM_Init>
 80019b2:	b108      	cbz	r0, 80019b8 <main+0x430>
 80019b4:	b672      	cpsid	i
  while (1)
 80019b6:	e7fe      	b.n	80019b6 <main+0x42e>
  sMasterConfig.MasterOutputTrigger = TIM_TRGO_RESET;
 80019b8:	9005      	str	r0, [sp, #20]
  sMasterConfig.MasterSlaveMode = TIM_MASTERSLAVEMODE_DISABLE;
 80019ba:	9007      	str	r0, [sp, #28]
  if (HAL_TIMEx_MasterConfigSynchronization(&htim15, &sMasterConfig) != HAL_OK)
 80019bc:	a905      	add	r1, sp, #20
 80019be:	4620      	mov	r0, r4
 80019c0:	f003 fd1e 	bl	8005400 <HAL_TIMEx_MasterConfigSynchronization>
 80019c4:	4602      	mov	r2, r0
 80019c6:	b108      	cbz	r0, 80019cc <main+0x444>
 80019c8:	b672      	cpsid	i
  while (1)
 80019ca:	e7fe      	b.n	80019ca <main+0x442>
  sConfigOC.OCMode = TIM_OCMODE_PWM1;
 80019cc:	f04f 0860 	mov.w	r8, #96	@ 0x60
  sConfigOC.Pulse = 0;
 80019d0:	e9cd 8008 	strd	r8, r0, [sp, #32]
  sConfigOC.OCNPolarity = TIM_OCNPOLARITY_HIGH;
 80019d4:	e9cd 000a 	strd	r0, r0, [sp, #40]	@ 0x28
  sConfigOC.OCIdleState = TIM_OCIDLESTATE_RESET;
 80019d8:	e9cd 000c 	strd	r0, r0, [sp, #48]	@ 0x30
  sConfigOC.OCNIdleState = TIM_OCNIDLESTATE_RESET;
 80019dc:	900e      	str	r0, [sp, #56]	@ 0x38
  if (HAL_TIM_PWM_ConfigChannel(&htim15, &sConfigOC, TIM_CHANNEL_1) != HAL_OK)
 80019de:	a908      	add	r1, sp, #32
 80019e0:	4620      	mov	r0, r4
 80019e2:	f003 fbef 	bl	80051c4 <HAL_TIM_PWM_ConfigChannel>
 80019e6:	b108      	cbz	r0, 80019ec <main+0x464>
 80019e8:	b672      	cpsid	i
  while (1)
 80019ea:	e7fe      	b.n	80019ea <main+0x462>
  sBreakDeadTimeConfig.BreakPolarity = TIM_BREAKPOLARITY_HIGH;
 80019ec:	f44f 5700 	mov.w	r7, #8192	@ 0x2000
  sBreakDeadTimeConfig.OffStateIDLEMode = TIM_OSSI_DISABLE;
 80019f0:	e9cd 000f 	strd	r0, r0, [sp, #60]	@ 0x3c
  sBreakDeadTimeConfig.DeadTime = 0;
 80019f4:	e9cd 0011 	strd	r0, r0, [sp, #68]	@ 0x44
  sBreakDeadTimeConfig.BreakFilter = 0;
 80019f8:	e9cd 7014 	strd	r7, r0, [sp, #80]	@ 0x50
  sBreakDeadTimeConfig.BreakState = TIM_BREAK_DISABLE;
 80019fc:	9013      	str	r0, [sp, #76]	@ 0x4c
  sBreakDeadTimeConfig.AutomaticOutput = TIM_AUTOMATICOUTPUT_DISABLE;
 80019fe:	901b      	str	r0, [sp, #108]	@ 0x6c
  if (HAL_TIMEx_ConfigBreakDeadTime(&htim15, &sBreakDeadTimeConfig) != HAL_OK)
 8001a00:	a90f      	add	r1, sp, #60	@ 0x3c
 8001a02:	4620      	mov	r0, r4
 8001a04:	f003 fd4c 	bl	80054a0 <HAL_TIMEx_ConfigBreakDeadTime>
 8001a08:	4681      	mov	r9, r0
 8001a0a:	b108      	cbz	r0, 8001a10 <main+0x488>
 8001a0c:	b672      	cpsid	i
  while (1)
 8001a0e:	e7fe      	b.n	8001a0e <main+0x486>
  HAL_TIM_MspPostInit(&htim15);
 8001a10:	4620      	mov	r0, r4
 8001a12:	f000 fc9d 	bl	8002350 <HAL_TIM_MspPostInit>
  TIM_OC_InitTypeDef sConfigOC = {0};
 8001a16:	221c      	movs	r2, #28
 8001a18:	4649      	mov	r1, r9
 8001a1a:	a808      	add	r0, sp, #32
 8001a1c:	f006 fc09 	bl	8008232 <memset>
  htim16.Instance = TIM16;
 8001a20:	4c44      	ldr	r4, [pc, #272]	@ (8001b34 <main+0x5ac>)
  TIM_BreakDeadTimeConfigTypeDef sBreakDeadTimeConfig = {0};
 8001a22:	2234      	movs	r2, #52	@ 0x34
 8001a24:	4649      	mov	r1, r9
 8001a26:	a80f      	add	r0, sp, #60	@ 0x3c
 8001a28:	f006 fc03 	bl	8008232 <memset>
  htim16.Instance = TIM16;
 8001a2c:	4b42      	ldr	r3, [pc, #264]	@ (8001b38 <main+0x5b0>)
  htim16.Init.AutoReloadPreload = TIM_AUTORELOAD_PRELOAD_ENABLE;
 8001a2e:	61a5      	str	r5, [r4, #24]
  if (HAL_TIM_Base_Init(&htim16) != HAL_OK)
 8001a30:	4620      	mov	r0, r4
  htim16.Init.Prescaler = 0;
 8001a32:	e9c4 3900 	strd	r3, r9, [r4]
  htim16.Init.Period = 65535;
 8001a36:	e9c4 9602 	strd	r9, r6, [r4, #8]
  htim16.Init.RepetitionCounter = 0;
 8001a3a:	e9c4 9904 	strd	r9, r9, [r4, #16]
  if (HAL_TIM_Base_Init(&htim16) != HAL_OK)
 8001a3e:	f003 fb1d 	bl	800507c <HAL_TIM_Base_Init>
 8001a42:	b108      	cbz	r0, 8001a48 <main+0x4c0>
 8001a44:	b672      	cpsid	i
  while (1)
 8001a46:	e7fe      	b.n	8001a46 <main+0x4be>
  if (HAL_TIM_PWM_Init(&htim16) != HAL_OK)
 8001a48:	4620      	mov	r0, r4
 8001a4a:	f003 fb47 	bl	80050dc <HAL_TIM_PWM_Init>
 8001a4e:	4602      	mov	r2, r0
 8001a50:	b108      	cbz	r0, 8001a56 <main+0x4ce>
 8001a52:	b672      	cpsid	i
  while (1)
 8001a54:	e7fe      	b.n	8001a54 <main+0x4cc>
  sConfigOC.Pulse = 0;
 8001a56:	e9cd 8008 	strd	r8, r0, [sp, #32]
  sConfigOC.OCNPolarity = TIM_OCNPOLARITY_HIGH;
 8001a5a:	e9cd 000a 	strd	r0, r0, [sp, #40]	@ 0x28
  sConfigOC.OCIdleState = TIM_OCIDLESTATE_RESET;
 8001a5e:	e9cd 000c 	strd	r0, r0, [sp, #48]	@ 0x30
  sConfigOC.OCNIdleState = TIM_OCNIDLESTATE_RESET;
 8001a62:	900e      	str	r0, [sp, #56]	@ 0x38
  if (HAL_TIM_PWM_ConfigChannel(&htim16, &sConfigOC, TIM_CHANNEL_1) != HAL_OK)
 8001a64:	a908      	add	r1, sp, #32
 8001a66:	4620      	mov	r0, r4
 8001a68:	f003 fbac 	bl	80051c4 <HAL_TIM_PWM_ConfigChannel>
 8001a6c:	b108      	cbz	r0, 8001a72 <main+0x4ea>
 8001a6e:	b672      	cpsid	i
  while (1)
 8001a70:	e7fe      	b.n	8001a70 <main+0x4e8>
  sBreakDeadTimeConfig.BreakPolarity = TIM_BREAKPOLARITY_HIGH;
 8001a72:	e9cd 0713 	strd	r0, r7, [sp, #76]	@ 0x4c
  sBreakDeadTimeConfig.OffStateIDLEMode = TIM_OSSI_DISABLE;
 8001a76:	e9cd 000f 	strd	r0, r0, [sp, #60]	@ 0x3c
  sBreakDeadTimeConfig.DeadTime = 0;
 8001a7a:	e9cd 0011 	strd	r0, r0, [sp, #68]	@ 0x44
  sBreakDeadTimeConfig.BreakFilter = 0;
 8001a7e:	9015      	str	r0, [sp, #84]	@ 0x54
  sBreakDeadTimeConfig.AutomaticOutput = TIM_AUTOMATICOUTPUT_DISABLE;
 8001a80:	901b      	str	r0, [sp, #108]	@ 0x6c
  if (HAL_TIMEx_ConfigBreakDeadTime(&htim16, &sBreakDeadTimeConfig) != HAL_OK)
 8001a82:	a90f      	add	r1, sp, #60	@ 0x3c
 8001a84:	4620      	mov	r0, r4
 8001a86:	f003 fd0b 	bl	80054a0 <HAL_TIMEx_ConfigBreakDeadTime>
 8001a8a:	4607      	mov	r7, r0
 8001a8c:	b108      	cbz	r0, 8001a92 <main+0x50a>
 8001a8e:	b672      	cpsid	i
  while (1)
 8001a90:	e7fe      	b.n	8001a90 <main+0x508>
  HAL_TIM_MspPostInit(&htim16);
 8001a92:	4620      	mov	r0, r4
 8001a94:	f000 fc5c 	bl	8002350 <HAL_TIM_MspPostInit>
  TIM_OC_InitTypeDef sConfigOC = {0};
 8001a98:	221c      	movs	r2, #28
 8001a9a:	4639      	mov	r1, r7
 8001a9c:	a808      	add	r0, sp, #32
 8001a9e:	f006 fbc8 	bl	8008232 <memset>
  htim17.Instance = TIM17;
 8001aa2:	4c26      	ldr	r4, [pc, #152]	@ (8001b3c <main+0x5b4>)
  TIM_BreakDeadTimeConfigTypeDef sBreakDeadTimeConfig = {0};
 8001aa4:	2234      	movs	r2, #52	@ 0x34
 8001aa6:	4639      	mov	r1, r7
 8001aa8:	a80f      	add	r0, sp, #60	@ 0x3c
 8001aaa:	f006 fbc2 	bl	8008232 <memset>
  htim17.Instance = TIM17;
 8001aae:	4b24      	ldr	r3, [pc, #144]	@ (8001b40 <main+0x5b8>)
  htim17.Init.AutoReloadPreload = TIM_AUTORELOAD_PRELOAD_ENABLE;
 8001ab0:	61a5      	str	r5, [r4, #24]
  if (HAL_TIM_Base_Init(&htim17) != HAL_OK)
 8001ab2:	4620      	mov	r0, r4
  htim17.Init.Prescaler = 0;
 8001ab4:	e9c4 3700 	strd	r3, r7, [r4]
  htim17.Init.Period = 65535;
 8001ab8:	e9c4 7602 	strd	r7, r6, [r4, #8]
  htim17.Init.RepetitionCounter = 0;
 8001abc:	e9c4 7704 	strd	r7, r7, [r4, #16]
  if (HAL_TIM_Base_Init(&htim17) != HAL_OK)
 8001ac0:	f003 fadc 	bl	800507c <HAL_TIM_Base_Init>
 8001ac4:	b108      	cbz	r0, 8001aca <main+0x542>
 8001ac6:	b672      	cpsid	i
  while (1)
 8001ac8:	e7fe      	b.n	8001ac8 <main+0x540>
  if (HAL_TIM_PWM_Init(&htim17) != HAL_OK)
 8001aca:	4620      	mov	r0, r4
 8001acc:	f003 fb06 	bl	80050dc <HAL_TIM_PWM_Init>
 8001ad0:	b108      	cbz	r0, 8001ad6 <main+0x54e>
 8001ad2:	b672      	cpsid	i
  while (1)
 8001ad4:	e7fe      	b.n	8001ad4 <main+0x54c>
  sConfigOC.Pulse = 0;
 8001ad6:	2200      	movs	r2, #0
 8001ad8:	2760      	movs	r7, #96	@ 0x60
  if (HAL_TIM_PWM_ConfigChannel(&htim17, &sConfigOC, TIM_CHANNEL_1) != HAL_OK)
 8001ada:	4818      	ldr	r0, [pc, #96]	@ (8001b3c <main+0x5b4>)
  sConfigOC.OCNIdleState = TIM_OCNIDLESTATE_RESET;
 8001adc:	920e      	str	r2, [sp, #56]	@ 0x38
  if (HAL_TIM_PWM_ConfigChannel(&htim17, &sConfigOC, TIM_CHANNEL_1) != HAL_OK)
 8001ade:	a908      	add	r1, sp, #32
  sConfigOC.Pulse = 0;
 8001ae0:	e9cd 7208 	strd	r7, r2, [sp, #32]
  sConfigOC.OCNPolarity = TIM_OCNPOLARITY_HIGH;
 8001ae4:	e9cd 220a 	strd	r2, r2, [sp, #40]	@ 0x28
  sConfigOC.OCIdleState = TIM_OCIDLESTATE_RESET;
 8001ae8:	e9cd 220c 	strd	r2, r2, [sp, #48]	@ 0x30
  if (HAL_TIM_PWM_ConfigChannel(&htim17, &sConfigOC, TIM_CHANNEL_1) != HAL_OK)
 8001aec:	f003 fb6a 	bl	80051c4 <HAL_TIM_PWM_ConfigChannel>
 8001af0:	b108      	cbz	r0, 8001af6 <main+0x56e>
 8001af2:	b672      	cpsid	i
  while (1)
 8001af4:	e7fe      	b.n	8001af4 <main+0x56c>
  sBreakDeadTimeConfig.BreakPolarity = TIM_BREAKPOLARITY_HIGH;
 8001af6:	f44f 5600 	mov.w	r6, #8192	@ 0x2000
  sBreakDeadTimeConfig.OffStateIDLEMode = TIM_OSSI_DISABLE;
 8001afa:	e9cd 000f 	strd	r0, r0, [sp, #60]	@ 0x3c
  sBreakDeadTimeConfig.DeadTime = 0;
 8001afe:	e9cd 0011 	strd	r0, r0, [sp, #68]	@ 0x44
  sBreakDeadTimeConfig.BreakFilter = 0;
 8001b02:	e9cd 6014 	strd	r6, r0, [sp, #80]	@ 0x50
  sBreakDeadTimeConfig.BreakState = TIM_BREAK_DISABLE;
 8001b06:	9013      	str	r0, [sp, #76]	@ 0x4c
  sBreakDeadTimeConfig.AutomaticOutput = TIM_AUTOMATICOUTPUT_DISABLE;
 8001b08:	901b      	str	r0, [sp, #108]	@ 0x6c
  if (HAL_TIMEx_ConfigBreakDeadTime(&htim17, &sBreakDeadTimeConfig) != HAL_OK)
 8001b0a:	a90f      	add	r1, sp, #60	@ 0x3c
 8001b0c:	480b      	ldr	r0, [pc, #44]	@ (8001b3c <main+0x5b4>)
 8001b0e:	f003 fcc7 	bl	80054a0 <HAL_TIMEx_ConfigBreakDeadTime>
 8001b12:	4605      	mov	r5, r0
 8001b14:	b1b0      	cbz	r0, 8001b44 <main+0x5bc>
 8001b16:	b672      	cpsid	i
  while (1)
 8001b18:	e7fe      	b.n	8001b18 <main+0x590>
 8001b1a:	bf00      	nop
 8001b1c:	200007b4 	.word	0x200007b4
 8001b20:	40000c00 	.word	0x40000c00
 8001b24:	200006d0 	.word	0x200006d0
 8001b28:	40013400 	.word	0x40013400
 8001b2c:	20000684 	.word	0x20000684
 8001b30:	40014000 	.word	0x40014000
 8001b34:	20000638 	.word	0x20000638
 8001b38:	40014400 	.word	0x40014400
 8001b3c:	200005ec 	.word	0x200005ec
 8001b40:	40014800 	.word	0x40014800
  HAL_TIM_MspPostInit(&htim17);
 8001b44:	48a4      	ldr	r0, [pc, #656]	@ (8001dd8 <main+0x850>)
  htim20.Instance = TIM20;
 8001b46:	4ca5      	ldr	r4, [pc, #660]	@ (8001ddc <main+0x854>)
  HAL_TIM_MspPostInit(&htim17);
 8001b48:	f000 fc02 	bl	8002350 <HAL_TIM_MspPostInit>
  TIM_OC_InitTypeDef sConfigOC = {0};
 8001b4c:	221c      	movs	r2, #28
 8001b4e:	4629      	mov	r1, r5
 8001b50:	a808      	add	r0, sp, #32
  TIM_MasterConfigTypeDef sMasterConfig = {0};
 8001b52:	e9cd 5505 	strd	r5, r5, [sp, #20]
 8001b56:	9507      	str	r5, [sp, #28]
  TIM_OC_InitTypeDef sConfigOC = {0};
 8001b58:	f006 fb6b 	bl	8008232 <memset>
  TIM_BreakDeadTimeConfigTypeDef sBreakDeadTimeConfig = {0};
 8001b5c:	2234      	movs	r2, #52	@ 0x34
 8001b5e:	4629      	mov	r1, r5
 8001b60:	a80f      	add	r0, sp, #60	@ 0x3c
 8001b62:	f006 fb66 	bl	8008232 <memset>
  htim20.Instance = TIM20;
 8001b66:	4b9e      	ldr	r3, [pc, #632]	@ (8001de0 <main+0x858>)
  htim20.Init.CounterMode = TIM_COUNTERMODE_UP;
 8001b68:	60a5      	str	r5, [r4, #8]
  htim20.Init.Prescaler = 0;
 8001b6a:	e9c4 3500 	strd	r3, r5, [r4]
  htim20.Init.Period = 65535;
 8001b6e:	f64f 73ff 	movw	r3, #65535	@ 0xffff
  htim20.Init.ClockDivision = TIM_CLOCKDIVISION_DIV1;
 8001b72:	e9c4 3503 	strd	r3, r5, [r4, #12]
  if (HAL_TIM_PWM_Init(&htim20) != HAL_OK)
 8001b76:	4620      	mov	r0, r4
  htim20.Init.AutoReloadPreload = TIM_AUTORELOAD_PRELOAD_ENABLE;
 8001b78:	2380      	movs	r3, #128	@ 0x80
  htim20.Init.RepetitionCounter = 0;
 8001b7a:	6165      	str	r5, [r4, #20]
  htim20.Init.AutoReloadPreload = TIM_AUTORELOAD_PRELOAD_ENABLE;
 8001b7c:	61a3      	str	r3, [r4, #24]
  if (HAL_TIM_PWM_Init(&htim20) != HAL_OK)
 8001b7e:	f003 faad 	bl	80050dc <HAL_TIM_PWM_Init>
 8001b82:	b108      	cbz	r0, 8001b88 <main+0x600>
 8001b84:	b672      	cpsid	i
  while (1)
 8001b86:	e7fe      	b.n	8001b86 <main+0x5fe>
  sMasterConfig.MasterOutputTrigger2 = TIM_TRGO2_RESET;
 8001b88:	e9cd 0005 	strd	r0, r0, [sp, #20]
  sMasterConfig.MasterSlaveMode = TIM_MASTERSLAVEMODE_DISABLE;
 8001b8c:	9007      	str	r0, [sp, #28]
  if (HAL_TIMEx_MasterConfigSynchronization(&htim20, &sMasterConfig) != HAL_OK)
 8001b8e:	a905      	add	r1, sp, #20
 8001b90:	4620      	mov	r0, r4
 8001b92:	f003 fc35 	bl	8005400 <HAL_TIMEx_MasterConfigSynchronization>
 8001b96:	4602      	mov	r2, r0
 8001b98:	b108      	cbz	r0, 8001b9e <main+0x616>
 8001b9a:	b672      	cpsid	i
  while (1)
 8001b9c:	e7fe      	b.n	8001b9c <main+0x614>
  sConfigOC.Pulse = 0;
 8001b9e:	e9cd 7008 	strd	r7, r0, [sp, #32]
  sConfigOC.OCNPolarity = TIM_OCNPOLARITY_HIGH;
 8001ba2:	e9cd 000a 	strd	r0, r0, [sp, #40]	@ 0x28
  sConfigOC.OCIdleState = TIM_OCIDLESTATE_RESET;
 8001ba6:	e9cd 000c 	strd	r0, r0, [sp, #48]	@ 0x30
  sConfigOC.OCNIdleState = TIM_OCNIDLESTATE_RESET;
 8001baa:	900e      	str	r0, [sp, #56]	@ 0x38
  if (HAL_TIM_PWM_ConfigChannel(&htim20, &sConfigOC, TIM_CHANNEL_1) != HAL_OK)
 8001bac:	a908      	add	r1, sp, #32
 8001bae:	4620      	mov	r0, r4
 8001bb0:	f003 fb08 	bl	80051c4 <HAL_TIM_PWM_ConfigChannel>
 8001bb4:	b108      	cbz	r0, 8001bba <main+0x632>
 8001bb6:	b672      	cpsid	i
  while (1)
 8001bb8:	e7fe      	b.n	8001bb8 <main+0x630>
  sBreakDeadTimeConfig.Break2Polarity = TIM_BREAK2POLARITY_HIGH;
 8001bba:	f04f 7300 	mov.w	r3, #33554432	@ 0x2000000
  sBreakDeadTimeConfig.OffStateIDLEMode = TIM_OSSI_DISABLE;
 8001bbe:	e9cd 000f 	strd	r0, r0, [sp, #60]	@ 0x3c
  sBreakDeadTimeConfig.DeadTime = 0;
 8001bc2:	e9cd 0011 	strd	r0, r0, [sp, #68]	@ 0x44
  sBreakDeadTimeConfig.BreakPolarity = TIM_BREAKPOLARITY_HIGH;
 8001bc6:	e9cd 0613 	strd	r0, r6, [sp, #76]	@ 0x4c
  sBreakDeadTimeConfig.BreakAFMode = TIM_BREAK_AFMODE_INPUT;
 8001bca:	e9cd 0015 	strd	r0, r0, [sp, #84]	@ 0x54
  sBreakDeadTimeConfig.Break2Filter = 0;
 8001bce:	e9cd 3018 	strd	r3, r0, [sp, #96]	@ 0x60
  sBreakDeadTimeConfig.AutomaticOutput = TIM_AUTOMATICOUTPUT_DISABLE;
 8001bd2:	e9cd 001a 	strd	r0, r0, [sp, #104]	@ 0x68
  sBreakDeadTimeConfig.Break2State = TIM_BREAK2_DISABLE;
 8001bd6:	9017      	str	r0, [sp, #92]	@ 0x5c
  if (HAL_TIMEx_ConfigBreakDeadTime(&htim20, &sBreakDeadTimeConfig) != HAL_OK)
 8001bd8:	a90f      	add	r1, sp, #60	@ 0x3c
 8001bda:	4620      	mov	r0, r4
 8001bdc:	f003 fc60 	bl	80054a0 <HAL_TIMEx_ConfigBreakDeadTime>
 8001be0:	4605      	mov	r5, r0
 8001be2:	b108      	cbz	r0, 8001be8 <main+0x660>
 8001be4:	b672      	cpsid	i
  while (1)
 8001be6:	e7fe      	b.n	8001be6 <main+0x65e>
  HAL_TIM_MspPostInit(&htim20);
 8001be8:	4620      	mov	r0, r4
  huart1.Init.BaudRate = 115200;
 8001bea:	4e7e      	ldr	r6, [pc, #504]	@ (8001de4 <main+0x85c>)
  huart1.Instance = USART1;
 8001bec:	4c7e      	ldr	r4, [pc, #504]	@ (8001de8 <main+0x860>)
  HAL_TIM_MspPostInit(&htim20);
 8001bee:	f000 fbaf 	bl	8002350 <HAL_TIM_MspPostInit>
  MX_USB_Device_Init();
 8001bf2:	f005 fb81 	bl	80072f8 <MX_USB_Device_Init>
  huart1.Init.BaudRate = 115200;
 8001bf6:	f44f 33e1 	mov.w	r3, #115200	@ 0x1c200
 8001bfa:	e9c4 6300 	strd	r6, r3, [r4]
  if (HAL_UART_Init(&huart1) != HAL_OK)
 8001bfe:	4620      	mov	r0, r4
  huart1.Init.Mode = UART_MODE_TX_RX;
 8001c00:	230c      	movs	r3, #12
  huart1.Init.StopBits = UART_STOPBITS_1;
 8001c02:	e9c4 5502 	strd	r5, r5, [r4, #8]
  huart1.Init.HwFlowCtl = UART_HWCONTROL_NONE;
 8001c06:	e9c4 3505 	strd	r3, r5, [r4, #20]
  huart1.Init.OneBitSampling = UART_ONE_BIT_SAMPLE_DISABLE;
 8001c0a:	e9c4 5507 	strd	r5, r5, [r4, #28]
  huart1.AdvancedInit.AdvFeatureInit = UART_ADVFEATURE_NO_INIT;
 8001c0e:	e9c4 5509 	strd	r5, r5, [r4, #36]	@ 0x24
  huart1.Init.Parity = UART_PARITY_NONE;
 8001c12:	6125      	str	r5, [r4, #16]
  if (HAL_UART_Init(&huart1) != HAL_OK)
 8001c14:	f004 f877 	bl	8005d06 <HAL_UART_Init>
 8001c18:	4601      	mov	r1, r0
 8001c1a:	b108      	cbz	r0, 8001c20 <main+0x698>
 8001c1c:	b672      	cpsid	i
  while (1)
 8001c1e:	e7fe      	b.n	8001c1e <main+0x696>
  if (HAL_UARTEx_SetTxFifoThreshold(&huart1, UART_TXFIFO_THRESHOLD_1_8) != HAL_OK)
 8001c20:	4620      	mov	r0, r4
 8001c22:	f004 f8e1 	bl	8005de8 <HAL_UARTEx_SetTxFifoThreshold>
 8001c26:	4601      	mov	r1, r0
 8001c28:	b108      	cbz	r0, 8001c2e <main+0x6a6>
 8001c2a:	b672      	cpsid	i
  while (1)
 8001c2c:	e7fe      	b.n	8001c2c <main+0x6a4>
  if (HAL_UARTEx_SetRxFifoThreshold(&huart1, UART_RXFIFO_THRESHOLD_1_8) != HAL_OK)
 8001c2e:	4620      	mov	r0, r4
 8001c30:	f004 f8fa 	bl	8005e28 <HAL_UARTEx_SetRxFifoThreshold>
 8001c34:	b108      	cbz	r0, 8001c3a <main+0x6b2>
 8001c36:	b672      	cpsid	i
  while (1)
 8001c38:	e7fe      	b.n	8001c38 <main+0x6b0>
  if (HAL_UARTEx_DisableFifoMode(&huart1) != HAL_OK)
 8001c3a:	4620      	mov	r0, r4
 8001c3c:	f004 f8b9 	bl	8005db2 <HAL_UARTEx_DisableFifoMode>
 8001c40:	b108      	cbz	r0, 8001c46 <main+0x6be>
 8001c42:	b672      	cpsid	i
  while (1)
 8001c44:	e7fe      	b.n	8001c44 <main+0x6bc>
  htim6.Instance = TIM6;
 8001c46:	4c69      	ldr	r4, [pc, #420]	@ (8001dec <main+0x864>)
  htim6.Init.Prescaler = 900;
 8001c48:	4d69      	ldr	r5, [pc, #420]	@ (8001df0 <main+0x868>)
  TIM_MasterConfigTypeDef sMasterConfig = {0};
 8001c4a:	2300      	movs	r3, #0
  htim6.Init.Prescaler = 900;
 8001c4c:	f44f 7261 	mov.w	r2, #900	@ 0x384
  htim6.Init.Period = 65535;
 8001c50:	f64f 76ff 	movw	r6, #65535	@ 0xffff
  if (HAL_TIM_Base_Init(&htim6) != HAL_OK)
 8001c54:	4620      	mov	r0, r4
  TIM_MasterConfigTypeDef sMasterConfig = {0};
 8001c56:	e9cd 330f 	strd	r3, r3, [sp, #60]	@ 0x3c
  htim6.Init.Prescaler = 900;
 8001c5a:	e9c4 5200 	strd	r5, r2, [r4]
  TIM_MasterConfigTypeDef sMasterConfig = {0};
 8001c5e:	9311      	str	r3, [sp, #68]	@ 0x44
  htim6.Init.CounterMode = TIM_COUNTERMODE_UP;
 8001c60:	60a3      	str	r3, [r4, #8]
  htim6.Init.Period = 65535;
 8001c62:	60e6      	str	r6, [r4, #12]
  htim6.Init.AutoReloadPreload = TIM_AUTORELOAD_PRELOAD_DISABLE;
 8001c64:	61a3      	str	r3, [r4, #24]
  if (HAL_TIM_Base_Init(&htim6) != HAL_OK)
 8001c66:	f003 fa09 	bl	800507c <HAL_TIM_Base_Init>
 8001c6a:	b108      	cbz	r0, 8001c70 <main+0x6e8>
 8001c6c:	b672      	cpsid	i
  while (1)
 8001c6e:	e7fe      	b.n	8001c6e <main+0x6e6>
  sMasterConfig.MasterOutputTrigger = TIM_TRGO_RESET;
 8001c70:	900f      	str	r0, [sp, #60]	@ 0x3c
  sMasterConfig.MasterSlaveMode = TIM_MASTERSLAVEMODE_DISABLE;
 8001c72:	9011      	str	r0, [sp, #68]	@ 0x44
  if (HAL_TIMEx_MasterConfigSynchronization(&htim6, &sMasterConfig) != HAL_OK)
 8001c74:	a90f      	add	r1, sp, #60	@ 0x3c
 8001c76:	4620      	mov	r0, r4
 8001c78:	f003 fbc2 	bl	8005400 <HAL_TIMEx_MasterConfigSynchronization>
 8001c7c:	4604      	mov	r4, r0
 8001c7e:	b108      	cbz	r0, 8001c84 <main+0x6fc>
 8001c80:	b672      	cpsid	i
  while (1)
 8001c82:	e7fe      	b.n	8001c82 <main+0x6fa>
  HAL_NVIC_SetPriority(TIM6_DAC_IRQn, 0, 0);
 8001c84:	4602      	mov	r2, r0
 8001c86:	4601      	mov	r1, r0
 8001c88:	2036      	movs	r0, #54	@ 0x36
 8001c8a:	f000 fe91 	bl	80029b0 <HAL_NVIC_SetPriority>
  HAL_NVIC_EnableIRQ(TIM6_DAC_IRQn);
 8001c8e:	2036      	movs	r0, #54	@ 0x36
 8001c90:	f000 fec0 	bl	8002a14 <HAL_NVIC_EnableIRQ>
  htim7.Instance = TIM7;
 8001c94:	4d57      	ldr	r5, [pc, #348]	@ (8001df4 <main+0x86c>)
  htim7.Init.Prescaler = 850;
 8001c96:	4858      	ldr	r0, [pc, #352]	@ (8001df8 <main+0x870>)
  TIM_MasterConfigTypeDef sMasterConfig = {0};
 8001c98:	9411      	str	r4, [sp, #68]	@ 0x44
  htim7.Init.Prescaler = 850;
 8001c9a:	f240 3352 	movw	r3, #850	@ 0x352
 8001c9e:	e9c5 0300 	strd	r0, r3, [r5]
  if (HAL_TIM_Base_Init(&htim7) != HAL_OK)
 8001ca2:	4628      	mov	r0, r5
  TIM_MasterConfigTypeDef sMasterConfig = {0};
 8001ca4:	e9cd 440f 	strd	r4, r4, [sp, #60]	@ 0x3c
  htim7.Init.Period = 65535;
 8001ca8:	e9c5 4602 	strd	r4, r6, [r5, #8]
  htim7.Init.AutoReloadPreload = TIM_AUTORELOAD_PRELOAD_DISABLE;
 8001cac:	61ac      	str	r4, [r5, #24]
  if (HAL_TIM_Base_Init(&htim7) != HAL_OK)
 8001cae:	f003 f9e5 	bl	800507c <HAL_TIM_Base_Init>
 8001cb2:	b108      	cbz	r0, 8001cb8 <main+0x730>
 8001cb4:	b672      	cpsid	i
  while (1)
 8001cb6:	e7fe      	b.n	8001cb6 <main+0x72e>
  sMasterConfig.MasterOutputTrigger = TIM_TRGO_RESET;
 8001cb8:	900f      	str	r0, [sp, #60]	@ 0x3c
  sMasterConfig.MasterSlaveMode = TIM_MASTERSLAVEMODE_DISABLE;
 8001cba:	9011      	str	r0, [sp, #68]	@ 0x44
  if (HAL_TIMEx_MasterConfigSynchronization(&htim7, &sMasterConfig) != HAL_OK)
 8001cbc:	a90f      	add	r1, sp, #60	@ 0x3c
 8001cbe:	4628      	mov	r0, r5
 8001cc0:	f003 fb9e 	bl	8005400 <HAL_TIMEx_MasterConfigSynchronization>
 8001cc4:	b108      	cbz	r0, 8001cca <main+0x742>
 8001cc6:	b672      	cpsid	i
  while (1)
 8001cc8:	e7fe      	b.n	8001cc8 <main+0x740>
  hi2c1.Instance = I2C1;
 8001cca:	4c4c      	ldr	r4, [pc, #304]	@ (8001dfc <main+0x874>)
  hi2c1.Init.Timing = 0x00805C87;
 8001ccc:	494c      	ldr	r1, [pc, #304]	@ (8001e00 <main+0x878>)
 8001cce:	4b4d      	ldr	r3, [pc, #308]	@ (8001e04 <main+0x87c>)
  hi2c1.Init.OwnAddress1 = 0;
 8001cd0:	60a0      	str	r0, [r4, #8]
  hi2c1.Init.Timing = 0x00805C87;
 8001cd2:	e9c4 1300 	strd	r1, r3, [r4]
  hi2c1.Init.AddressingMode = I2C_ADDRESSINGMODE_7BIT;
 8001cd6:	2301      	movs	r3, #1
  hi2c1.Init.DualAddressMode = I2C_DUALADDRESS_DISABLE;
 8001cd8:	e9c4 3003 	strd	r3, r0, [r4, #12]
  hi2c1.Init.OwnAddress2Masks = I2C_OA2_NOMASK;
 8001cdc:	e9c4 0005 	strd	r0, r0, [r4, #20]
  hi2c1.Init.NoStretchMode = I2C_NOSTRETCH_DISABLE;
 8001ce0:	e9c4 0007 	strd	r0, r0, [r4, #28]
  if (HAL_I2C_Init(&hi2c1) != HAL_OK)
 8001ce4:	4620      	mov	r0, r4
 8001ce6:	f001 f989 	bl	8002ffc <HAL_I2C_Init>
 8001cea:	4601      	mov	r1, r0
 8001cec:	b108      	cbz	r0, 8001cf2 <main+0x76a>
 8001cee:	b672      	cpsid	i
  while (1)
 8001cf0:	e7fe      	b.n	8001cf0 <main+0x768>
  if (HAL_I2CEx_ConfigAnalogFilter(&hi2c1, I2C_ANALOGFILTER_ENABLE) != HAL_OK)
 8001cf2:	4620      	mov	r0, r4
 8001cf4:	f001 fb1e 	bl	8003334 <HAL_I2CEx_ConfigAnalogFilter>
 8001cf8:	4601      	mov	r1, r0
 8001cfa:	b108      	cbz	r0, 8001d00 <main+0x778>
 8001cfc:	b672      	cpsid	i
  while (1)
 8001cfe:	e7fe      	b.n	8001cfe <main+0x776>
  if (HAL_I2CEx_ConfigDigitalFilter(&hi2c1, 0) != HAL_OK)
 8001d00:	4620      	mov	r0, r4
 8001d02:	f001 fb3d 	bl	8003380 <HAL_I2CEx_ConfigDigitalFilter>
 8001d06:	b108      	cbz	r0, 8001d0c <main+0x784>
 8001d08:	b672      	cpsid	i
  while (1)
 8001d0a:	e7fe      	b.n	8001d0a <main+0x782>
  huart2.Instance = USART2;
 8001d0c:	4c3e      	ldr	r4, [pc, #248]	@ (8001e08 <main+0x880>)
  huart2.Init.BaudRate = 115200;
 8001d0e:	4a3f      	ldr	r2, [pc, #252]	@ (8001e0c <main+0x884>)
  huart2.Init.Parity = UART_PARITY_NONE;
 8001d10:	6120      	str	r0, [r4, #16]
  huart2.Init.BaudRate = 115200;
 8001d12:	f44f 33e1 	mov.w	r3, #115200	@ 0x1c200
 8001d16:	e9c4 2300 	strd	r2, r3, [r4]
  huart2.Init.Mode = UART_MODE_TX_RX;
 8001d1a:	230c      	movs	r3, #12
  huart2.Init.StopBits = UART_STOPBITS_1;
 8001d1c:	e9c4 0002 	strd	r0, r0, [r4, #8]
  huart2.Init.HwFlowCtl = UART_HWCONTROL_NONE;
 8001d20:	e9c4 3005 	strd	r3, r0, [r4, #20]
  huart2.Init.OneBitSampling = UART_ONE_BIT_SAMPLE_DISABLE;
 8001d24:	e9c4 0007 	strd	r0, r0, [r4, #28]
  huart2.AdvancedInit.AdvFeatureInit = UART_ADVFEATURE_NO_INIT;
 8001d28:	e9c4 0009 	strd	r0, r0, [r4, #36]	@ 0x24
  if (HAL_UART_Init(&huart2) != HAL_OK)
 8001d2c:	4620      	mov	r0, r4
 8001d2e:	f003 ffea 	bl	8005d06 <HAL_UART_Init>
 8001d32:	4601      	mov	r1, r0
 8001d34:	b108      	cbz	r0, 8001d3a <main+0x7b2>
 8001d36:	b672      	cpsid	i
  while (1)
 8001d38:	e7fe      	b.n	8001d38 <main+0x7b0>
  if (HAL_UARTEx_SetTxFifoThreshold(&huart2, UART_TXFIFO_THRESHOLD_1_8) != HAL_OK)
 8001d3a:	4620      	mov	r0, r4
 8001d3c:	f004 f854 	bl	8005de8 <HAL_UARTEx_SetTxFifoThreshold>
 8001d40:	4601      	mov	r1, r0
 8001d42:	b108      	cbz	r0, 8001d48 <main+0x7c0>
 8001d44:	b672      	cpsid	i
  while (1)
 8001d46:	e7fe      	b.n	8001d46 <main+0x7be>
  if (HAL_UARTEx_SetRxFifoThreshold(&huart2, UART_RXFIFO_THRESHOLD_1_8) != HAL_OK)
 8001d48:	4620      	mov	r0, r4
 8001d4a:	f004 f86d 	bl	8005e28 <HAL_UARTEx_SetRxFifoThreshold>
 8001d4e:	b108      	cbz	r0, 8001d54 <main+0x7cc>
 8001d50:	b672      	cpsid	i
  while (1)
 8001d52:	e7fe      	b.n	8001d52 <main+0x7ca>
  if (HAL_UARTEx_DisableFifoMode(&huart2) != HAL_OK)
 8001d54:	482c      	ldr	r0, [pc, #176]	@ (8001e08 <main+0x880>)
 8001d56:	f004 f82c 	bl	8005db2 <HAL_UARTEx_DisableFifoMode>
 8001d5a:	4604      	mov	r4, r0
 8001d5c:	b108      	cbz	r0, 8001d62 <main+0x7da>
 8001d5e:	b672      	cpsid	i
  while (1)
 8001d60:	e7fe      	b.n	8001d60 <main+0x7d8>
  Motor_Init(&state); //start pwms for motors, torpedo, dropper, and grabber
 8001d62:	482b      	ldr	r0, [pc, #172]	@ (8001e10 <main+0x888>)
 8001d64:	f000 f8d8 	bl	8001f18 <Motor_Init>
  Torpedo_Init(&state);
 8001d68:	4829      	ldr	r0, [pc, #164]	@ (8001e10 <main+0x888>)
 8001d6a:	f000 fd2f 	bl	80027cc <Torpedo_Init>
  Dropper_Init(&state);
 8001d6e:	4828      	ldr	r0, [pc, #160]	@ (8001e10 <main+0x888>)
 8001d70:	f7ff fb8a 	bl	8001488 <Dropper_Init>
  HAL_GPIO_WritePin(GPIOC, LED_BLUE_Pin|LED_GREEN_Pin|LED_RED_Pin, GPIO_PIN_RESET); //fires external LEDS
 8001d74:	f44f 4160 	mov.w	r1, #57344	@ 0xe000
 8001d78:	4826      	ldr	r0, [pc, #152]	@ (8001e14 <main+0x88c>)
 8001d7a:	4622      	mov	r2, r4
 8001d7c:	f000 ffaa 	bl	8002cd4 <HAL_GPIO_WritePin>
  HAL_TIM_Base_Start_IT(&htim6); //idk remmember what this does
 8001d80:	481a      	ldr	r0, [pc, #104]	@ (8001dec <main+0x864>)
 8001d82:	f003 f809 	bl	8004d98 <HAL_TIM_Base_Start_IT>
  if (Depth_Sensor_Init(&hi2c1, &state) != HAL_OK)
 8001d86:	4922      	ldr	r1, [pc, #136]	@ (8001e10 <main+0x888>)
 8001d88:	481c      	ldr	r0, [pc, #112]	@ (8001dfc <main+0x874>)
 8001d8a:	f7ff f997 	bl	80010bc <Depth_Sensor_Init>
 8001d8e:	b150      	cbz	r0, 8001da6 <main+0x81e>
      strcpy((char*)usb_tx_buffer, "Depth sensor init failed!\r\n");
 8001d90:	4921      	ldr	r1, [pc, #132]	@ (8001e18 <main+0x890>)
 8001d92:	4822      	ldr	r0, [pc, #136]	@ (8001e1c <main+0x894>)
 8001d94:	f006 facd 	bl	8008332 <strcpy>
      CDC_Transmit_FS((uint8_t *)usb_tx_buffer, strlen((char*)usb_tx_buffer));
 8001d98:	4820      	ldr	r0, [pc, #128]	@ (8001e1c <main+0x894>)
 8001d9a:	f7fe fa91 	bl	80002c0 <strlen>
 8001d9e:	b281      	uxth	r1, r0
 8001da0:	481e      	ldr	r0, [pc, #120]	@ (8001e1c <main+0x894>)
 8001da2:	f005 fb0b 	bl	80073bc <CDC_Transmit_FS>
	  USB_Manager_Update(&state); //checks connection
 8001da6:	4c1a      	ldr	r4, [pc, #104]	@ (8001e10 <main+0x888>)
 8001da8:	4620      	mov	r0, r4
 8001daa:	f000 fd4b 	bl	8002844 <USB_Manager_Update>
	  RGB_LED_Update(&state); //cosmetic update
 8001dae:	4620      	mov	r0, r4
 8001db0:	f000 f8de 	bl	8001f70 <RGB_LED_Update>
	  Safety_Manager_Update(&state); //check kill states
 8001db4:	4620      	mov	r0, r4
 8001db6:	f000 f937 	bl	8002028 <Safety_Manager_Update>
	  Motor_Update(); //apply motor commands
 8001dba:	f000 f84d 	bl	8001e58 <Motor_Update>
	  Dropper_Update(); //apply dropper commands
 8001dbe:	f7ff fb73 	bl	80014a8 <Dropper_Update>
	  Torpedo_Update(); //apply torpedo commands
 8001dc2:	f000 fd13 	bl	80027ec <Torpedo_Update>
	  Button_Update(&state); //handle button input
 8001dc6:	4620      	mov	r0, r4
 8001dc8:	f7ff f8ac 	bl	8000f24 <Button_Update>
	  Power_Down(&state); //power off if flagged by button or ORIN input
 8001dcc:	4620      	mov	r0, r4
 8001dce:	f000 f8c1 	bl	8001f54 <Power_Down>
	  Depth_Sensor_Update(); //
 8001dd2:	f7ff f9fb 	bl	80011cc <Depth_Sensor_Update>
  while (1)
 8001dd6:	e7e7      	b.n	8001da8 <main+0x820>
 8001dd8:	200005ec 	.word	0x200005ec
 8001ddc:	200005a0 	.word	0x200005a0
 8001de0:	40015000 	.word	0x40015000
 8001de4:	40013800 	.word	0x40013800
 8001de8:	2000050c 	.word	0x2000050c
 8001dec:	20000768 	.word	0x20000768
 8001df0:	40001000 	.word	0x40001000
 8001df4:	2000071c 	.word	0x2000071c
 8001df8:	40001400 	.word	0x40001400
 8001dfc:	20000930 	.word	0x20000930
 8001e00:	40005400 	.word	0x40005400
 8001e04:	00805c87 	.word	0x00805c87
 8001e08:	20000478 	.word	0x20000478
 8001e0c:	40004400 	.word	0x40004400
 8001e10:	200003ec 	.word	0x200003ec
 8001e14:	48000800 	.word	0x48000800
 8001e18:	0800a0a8 	.word	0x0800a0a8
 8001e1c:	20000001 	.word	0x20000001

08001e20 <HAL_TIM_PeriodElapsedCallback>:
	if (htim->Instance == TIM6) { // check if the timer 6 was the one that overflowed
 8001e20:	6802      	ldr	r2, [r0, #0]
 8001e22:	4b03      	ldr	r3, [pc, #12]	@ (8001e30 <HAL_TIM_PeriodElapsedCallback+0x10>)
 8001e24:	429a      	cmp	r2, r3
 8001e26:	d101      	bne.n	8001e2c <HAL_TIM_PeriodElapsedCallback+0xc>
		Button_TimerCallback();
 8001e28:	f7ff b8e6 	b.w	8000ff8 <Button_TimerCallback>
}
 8001e2c:	4770      	bx	lr
 8001e2e:	bf00      	nop
 8001e30:	40001000 	.word	0x40001000

08001e34 <Error_Handler>:
 8001e34:	b672      	cpsid	i
  while (1)
 8001e36:	e7fe      	b.n	8001e36 <Error_Handler+0x2>

08001e38 <Set_Motors_Neutral>:
	Start_PWMS();
	Motor_Start_Arming();
}

static void Set_Motors_Neutral(void){
	for(uint8_t i = 0; i < NUM_MOTORS; i++){
 8001e38:	4a06      	ldr	r2, [pc, #24]	@ (8001e54 <Set_Motors_Neutral+0x1c>)
static void Set_Motors_Neutral(void){
 8001e3a:	2308      	movs	r3, #8
		__HAL_TIM_SET_COMPARE(motorTimers[i], TIM_CHANNEL_1, MOTOR_NEUTRAL);
 8001e3c:	f648 409f 	movw	r0, #35999	@ 0x8c9f
 8001e40:	f852 1b04 	ldr.w	r1, [r2], #4
	for(uint8_t i = 0; i < NUM_MOTORS; i++){
 8001e44:	3b01      	subs	r3, #1
		__HAL_TIM_SET_COMPARE(motorTimers[i], TIM_CHANNEL_1, MOTOR_NEUTRAL);
 8001e46:	6809      	ldr	r1, [r1, #0]
	for(uint8_t i = 0; i < NUM_MOTORS; i++){
 8001e48:	f013 03ff 	ands.w	r3, r3, #255	@ 0xff
		__HAL_TIM_SET_COMPARE(motorTimers[i], TIM_CHANNEL_1, MOTOR_NEUTRAL);
 8001e4c:	6348      	str	r0, [r1, #52]	@ 0x34
	for(uint8_t i = 0; i < NUM_MOTORS; i++){
 8001e4e:	d1f7      	bne.n	8001e40 <Set_Motors_Neutral+0x8>
	}
}
 8001e50:	4770      	bx	lr
 8001e52:	bf00      	nop
 8001e54:	0800a278 	.word	0x0800a278

08001e58 <Motor_Update>:

void Motor_Update(void)
{
 8001e58:	b5f8      	push	{r3, r4, r5, r6, r7, lr}
    switch(motorState)
 8001e5a:	4c1f      	ldr	r4, [pc, #124]	@ (8001ed8 <Motor_Update+0x80>)
 8001e5c:	7823      	ldrb	r3, [r4, #0]
 8001e5e:	2b01      	cmp	r3, #1
 8001e60:	d00e      	beq.n	8001e80 <Motor_Update+0x28>
 8001e62:	2b02      	cmp	r3, #2
 8001e64:	d033      	beq.n	8001ece <Motor_Update+0x76>
 8001e66:	b953      	cbnz	r3, 8001e7e <Motor_Update+0x26>
    {
        case MOTOR_STATE_ARMING:

            if((HAL_GetTick() - armingStartTime) >= ESC_ARM_TIME_MS)
 8001e68:	f000 fd76 	bl	8002958 <HAL_GetTick>
 8001e6c:	4b1b      	ldr	r3, [pc, #108]	@ (8001edc <Motor_Update+0x84>)
 8001e6e:	681b      	ldr	r3, [r3, #0]
 8001e70:	1ac0      	subs	r0, r0, r3
 8001e72:	f640 33b7 	movw	r3, #2999	@ 0xbb7
 8001e76:	4298      	cmp	r0, r3
 8001e78:	d901      	bls.n	8001e7e <Motor_Update+0x26>
            {
                motorState = MOTOR_STATE_READY;
 8001e7a:	2301      	movs	r3, #1
 8001e7c:	7023      	strb	r3, [r4, #0]
            break;

        default:
            break;
    }
}
 8001e7e:	bdf8      	pop	{r3, r4, r5, r6, r7, pc}
        	state.motorsArming = 0; //LED stops flashing
 8001e80:	4b17      	ldr	r3, [pc, #92]	@ (8001ee0 <Motor_Update+0x88>)
 8001e82:	4c18      	ldr	r4, [pc, #96]	@ (8001ee4 <Motor_Update+0x8c>)
 8001e84:	2200      	movs	r2, #0
 8001e86:	f883 2041 	strb.w	r2, [r3, #65]	@ 0x41
    }
}

static void Motor_Apply_Commands(void){
	for(uint8_t i = 0; i < NUM_MOTORS; i++){
		Set_Motor_PWM(motorTimers[i], systemState->motorValues[i]);
 8001e8a:	4b17      	ldr	r3, [pc, #92]	@ (8001ee8 <Motor_Update+0x90>)
 8001e8c:	681a      	ldr	r2, [r3, #0]
    if((value > MOTOR_RANGE_MAX) || (value < -MOTOR_RANGE_MAX)) //if motor values exceed motor range set to neutral
 8001e8e:	f242 1534 	movw	r5, #8500	@ 0x2134
 8001e92:	1f11      	subs	r1, r2, #4
 8001e94:	f244 2668 	movw	r6, #17000	@ 0x4268
 8001e98:	321c      	adds	r2, #28
        __HAL_TIM_SET_COMPARE(htim, TIM_CHANNEL_1, MOTOR_NEUTRAL);
 8001e9a:	f648 479f 	movw	r7, #35999	@ 0x8c9f
        __HAL_TIM_SET_COMPARE(htim, TIM_CHANNEL_1, MOTOR_NEUTRAL + MOTOR_DEADBAND + value);
 8001e9e:	f648 7c8d 	movw	ip, #36749	@ 0x8f8d
		Set_Motor_PWM(motorTimers[i], systemState->motorValues[i]);
 8001ea2:	f851 3f04 	ldr.w	r3, [r1, #4]!
 8001ea6:	f854 0b04 	ldr.w	r0, [r4], #4
    if((value > MOTOR_RANGE_MAX) || (value < -MOTOR_RANGE_MAX)) //if motor values exceed motor range set to neutral
 8001eaa:	eb03 0e05 	add.w	lr, r3, r5
 8001eae:	45b6      	cmp	lr, r6
        __HAL_TIM_SET_COMPARE(htim, TIM_CHANNEL_1, MOTOR_NEUTRAL + MOTOR_DEADBAND + value);
 8001eb0:	6800      	ldr	r0, [r0, #0]
    if((value > MOTOR_RANGE_MAX) || (value < -MOTOR_RANGE_MAX)) //if motor values exceed motor range set to neutral
 8001eb2:	d801      	bhi.n	8001eb8 <Motor_Update+0x60>
    if(value == 0) //neutral
 8001eb4:	2b00      	cmp	r3, #0
 8001eb6:	d103      	bne.n	8001ec0 <Motor_Update+0x68>
        __HAL_TIM_SET_COMPARE(htim, TIM_CHANNEL_1, MOTOR_NEUTRAL);
 8001eb8:	6347      	str	r7, [r0, #52]	@ 0x34
	for(uint8_t i = 0; i < NUM_MOTORS; i++){
 8001eba:	4291      	cmp	r1, r2
 8001ebc:	d1f1      	bne.n	8001ea2 <Motor_Update+0x4a>
 8001ebe:	e7de      	b.n	8001e7e <Motor_Update+0x26>
        __HAL_TIM_SET_COMPARE(htim, TIM_CHANNEL_1, MOTOR_NEUTRAL - MOTOR_DEADBAND + value);
 8001ec0:	bfd6      	itet	le
 8001ec2:	f503 4309 	addle.w	r3, r3, #35072	@ 0x8900
        __HAL_TIM_SET_COMPARE(htim, TIM_CHANNEL_1, MOTOR_NEUTRAL + MOTOR_DEADBAND + value);
 8001ec6:	4463      	addgt	r3, ip
        __HAL_TIM_SET_COMPARE(htim, TIM_CHANNEL_1, MOTOR_NEUTRAL - MOTOR_DEADBAND + value);
 8001ec8:	33b1      	addle	r3, #177	@ 0xb1
 8001eca:	6343      	str	r3, [r0, #52]	@ 0x34
 8001ecc:	e7f5      	b.n	8001eba <Motor_Update+0x62>
}
 8001ece:	e8bd 40f8 	ldmia.w	sp!, {r3, r4, r5, r6, r7, lr}
        	Set_Motors_Neutral();
 8001ed2:	f7ff bfb1 	b.w	8001e38 <Set_Motors_Neutral>
 8001ed6:	bf00      	nop
 8001ed8:	2000098c 	.word	0x2000098c
 8001edc:	20000988 	.word	0x20000988
 8001ee0:	200003ec 	.word	0x200003ec
 8001ee4:	0800a278 	.word	0x0800a278
 8001ee8:	20000984 	.word	0x20000984

08001eec <Motor_Start_Arming>:
	for(uint8_t i = 0; i < NUM_MOTORS; i++){
		HAL_TIM_PWM_Start(motorTimers[i], TIM_CHANNEL_1);
	}
}

void Motor_Start_Arming(void){
 8001eec:	b508      	push	{r3, lr}
	Set_Motors_Neutral();
 8001eee:	f7ff ffa3 	bl	8001e38 <Set_Motors_Neutral>

	motorState = MOTOR_STATE_ARMING;
 8001ef2:	4b06      	ldr	r3, [pc, #24]	@ (8001f0c <Motor_Start_Arming+0x20>)
 8001ef4:	2200      	movs	r2, #0
 8001ef6:	701a      	strb	r2, [r3, #0]
	armingStartTime = HAL_GetTick();  //use ticks instead of delays to allow other code to keep running
 8001ef8:	f000 fd2e 	bl	8002958 <HAL_GetTick>
 8001efc:	4b04      	ldr	r3, [pc, #16]	@ (8001f10 <Motor_Start_Arming+0x24>)
 8001efe:	6018      	str	r0, [r3, #0]

	state.motorsArming = 1; //variable to indicate motors are arming(used by LED)
 8001f00:	4b04      	ldr	r3, [pc, #16]	@ (8001f14 <Motor_Start_Arming+0x28>)
 8001f02:	2201      	movs	r2, #1
 8001f04:	f883 2041 	strb.w	r2, [r3, #65]	@ 0x41
}
 8001f08:	bd08      	pop	{r3, pc}
 8001f0a:	bf00      	nop
 8001f0c:	2000098c 	.word	0x2000098c
 8001f10:	20000988 	.word	0x20000988
 8001f14:	200003ec 	.word	0x200003ec

08001f18 <Motor_Init>:
void Motor_Init(SystemState *state){
 8001f18:	b538      	push	{r3, r4, r5, lr}
	systemState = state;
 8001f1a:	4b08      	ldr	r3, [pc, #32]	@ (8001f3c <Motor_Init+0x24>)
 8001f1c:	4d08      	ldr	r5, [pc, #32]	@ (8001f40 <Motor_Init+0x28>)
 8001f1e:	6018      	str	r0, [r3, #0]
 8001f20:	2408      	movs	r4, #8
		HAL_TIM_PWM_Start(motorTimers[i], TIM_CHANNEL_1);
 8001f22:	f855 0b04 	ldr.w	r0, [r5], #4
 8001f26:	2100      	movs	r1, #0
	for(uint8_t i = 0; i < NUM_MOTORS; i++){
 8001f28:	3c01      	subs	r4, #1
		HAL_TIM_PWM_Start(motorTimers[i], TIM_CHANNEL_1);
 8001f2a:	f003 fa67 	bl	80053fc <HAL_TIM_PWM_Start>
	for(uint8_t i = 0; i < NUM_MOTORS; i++){
 8001f2e:	f014 04ff 	ands.w	r4, r4, #255	@ 0xff
 8001f32:	d1f6      	bne.n	8001f22 <Motor_Init+0xa>
}
 8001f34:	e8bd 4038 	ldmia.w	sp!, {r3, r4, r5, lr}
	Motor_Start_Arming();
 8001f38:	f7ff bfd8 	b.w	8001eec <Motor_Start_Arming>
 8001f3c:	20000984 	.word	0x20000984
 8001f40:	0800a278 	.word	0x0800a278

08001f44 <Motor_Kill>:

void Motor_Kill(void)
{
    motorState = MOTOR_STATE_KILLED;
 8001f44:	4b02      	ldr	r3, [pc, #8]	@ (8001f50 <Motor_Kill+0xc>)
 8001f46:	2202      	movs	r2, #2
 8001f48:	701a      	strb	r2, [r3, #0]
    Set_Motors_Neutral();
 8001f4a:	f7ff bf75 	b.w	8001e38 <Set_Motors_Neutral>
 8001f4e:	bf00      	nop
 8001f50:	2000098c 	.word	0x2000098c

08001f54 <Power_Down>:

//#include "motor_control.h"


void Power_Down(SystemState *state){
	if ((state->powerOff) || (state->powerDownButton)){
 8001f54:	6a43      	ldr	r3, [r0, #36]	@ 0x24
 8001f56:	b90b      	cbnz	r3, 8001f5c <Power_Down+0x8>
 8001f58:	6bc3      	ldr	r3, [r0, #60]	@ 0x3c
 8001f5a:	b12b      	cbz	r3, 8001f68 <Power_Down+0x14>

		//Motor_Kill();
		//HAL_GPIO_WritePin(GPIOC, LED_RED_Pin|LED_GREEN_Pin|LED_BLUE_Pin, GPIO_PIN_SET);

		HAL_GPIO_WritePin(GPIOC, POWER_OFF_Pin, GPIO_PIN_RESET);
 8001f5c:	4803      	ldr	r0, [pc, #12]	@ (8001f6c <Power_Down+0x18>)
 8001f5e:	2200      	movs	r2, #0
 8001f60:	f44f 7180 	mov.w	r1, #256	@ 0x100
 8001f64:	f000 beb6 	b.w	8002cd4 <HAL_GPIO_WritePin>

		//__disable_irq();
	}
}
 8001f68:	4770      	bx	lr
 8001f6a:	bf00      	nop
 8001f6c:	48000800 	.word	0x48000800

08001f70 <RGB_LED_Update>:
#include "main.h"

#include <stdint.h>


void RGB_LED_Update(const SystemState *state){
 8001f70:	b570      	push	{r4, r5, r6, lr}
	static uint32_t lastFlashTick = 0;
	static uint8_t flashState = 0;

	if (state->intKillState || state->extKillState){ //flash red if kill state active
 8001f72:	8f06      	ldrh	r6, [r0, #56]	@ 0x38
 8001f74:	b30e      	cbz	r6, 8001fba <RGB_LED_Update+0x4a>
		if ((HAL_GetTick() - lastFlashTick) >= 500)
 8001f76:	4c29      	ldr	r4, [pc, #164]	@ (800201c <RGB_LED_Update+0xac>)
 8001f78:	f000 fcee 	bl	8002958 <HAL_GetTick>
 8001f7c:	6823      	ldr	r3, [r4, #0]
 8001f7e:	1ac0      	subs	r0, r0, r3
 8001f80:	f5b0 7ffa 	cmp.w	r0, #500	@ 0x1f4
 8001f84:	d349      	bcc.n	800201a <RGB_LED_Update+0xaa>
		        {
		            lastFlashTick = HAL_GetTick();
 8001f86:	f000 fce7 	bl	8002958 <HAL_GetTick>
 8001f8a:	6020      	str	r0, [r4, #0]
		            flashState = !flashState;
 8001f8c:	4c24      	ldr	r4, [pc, #144]	@ (8002020 <RGB_LED_Update+0xb0>)

		            HAL_GPIO_WritePin(GPIOC, LED_RED_Pin|LED_GREEN_Pin|LED_BLUE_Pin, GPIO_PIN_SET);
 8001f8e:	4825      	ldr	r0, [pc, #148]	@ (8002024 <RGB_LED_Update+0xb4>)
		            flashState = !flashState;
 8001f90:	7823      	ldrb	r3, [r4, #0]
 8001f92:	fab3 f383 	clz	r3, r3
 8001f96:	095b      	lsrs	r3, r3, #5
		            HAL_GPIO_WritePin(GPIOC, LED_RED_Pin|LED_GREEN_Pin|LED_BLUE_Pin, GPIO_PIN_SET);
 8001f98:	2201      	movs	r2, #1
 8001f9a:	f44f 4160 	mov.w	r1, #57344	@ 0xe000
		            flashState = !flashState;
 8001f9e:	7023      	strb	r3, [r4, #0]
		            HAL_GPIO_WritePin(GPIOC, LED_RED_Pin|LED_GREEN_Pin|LED_BLUE_Pin, GPIO_PIN_SET);
 8001fa0:	f000 fe98 	bl	8002cd4 <HAL_GPIO_WritePin>

		            if (flashState)
 8001fa4:	7823      	ldrb	r3, [r4, #0]
 8001fa6:	2b00      	cmp	r3, #0
 8001fa8:	d037      	beq.n	800201a <RGB_LED_Update+0xaa>
		            {
		                HAL_GPIO_WritePin(GPIOC, LED_RED_Pin, GPIO_PIN_RESET);
 8001faa:	2200      	movs	r2, #0
 8001fac:	f44f 4100 	mov.w	r1, #32768	@ 0x8000
	}
	else{//solid red if usb diconnected
		HAL_GPIO_WritePin(GPIOC, LED_BLUE_Pin|LED_GREEN_Pin|LED_RED_Pin, GPIO_PIN_SET);
		HAL_GPIO_WritePin(GPIOC, LED_RED_Pin, GPIO_PIN_RESET);
	}
}
 8001fb0:	e8bd 4070 	ldmia.w	sp!, {r4, r5, r6, lr}
		            HAL_GPIO_WritePin(GPIOC, LED_BLUE_Pin, GPIO_PIN_RESET);
 8001fb4:	481b      	ldr	r0, [pc, #108]	@ (8002024 <RGB_LED_Update+0xb4>)
 8001fb6:	f000 be8d 	b.w	8002cd4 <HAL_GPIO_WritePin>
	else if (state->motorsArming){
 8001fba:	f890 5041 	ldrb.w	r5, [r0, #65]	@ 0x41
 8001fbe:	b1e5      	cbz	r5, 8001ffa <RGB_LED_Update+0x8a>
		if ((HAL_GetTick() - lastFlashTick) >= 500)
 8001fc0:	4c16      	ldr	r4, [pc, #88]	@ (800201c <RGB_LED_Update+0xac>)
 8001fc2:	f000 fcc9 	bl	8002958 <HAL_GetTick>
 8001fc6:	6823      	ldr	r3, [r4, #0]
 8001fc8:	1ac0      	subs	r0, r0, r3
 8001fca:	f5b0 7ffa 	cmp.w	r0, #500	@ 0x1f4
 8001fce:	d324      	bcc.n	800201a <RGB_LED_Update+0xaa>
		        lastFlashTick = HAL_GetTick();
 8001fd0:	f000 fcc2 	bl	8002958 <HAL_GetTick>
 8001fd4:	6020      	str	r0, [r4, #0]
		        flashState = !flashState;
 8001fd6:	4c12      	ldr	r4, [pc, #72]	@ (8002020 <RGB_LED_Update+0xb0>)
		        HAL_GPIO_WritePin(GPIOC, LED_RED_Pin|LED_GREEN_Pin|LED_BLUE_Pin, GPIO_PIN_SET);
 8001fd8:	4812      	ldr	r0, [pc, #72]	@ (8002024 <RGB_LED_Update+0xb4>)
		        flashState = !flashState;
 8001fda:	7823      	ldrb	r3, [r4, #0]
 8001fdc:	fab3 f383 	clz	r3, r3
 8001fe0:	095b      	lsrs	r3, r3, #5
		        HAL_GPIO_WritePin(GPIOC, LED_RED_Pin|LED_GREEN_Pin|LED_BLUE_Pin, GPIO_PIN_SET);
 8001fe2:	2201      	movs	r2, #1
 8001fe4:	f44f 4160 	mov.w	r1, #57344	@ 0xe000
		        flashState = !flashState;
 8001fe8:	7023      	strb	r3, [r4, #0]
		        HAL_GPIO_WritePin(GPIOC, LED_RED_Pin|LED_GREEN_Pin|LED_BLUE_Pin, GPIO_PIN_SET);
 8001fea:	f000 fe73 	bl	8002cd4 <HAL_GPIO_WritePin>
		        if (flashState)
 8001fee:	7823      	ldrb	r3, [r4, #0]
 8001ff0:	b19b      	cbz	r3, 800201a <RGB_LED_Update+0xaa>
		            HAL_GPIO_WritePin(GPIOC, LED_BLUE_Pin, GPIO_PIN_RESET);
 8001ff2:	4632      	mov	r2, r6
 8001ff4:	f44f 5100 	mov.w	r1, #8192	@ 0x2000
 8001ff8:	e7da      	b.n	8001fb0 <RGB_LED_Update+0x40>
	else if(state->usbConnected){ //solid green if USB connected
 8001ffa:	f890 4040 	ldrb.w	r4, [r0, #64]	@ 0x40
		HAL_GPIO_WritePin(GPIOC, LED_BLUE_Pin|LED_GREEN_Pin|LED_RED_Pin, GPIO_PIN_SET);
 8001ffe:	4809      	ldr	r0, [pc, #36]	@ (8002024 <RGB_LED_Update+0xb4>)
 8002000:	2201      	movs	r2, #1
 8002002:	f44f 4160 	mov.w	r1, #57344	@ 0xe000
	else if(state->usbConnected){ //solid green if USB connected
 8002006:	b12c      	cbz	r4, 8002014 <RGB_LED_Update+0xa4>
		HAL_GPIO_WritePin(GPIOC, LED_BLUE_Pin|LED_GREEN_Pin|LED_RED_Pin, GPIO_PIN_SET);
 8002008:	f000 fe64 	bl	8002cd4 <HAL_GPIO_WritePin>
		HAL_GPIO_WritePin(GPIOC, LED_GREEN_Pin, GPIO_PIN_RESET);
 800200c:	462a      	mov	r2, r5
 800200e:	f44f 4180 	mov.w	r1, #16384	@ 0x4000
 8002012:	e7cd      	b.n	8001fb0 <RGB_LED_Update+0x40>
		HAL_GPIO_WritePin(GPIOC, LED_BLUE_Pin|LED_GREEN_Pin|LED_RED_Pin, GPIO_PIN_SET);
 8002014:	f000 fe5e 	bl	8002cd4 <HAL_GPIO_WritePin>
		HAL_GPIO_WritePin(GPIOC, LED_RED_Pin, GPIO_PIN_RESET);
 8002018:	e7c7      	b.n	8001faa <RGB_LED_Update+0x3a>
}
 800201a:	bd70      	pop	{r4, r5, r6, pc}
 800201c:	20000990 	.word	0x20000990
 8002020:	2000098d 	.word	0x2000098d
 8002024:	48000800 	.word	0x48000800

08002028 <Safety_Manager_Update>:
//external kill represents kill command come from button
//previous values used to detect edge cases
static uint8_t prevIntKillState = 0;
static uint8_t prevExtKillState = 0;

void Safety_Manager_Update(SystemState *state){
 8002028:	b538      	push	{r3, r4, r5, lr}

	state->extKillState = HAL_GPIO_ReadPin(EXT_KILL_GPIO_Port, EXT_KILL_Pin);
 800202a:	f44f 5180 	mov.w	r1, #4096	@ 0x1000
void Safety_Manager_Update(SystemState *state){
 800202e:	4604      	mov	r4, r0
	state->extKillState = HAL_GPIO_ReadPin(EXT_KILL_GPIO_Port, EXT_KILL_Pin);
 8002030:	481e      	ldr	r0, [pc, #120]	@ (80020ac <Safety_Manager_Update+0x84>)
 8002032:	f000 fe49 	bl	8002cc8 <HAL_GPIO_ReadPin>

	//if usb kill value is one we set internal kill pin high
	if (state->killState){
 8002036:	6a25      	ldr	r5, [r4, #32]
	state->extKillState = HAL_GPIO_ReadPin(EXT_KILL_GPIO_Port, EXT_KILL_Pin);
 8002038:	f884 0039 	strb.w	r0, [r4, #57]	@ 0x39
	if (state->killState){
 800203c:	b365      	cbz	r5, 8002098 <Safety_Manager_Update+0x70>
		HAL_GPIO_WritePin(GPIOC, INT_KILL_Pin, GPIO_PIN_SET);
 800203e:	481c      	ldr	r0, [pc, #112]	@ (80020b0 <Safety_Manager_Update+0x88>)
 8002040:	2201      	movs	r2, #1
 8002042:	f44f 6100 	mov.w	r1, #2048	@ 0x800
 8002046:	f000 fe45 	bl	8002cd4 <HAL_GPIO_WritePin>
		state->intKillState = 1;
 800204a:	2301      	movs	r3, #1
		prevIntKillState = 1;
 800204c:	4a19      	ldr	r2, [pc, #100]	@ (80020b4 <Safety_Manager_Update+0x8c>)
		state->intKillState = 1;
 800204e:	f884 3038 	strb.w	r3, [r4, #56]	@ 0x38
		prevIntKillState = 1;
 8002052:	7013      	strb	r3, [r2, #0]

		Motor_Kill();
 8002054:	f7ff ff76 	bl	8001f44 <Motor_Kill>
		Dropper_Kill();
 8002058:	f7ff fa52 	bl	8001500 <Dropper_Kill>
	else {
		HAL_GPIO_WritePin(GPIOC, INT_KILL_Pin, GPIO_PIN_RESET);
		state->intKillState = 0;
	}

	if ((state->extKillState) && (prevExtKillState == 0)){
 800205c:	f894 3039 	ldrb.w	r3, [r4, #57]	@ 0x39
 8002060:	4d15      	ldr	r5, [pc, #84]	@ (80020b8 <Safety_Manager_Update+0x90>)
 8002062:	b13b      	cbz	r3, 8002074 <Safety_Manager_Update+0x4c>
 8002064:	782b      	ldrb	r3, [r5, #0]
 8002066:	b92b      	cbnz	r3, 8002074 <Safety_Manager_Update+0x4c>
		prevExtKillState = 1;
 8002068:	2301      	movs	r3, #1
 800206a:	702b      	strb	r3, [r5, #0]

		Motor_Kill();
 800206c:	f7ff ff6a 	bl	8001f44 <Motor_Kill>
		Dropper_Kill();
 8002070:	f7ff fa46 	bl	8001500 <Dropper_Kill>

	}

	//if we were killed, but are now being restart, then set previous Kill states to zero and restart the motors
	if (((prevExtKillState == 1) && (state->extKillState == 0) && (state->intKillState == 0)) || ((prevIntKillState == 1) && (state->extKillState == 0) && (state->intKillState == 0))){
 8002074:	782b      	ldrb	r3, [r5, #0]
 8002076:	2b01      	cmp	r3, #1
 8002078:	d003      	beq.n	8002082 <Safety_Manager_Update+0x5a>
 800207a:	4b0e      	ldr	r3, [pc, #56]	@ (80020b4 <Safety_Manager_Update+0x8c>)
 800207c:	781b      	ldrb	r3, [r3, #0]
 800207e:	2b01      	cmp	r3, #1
 8002080:	d113      	bne.n	80020aa <Safety_Manager_Update+0x82>
 8002082:	8f23      	ldrh	r3, [r4, #56]	@ 0x38
 8002084:	b98b      	cbnz	r3, 80020aa <Safety_Manager_Update+0x82>
			  prevExtKillState = 0;
			  prevIntKillState = 0;
 8002086:	4a0b      	ldr	r2, [pc, #44]	@ (80020b4 <Safety_Manager_Update+0x8c>)
			  prevExtKillState = 0;
 8002088:	702b      	strb	r3, [r5, #0]
			  prevIntKillState = 0;
 800208a:	7013      	strb	r3, [r2, #0]

			  Motor_Start_Arming();
 800208c:	f7ff ff2e 	bl	8001eec <Motor_Start_Arming>
			  Dropper_Start_Arming();

		  }

}
 8002090:	e8bd 4038 	ldmia.w	sp!, {r3, r4, r5, lr}
			  Dropper_Start_Arming();
 8002094:	f7ff b9e4 	b.w	8001460 <Dropper_Start_Arming>
		HAL_GPIO_WritePin(GPIOC, INT_KILL_Pin, GPIO_PIN_RESET);
 8002098:	4805      	ldr	r0, [pc, #20]	@ (80020b0 <Safety_Manager_Update+0x88>)
 800209a:	462a      	mov	r2, r5
 800209c:	f44f 6100 	mov.w	r1, #2048	@ 0x800
 80020a0:	f000 fe18 	bl	8002cd4 <HAL_GPIO_WritePin>
		state->intKillState = 0;
 80020a4:	f884 5038 	strb.w	r5, [r4, #56]	@ 0x38
 80020a8:	e7d8      	b.n	800205c <Safety_Manager_Update+0x34>
}
 80020aa:	bd38      	pop	{r3, r4, r5, pc}
 80020ac:	48000400 	.word	0x48000400
 80020b0:	48000800 	.word	0x48000800
 80020b4:	20000995 	.word	0x20000995
 80020b8:	20000994 	.word	0x20000994

080020bc <HAL_MspInit>:

  /* USER CODE BEGIN MspInit 0 */

  /* USER CODE END MspInit 0 */

  __HAL_RCC_SYSCFG_CLK_ENABLE();
 80020bc:	4b0b      	ldr	r3, [pc, #44]	@ (80020ec <HAL_MspInit+0x30>)
 80020be:	6e1a      	ldr	r2, [r3, #96]	@ 0x60
 80020c0:	f042 0201 	orr.w	r2, r2, #1
{
 80020c4:	b082      	sub	sp, #8
  __HAL_RCC_SYSCFG_CLK_ENABLE();
 80020c6:	661a      	str	r2, [r3, #96]	@ 0x60
 80020c8:	6e1a      	ldr	r2, [r3, #96]	@ 0x60
 80020ca:	f002 0201 	and.w	r2, r2, #1
 80020ce:	9200      	str	r2, [sp, #0]
 80020d0:	9a00      	ldr	r2, [sp, #0]
  __HAL_RCC_PWR_CLK_ENABLE();
 80020d2:	6d9a      	ldr	r2, [r3, #88]	@ 0x58
 80020d4:	f042 5280 	orr.w	r2, r2, #268435456	@ 0x10000000
 80020d8:	659a      	str	r2, [r3, #88]	@ 0x58
 80020da:	6d9b      	ldr	r3, [r3, #88]	@ 0x58
 80020dc:	f003 5380 	and.w	r3, r3, #268435456	@ 0x10000000
 80020e0:	9301      	str	r3, [sp, #4]
 80020e2:	9b01      	ldr	r3, [sp, #4]
  HAL_PWREx_DisableUCPDDeadBattery();

  /* USER CODE BEGIN MspInit 1 */

  /* USER CODE END MspInit 1 */
}
 80020e4:	b002      	add	sp, #8
  HAL_PWREx_DisableUCPDDeadBattery();
 80020e6:	f002 b859 	b.w	800419c <HAL_PWREx_DisableUCPDDeadBattery>
 80020ea:	bf00      	nop
 80020ec:	40021000 	.word	0x40021000

080020f0 <HAL_I2C_MspInit>:
  * This function configures the hardware resources used in this example
  * @param hi2c: I2C handle pointer
  * @retval None
  */
void HAL_I2C_MspInit(I2C_HandleTypeDef* hi2c)
{
 80020f0:	b5f0      	push	{r4, r5, r6, r7, lr}
 80020f2:	b09f      	sub	sp, #124	@ 0x7c
 80020f4:	4604      	mov	r4, r0
  GPIO_InitTypeDef GPIO_InitStruct = {0};
 80020f6:	2214      	movs	r2, #20
 80020f8:	2100      	movs	r1, #0
 80020fa:	a804      	add	r0, sp, #16
 80020fc:	f006 f899 	bl	8008232 <memset>
  RCC_PeriphCLKInitTypeDef PeriphClkInit = {0};
 8002100:	2254      	movs	r2, #84	@ 0x54
 8002102:	2100      	movs	r1, #0
 8002104:	a809      	add	r0, sp, #36	@ 0x24
 8002106:	f006 f894 	bl	8008232 <memset>
  if(hi2c->Instance==I2C1)
 800210a:	6822      	ldr	r2, [r4, #0]
 800210c:	4b20      	ldr	r3, [pc, #128]	@ (8002190 <HAL_I2C_MspInit+0xa0>)
 800210e:	429a      	cmp	r2, r3
 8002110:	d13c      	bne.n	800218c <HAL_I2C_MspInit+0x9c>

    /* USER CODE END I2C1_MspInit 0 */

  /** Initializes the peripherals clocks
  */
    PeriphClkInit.PeriphClockSelection = RCC_PERIPHCLK_I2C1;
 8002112:	2340      	movs	r3, #64	@ 0x40
    PeriphClkInit.I2c1ClockSelection = RCC_I2C1CLKSOURCE_PCLK1;
    if (HAL_RCCEx_PeriphCLKConfig(&PeriphClkInit) != HAL_OK)
 8002114:	a809      	add	r0, sp, #36	@ 0x24
    PeriphClkInit.PeriphClockSelection = RCC_PERIPHCLK_I2C1;
 8002116:	9309      	str	r3, [sp, #36]	@ 0x24
    if (HAL_RCCEx_PeriphCLKConfig(&PeriphClkInit) != HAL_OK)
 8002118:	f002 fb90 	bl	800483c <HAL_RCCEx_PeriphCLKConfig>
 800211c:	b108      	cbz	r0, 8002122 <HAL_I2C_MspInit+0x32>
    {
      Error_Handler();
 800211e:	f7ff fe89 	bl	8001e34 <Error_Handler>
    }

    __HAL_RCC_GPIOA_CLK_ENABLE();
 8002122:	4c1c      	ldr	r4, [pc, #112]	@ (8002194 <HAL_I2C_MspInit+0xa4>)
 8002124:	6ce3      	ldr	r3, [r4, #76]	@ 0x4c
 8002126:	f043 0301 	orr.w	r3, r3, #1
 800212a:	64e3      	str	r3, [r4, #76]	@ 0x4c
 800212c:	6ce3      	ldr	r3, [r4, #76]	@ 0x4c
 800212e:	f003 0301 	and.w	r3, r3, #1
 8002132:	9301      	str	r3, [sp, #4]
 8002134:	9b01      	ldr	r3, [sp, #4]
    __HAL_RCC_GPIOB_CLK_ENABLE();
 8002136:	6ce3      	ldr	r3, [r4, #76]	@ 0x4c
 8002138:	f043 0302 	orr.w	r3, r3, #2
 800213c:	64e3      	str	r3, [r4, #76]	@ 0x4c
 800213e:	6ce3      	ldr	r3, [r4, #76]	@ 0x4c
 8002140:	f003 0302 	and.w	r3, r3, #2
 8002144:	9302      	str	r3, [sp, #8]
 8002146:	9b02      	ldr	r3, [sp, #8]
    /**I2C1 GPIO Configuration
    PA15     ------> I2C1_SCL
    PB7     ------> I2C1_SDA
    */
    GPIO_InitStruct.Pin = GPIO_PIN_15;
    GPIO_InitStruct.Mode = GPIO_MODE_AF_OD;
 8002148:	2712      	movs	r7, #18
 800214a:	f44f 4300 	mov.w	r3, #32768	@ 0x8000
    GPIO_InitStruct.Pull = GPIO_NOPULL;
 800214e:	2500      	movs	r5, #0
    GPIO_InitStruct.Speed = GPIO_SPEED_FREQ_LOW;
    GPIO_InitStruct.Alternate = GPIO_AF4_I2C1;
 8002150:	2604      	movs	r6, #4
    HAL_GPIO_Init(GPIOA, &GPIO_InitStruct);
 8002152:	a904      	add	r1, sp, #16
 8002154:	f04f 4090 	mov.w	r0, #1207959552	@ 0x48000000
    GPIO_InitStruct.Mode = GPIO_MODE_AF_OD;
 8002158:	e9cd 3704 	strd	r3, r7, [sp, #16]
    GPIO_InitStruct.Speed = GPIO_SPEED_FREQ_LOW;
 800215c:	e9cd 5506 	strd	r5, r5, [sp, #24]
    GPIO_InitStruct.Alternate = GPIO_AF4_I2C1;
 8002160:	9608      	str	r6, [sp, #32]
    HAL_GPIO_Init(GPIOA, &GPIO_InitStruct);
 8002162:	f000 fce7 	bl	8002b34 <HAL_GPIO_Init>

    GPIO_InitStruct.Pin = GPIO_PIN_7;
 8002166:	2380      	movs	r3, #128	@ 0x80
    GPIO_InitStruct.Mode = GPIO_MODE_AF_OD;
    GPIO_InitStruct.Pull = GPIO_NOPULL;
    GPIO_InitStruct.Speed = GPIO_SPEED_FREQ_LOW;
    GPIO_InitStruct.Alternate = GPIO_AF4_I2C1;
    HAL_GPIO_Init(GPIOB, &GPIO_InitStruct);
 8002168:	480b      	ldr	r0, [pc, #44]	@ (8002198 <HAL_I2C_MspInit+0xa8>)
    GPIO_InitStruct.Alternate = GPIO_AF4_I2C1;
 800216a:	9608      	str	r6, [sp, #32]
    HAL_GPIO_Init(GPIOB, &GPIO_InitStruct);
 800216c:	a904      	add	r1, sp, #16
    GPIO_InitStruct.Mode = GPIO_MODE_AF_OD;
 800216e:	e9cd 3704 	strd	r3, r7, [sp, #16]
    GPIO_InitStruct.Speed = GPIO_SPEED_FREQ_LOW;
 8002172:	e9cd 5506 	strd	r5, r5, [sp, #24]
    HAL_GPIO_Init(GPIOB, &GPIO_InitStruct);
 8002176:	f000 fcdd 	bl	8002b34 <HAL_GPIO_Init>

    /* Peripheral clock enable */
    __HAL_RCC_I2C1_CLK_ENABLE();
 800217a:	6da3      	ldr	r3, [r4, #88]	@ 0x58
 800217c:	f443 1300 	orr.w	r3, r3, #2097152	@ 0x200000
 8002180:	65a3      	str	r3, [r4, #88]	@ 0x58
 8002182:	6da3      	ldr	r3, [r4, #88]	@ 0x58
 8002184:	f403 1300 	and.w	r3, r3, #2097152	@ 0x200000
 8002188:	9303      	str	r3, [sp, #12]
 800218a:	9b03      	ldr	r3, [sp, #12]

    /* USER CODE END I2C1_MspInit 1 */

  }

}
 800218c:	b01f      	add	sp, #124	@ 0x7c
 800218e:	bdf0      	pop	{r4, r5, r6, r7, pc}
 8002190:	40005400 	.word	0x40005400
 8002194:	40021000 	.word	0x40021000
 8002198:	48000400 	.word	0x48000400

0800219c <HAL_TIM_PWM_MspInit>:
  * @param htim_pwm: TIM_PWM handle pointer
  * @retval None
  */
void HAL_TIM_PWM_MspInit(TIM_HandleTypeDef* htim_pwm)
{
  if(htim_pwm->Instance==TIM1)
 800219c:	6803      	ldr	r3, [r0, #0]
 800219e:	4a39      	ldr	r2, [pc, #228]	@ (8002284 <HAL_TIM_PWM_MspInit+0xe8>)
 80021a0:	4293      	cmp	r3, r2
{
 80021a2:	b088      	sub	sp, #32
  if(htim_pwm->Instance==TIM1)
 80021a4:	d10b      	bne.n	80021be <HAL_TIM_PWM_MspInit+0x22>
  {
    /* USER CODE BEGIN TIM1_MspInit 0 */

    /* USER CODE END TIM1_MspInit 0 */
    /* Peripheral clock enable */
    __HAL_RCC_TIM1_CLK_ENABLE();
 80021a6:	4b38      	ldr	r3, [pc, #224]	@ (8002288 <HAL_TIM_PWM_MspInit+0xec>)
 80021a8:	6e1a      	ldr	r2, [r3, #96]	@ 0x60
 80021aa:	f442 6200 	orr.w	r2, r2, #2048	@ 0x800
 80021ae:	661a      	str	r2, [r3, #96]	@ 0x60
 80021b0:	6e1b      	ldr	r3, [r3, #96]	@ 0x60
 80021b2:	f403 6300 	and.w	r3, r3, #2048	@ 0x800
 80021b6:	9300      	str	r3, [sp, #0]
 80021b8:	9b00      	ldr	r3, [sp, #0]
    /* USER CODE BEGIN TIM20_MspInit 1 */

    /* USER CODE END TIM20_MspInit 1 */
  }

}
 80021ba:	b008      	add	sp, #32
 80021bc:	4770      	bx	lr
  else if(htim_pwm->Instance==TIM2)
 80021be:	f1b3 4f80 	cmp.w	r3, #1073741824	@ 0x40000000
 80021c2:	d10b      	bne.n	80021dc <HAL_TIM_PWM_MspInit+0x40>
    __HAL_RCC_TIM2_CLK_ENABLE();
 80021c4:	f503 3304 	add.w	r3, r3, #135168	@ 0x21000
 80021c8:	6d9a      	ldr	r2, [r3, #88]	@ 0x58
 80021ca:	f042 0201 	orr.w	r2, r2, #1
 80021ce:	659a      	str	r2, [r3, #88]	@ 0x58
 80021d0:	6d9b      	ldr	r3, [r3, #88]	@ 0x58
 80021d2:	f003 0301 	and.w	r3, r3, #1
 80021d6:	9301      	str	r3, [sp, #4]
 80021d8:	9b01      	ldr	r3, [sp, #4]
 80021da:	e7ee      	b.n	80021ba <HAL_TIM_PWM_MspInit+0x1e>
  else if(htim_pwm->Instance==TIM3)
 80021dc:	4a2b      	ldr	r2, [pc, #172]	@ (800228c <HAL_TIM_PWM_MspInit+0xf0>)
 80021de:	4293      	cmp	r3, r2
 80021e0:	d10a      	bne.n	80021f8 <HAL_TIM_PWM_MspInit+0x5c>
    __HAL_RCC_TIM3_CLK_ENABLE();
 80021e2:	4b29      	ldr	r3, [pc, #164]	@ (8002288 <HAL_TIM_PWM_MspInit+0xec>)
 80021e4:	6d9a      	ldr	r2, [r3, #88]	@ 0x58
 80021e6:	f042 0202 	orr.w	r2, r2, #2
 80021ea:	659a      	str	r2, [r3, #88]	@ 0x58
 80021ec:	6d9b      	ldr	r3, [r3, #88]	@ 0x58
 80021ee:	f003 0302 	and.w	r3, r3, #2
 80021f2:	9302      	str	r3, [sp, #8]
 80021f4:	9b02      	ldr	r3, [sp, #8]
 80021f6:	e7e0      	b.n	80021ba <HAL_TIM_PWM_MspInit+0x1e>
  else if(htim_pwm->Instance==TIM4)
 80021f8:	4a25      	ldr	r2, [pc, #148]	@ (8002290 <HAL_TIM_PWM_MspInit+0xf4>)
 80021fa:	4293      	cmp	r3, r2
 80021fc:	d10a      	bne.n	8002214 <HAL_TIM_PWM_MspInit+0x78>
    __HAL_RCC_TIM4_CLK_ENABLE();
 80021fe:	4b22      	ldr	r3, [pc, #136]	@ (8002288 <HAL_TIM_PWM_MspInit+0xec>)
 8002200:	6d9a      	ldr	r2, [r3, #88]	@ 0x58
 8002202:	f042 0204 	orr.w	r2, r2, #4
 8002206:	659a      	str	r2, [r3, #88]	@ 0x58
 8002208:	6d9b      	ldr	r3, [r3, #88]	@ 0x58
 800220a:	f003 0304 	and.w	r3, r3, #4
 800220e:	9303      	str	r3, [sp, #12]
 8002210:	9b03      	ldr	r3, [sp, #12]
 8002212:	e7d2      	b.n	80021ba <HAL_TIM_PWM_MspInit+0x1e>
  else if(htim_pwm->Instance==TIM5)
 8002214:	4a1f      	ldr	r2, [pc, #124]	@ (8002294 <HAL_TIM_PWM_MspInit+0xf8>)
 8002216:	4293      	cmp	r3, r2
 8002218:	d10a      	bne.n	8002230 <HAL_TIM_PWM_MspInit+0x94>
    __HAL_RCC_TIM5_CLK_ENABLE();
 800221a:	4b1b      	ldr	r3, [pc, #108]	@ (8002288 <HAL_TIM_PWM_MspInit+0xec>)
 800221c:	6d9a      	ldr	r2, [r3, #88]	@ 0x58
 800221e:	f042 0208 	orr.w	r2, r2, #8
 8002222:	659a      	str	r2, [r3, #88]	@ 0x58
 8002224:	6d9b      	ldr	r3, [r3, #88]	@ 0x58
 8002226:	f003 0308 	and.w	r3, r3, #8
 800222a:	9304      	str	r3, [sp, #16]
 800222c:	9b04      	ldr	r3, [sp, #16]
 800222e:	e7c4      	b.n	80021ba <HAL_TIM_PWM_MspInit+0x1e>
  else if(htim_pwm->Instance==TIM8)
 8002230:	4a19      	ldr	r2, [pc, #100]	@ (8002298 <HAL_TIM_PWM_MspInit+0xfc>)
 8002232:	4293      	cmp	r3, r2
 8002234:	d10a      	bne.n	800224c <HAL_TIM_PWM_MspInit+0xb0>
    __HAL_RCC_TIM8_CLK_ENABLE();
 8002236:	4b14      	ldr	r3, [pc, #80]	@ (8002288 <HAL_TIM_PWM_MspInit+0xec>)
 8002238:	6e1a      	ldr	r2, [r3, #96]	@ 0x60
 800223a:	f442 5200 	orr.w	r2, r2, #8192	@ 0x2000
 800223e:	661a      	str	r2, [r3, #96]	@ 0x60
 8002240:	6e1b      	ldr	r3, [r3, #96]	@ 0x60
 8002242:	f403 5300 	and.w	r3, r3, #8192	@ 0x2000
 8002246:	9305      	str	r3, [sp, #20]
 8002248:	9b05      	ldr	r3, [sp, #20]
 800224a:	e7b6      	b.n	80021ba <HAL_TIM_PWM_MspInit+0x1e>
  else if(htim_pwm->Instance==TIM15)
 800224c:	4a13      	ldr	r2, [pc, #76]	@ (800229c <HAL_TIM_PWM_MspInit+0x100>)
 800224e:	4293      	cmp	r3, r2
 8002250:	d10a      	bne.n	8002268 <HAL_TIM_PWM_MspInit+0xcc>
    __HAL_RCC_TIM15_CLK_ENABLE();
 8002252:	4b0d      	ldr	r3, [pc, #52]	@ (8002288 <HAL_TIM_PWM_MspInit+0xec>)
 8002254:	6e1a      	ldr	r2, [r3, #96]	@ 0x60
 8002256:	f442 3280 	orr.w	r2, r2, #65536	@ 0x10000
 800225a:	661a      	str	r2, [r3, #96]	@ 0x60
 800225c:	6e1b      	ldr	r3, [r3, #96]	@ 0x60
 800225e:	f403 3380 	and.w	r3, r3, #65536	@ 0x10000
 8002262:	9306      	str	r3, [sp, #24]
 8002264:	9b06      	ldr	r3, [sp, #24]
 8002266:	e7a8      	b.n	80021ba <HAL_TIM_PWM_MspInit+0x1e>
  else if(htim_pwm->Instance==TIM20)
 8002268:	4a0d      	ldr	r2, [pc, #52]	@ (80022a0 <HAL_TIM_PWM_MspInit+0x104>)
 800226a:	4293      	cmp	r3, r2
 800226c:	d1a5      	bne.n	80021ba <HAL_TIM_PWM_MspInit+0x1e>
    __HAL_RCC_TIM20_CLK_ENABLE();
 800226e:	4b06      	ldr	r3, [pc, #24]	@ (8002288 <HAL_TIM_PWM_MspInit+0xec>)
 8002270:	6e1a      	ldr	r2, [r3, #96]	@ 0x60
 8002272:	f442 1280 	orr.w	r2, r2, #1048576	@ 0x100000
 8002276:	661a      	str	r2, [r3, #96]	@ 0x60
 8002278:	6e1b      	ldr	r3, [r3, #96]	@ 0x60
 800227a:	f403 1380 	and.w	r3, r3, #1048576	@ 0x100000
 800227e:	9307      	str	r3, [sp, #28]
 8002280:	9b07      	ldr	r3, [sp, #28]
}
 8002282:	e79a      	b.n	80021ba <HAL_TIM_PWM_MspInit+0x1e>
 8002284:	40012c00 	.word	0x40012c00
 8002288:	40021000 	.word	0x40021000
 800228c:	40000400 	.word	0x40000400
 8002290:	40000800 	.word	0x40000800
 8002294:	40000c00 	.word	0x40000c00
 8002298:	40013400 	.word	0x40013400
 800229c:	40014000 	.word	0x40014000
 80022a0:	40015000 	.word	0x40015000

080022a4 <HAL_TIM_Base_MspInit>:
  * This function configures the hardware resources used in this example
  * @param htim_base: TIM_Base handle pointer
  * @retval None
  */
void HAL_TIM_Base_MspInit(TIM_HandleTypeDef* htim_base)
{
 80022a4:	b51f      	push	{r0, r1, r2, r3, r4, lr}
  if(htim_base->Instance==TIM6)
 80022a6:	6803      	ldr	r3, [r0, #0]
 80022a8:	4a24      	ldr	r2, [pc, #144]	@ (800233c <HAL_TIM_Base_MspInit+0x98>)
 80022aa:	4293      	cmp	r3, r2
 80022ac:	d114      	bne.n	80022d8 <HAL_TIM_Base_MspInit+0x34>
  {
    /* USER CODE BEGIN TIM6_MspInit 0 */

    /* USER CODE END TIM6_MspInit 0 */
    /* Peripheral clock enable */
    __HAL_RCC_TIM6_CLK_ENABLE();
 80022ae:	4b24      	ldr	r3, [pc, #144]	@ (8002340 <HAL_TIM_Base_MspInit+0x9c>)
 80022b0:	6d9a      	ldr	r2, [r3, #88]	@ 0x58
 80022b2:	f042 0210 	orr.w	r2, r2, #16
 80022b6:	659a      	str	r2, [r3, #88]	@ 0x58
 80022b8:	6d9b      	ldr	r3, [r3, #88]	@ 0x58
    /* TIM6 interrupt Init */
    HAL_NVIC_SetPriority(TIM6_DAC_IRQn, 0, 0);
 80022ba:	2200      	movs	r2, #0
    __HAL_RCC_TIM6_CLK_ENABLE();
 80022bc:	f003 0310 	and.w	r3, r3, #16
 80022c0:	9300      	str	r3, [sp, #0]
    HAL_NVIC_SetPriority(TIM6_DAC_IRQn, 0, 0);
 80022c2:	2036      	movs	r0, #54	@ 0x36
 80022c4:	4611      	mov	r1, r2
    __HAL_RCC_TIM6_CLK_ENABLE();
 80022c6:	9b00      	ldr	r3, [sp, #0]
    HAL_NVIC_SetPriority(TIM6_DAC_IRQn, 0, 0);
 80022c8:	f000 fb72 	bl	80029b0 <HAL_NVIC_SetPriority>
    HAL_NVIC_EnableIRQ(TIM6_DAC_IRQn);
 80022cc:	2036      	movs	r0, #54	@ 0x36
    /* USER CODE BEGIN TIM17_MspInit 1 */

    /* USER CODE END TIM17_MspInit 1 */
  }

}
 80022ce:	b005      	add	sp, #20
 80022d0:	f85d eb04 	ldr.w	lr, [sp], #4
    HAL_NVIC_EnableIRQ(TIM7_DAC_IRQn);
 80022d4:	f000 bb9e 	b.w	8002a14 <HAL_NVIC_EnableIRQ>
  else if(htim_base->Instance==TIM7)
 80022d8:	4a1a      	ldr	r2, [pc, #104]	@ (8002344 <HAL_TIM_Base_MspInit+0xa0>)
 80022da:	4293      	cmp	r3, r2
 80022dc:	d110      	bne.n	8002300 <HAL_TIM_Base_MspInit+0x5c>
    __HAL_RCC_TIM7_CLK_ENABLE();
 80022de:	4b18      	ldr	r3, [pc, #96]	@ (8002340 <HAL_TIM_Base_MspInit+0x9c>)
 80022e0:	6d9a      	ldr	r2, [r3, #88]	@ 0x58
 80022e2:	f042 0220 	orr.w	r2, r2, #32
 80022e6:	659a      	str	r2, [r3, #88]	@ 0x58
 80022e8:	6d9b      	ldr	r3, [r3, #88]	@ 0x58
 80022ea:	f003 0320 	and.w	r3, r3, #32
 80022ee:	9301      	str	r3, [sp, #4]
    HAL_NVIC_SetPriority(TIM7_DAC_IRQn, 1, 0);
 80022f0:	2037      	movs	r0, #55	@ 0x37
 80022f2:	2200      	movs	r2, #0
 80022f4:	2101      	movs	r1, #1
    __HAL_RCC_TIM7_CLK_ENABLE();
 80022f6:	9b01      	ldr	r3, [sp, #4]
    HAL_NVIC_SetPriority(TIM7_DAC_IRQn, 1, 0);
 80022f8:	f000 fb5a 	bl	80029b0 <HAL_NVIC_SetPriority>
    HAL_NVIC_EnableIRQ(TIM7_DAC_IRQn);
 80022fc:	2037      	movs	r0, #55	@ 0x37
 80022fe:	e7e6      	b.n	80022ce <HAL_TIM_Base_MspInit+0x2a>
  else if(htim_base->Instance==TIM16)
 8002300:	4a11      	ldr	r2, [pc, #68]	@ (8002348 <HAL_TIM_Base_MspInit+0xa4>)
 8002302:	4293      	cmp	r3, r2
 8002304:	d10c      	bne.n	8002320 <HAL_TIM_Base_MspInit+0x7c>
    __HAL_RCC_TIM16_CLK_ENABLE();
 8002306:	4b0e      	ldr	r3, [pc, #56]	@ (8002340 <HAL_TIM_Base_MspInit+0x9c>)
 8002308:	6e1a      	ldr	r2, [r3, #96]	@ 0x60
 800230a:	f442 3200 	orr.w	r2, r2, #131072	@ 0x20000
 800230e:	661a      	str	r2, [r3, #96]	@ 0x60
 8002310:	6e1b      	ldr	r3, [r3, #96]	@ 0x60
 8002312:	f403 3300 	and.w	r3, r3, #131072	@ 0x20000
 8002316:	9302      	str	r3, [sp, #8]
 8002318:	9b02      	ldr	r3, [sp, #8]
}
 800231a:	b005      	add	sp, #20
 800231c:	f85d fb04 	ldr.w	pc, [sp], #4
  else if(htim_base->Instance==TIM17)
 8002320:	4a0a      	ldr	r2, [pc, #40]	@ (800234c <HAL_TIM_Base_MspInit+0xa8>)
 8002322:	4293      	cmp	r3, r2
 8002324:	d1f9      	bne.n	800231a <HAL_TIM_Base_MspInit+0x76>
    __HAL_RCC_TIM17_CLK_ENABLE();
 8002326:	4b06      	ldr	r3, [pc, #24]	@ (8002340 <HAL_TIM_Base_MspInit+0x9c>)
 8002328:	6e1a      	ldr	r2, [r3, #96]	@ 0x60
 800232a:	f442 2280 	orr.w	r2, r2, #262144	@ 0x40000
 800232e:	661a      	str	r2, [r3, #96]	@ 0x60
 8002330:	6e1b      	ldr	r3, [r3, #96]	@ 0x60
 8002332:	f403 2380 	and.w	r3, r3, #262144	@ 0x40000
 8002336:	9303      	str	r3, [sp, #12]
 8002338:	9b03      	ldr	r3, [sp, #12]
}
 800233a:	e7ee      	b.n	800231a <HAL_TIM_Base_MspInit+0x76>
 800233c:	40001000 	.word	0x40001000
 8002340:	40021000 	.word	0x40021000
 8002344:	40001400 	.word	0x40001400
 8002348:	40014400 	.word	0x40014400
 800234c:	40014800 	.word	0x40014800

08002350 <HAL_TIM_MspPostInit>:

void HAL_TIM_MspPostInit(TIM_HandleTypeDef* htim)
{
 8002350:	b510      	push	{r4, lr}
 8002352:	4604      	mov	r4, r0
 8002354:	b090      	sub	sp, #64	@ 0x40
  GPIO_InitTypeDef GPIO_InitStruct = {0};
 8002356:	2214      	movs	r2, #20
 8002358:	2100      	movs	r1, #0
 800235a:	a80b      	add	r0, sp, #44	@ 0x2c
 800235c:	f005 ff69 	bl	8008232 <memset>
  if(htim->Instance==TIM1)
 8002360:	6823      	ldr	r3, [r4, #0]
 8002362:	4a62      	ldr	r2, [pc, #392]	@ (80024ec <HAL_TIM_MspPostInit+0x19c>)
 8002364:	4293      	cmp	r3, r2
 8002366:	d115      	bne.n	8002394 <HAL_TIM_MspPostInit+0x44>
  {
    /* USER CODE BEGIN TIM1_MspPostInit 0 */

    /* USER CODE END TIM1_MspPostInit 0 */
    __HAL_RCC_GPIOC_CLK_ENABLE();
 8002368:	4b61      	ldr	r3, [pc, #388]	@ (80024f0 <HAL_TIM_MspPostInit+0x1a0>)
 800236a:	6cda      	ldr	r2, [r3, #76]	@ 0x4c
 800236c:	f042 0204 	orr.w	r2, r2, #4
 8002370:	64da      	str	r2, [r3, #76]	@ 0x4c
 8002372:	6cdb      	ldr	r3, [r3, #76]	@ 0x4c
 8002374:	f003 0304 	and.w	r3, r3, #4
 8002378:	9301      	str	r3, [sp, #4]
 800237a:	9b01      	ldr	r3, [sp, #4]
    /**TIM1 GPIO Configuration
    PC0     ------> TIM1_CH1
    */
    GPIO_InitStruct.Pin = GPIO_PIN_0;
    GPIO_InitStruct.Mode = GPIO_MODE_AF_PP;
 800237c:	f04f 0e01 	mov.w	lr, #1
 8002380:	2302      	movs	r3, #2
 8002382:	e9cd e30b 	strd	lr, r3, [sp, #44]	@ 0x2c
    GPIO_InitStruct.Pin = GPIO_PIN_6;
    GPIO_InitStruct.Mode = GPIO_MODE_AF_PP;
    GPIO_InitStruct.Pull = GPIO_NOPULL;
    GPIO_InitStruct.Speed = GPIO_SPEED_FREQ_LOW;
    GPIO_InitStruct.Alternate = GPIO_AF4_TIM8;
    HAL_GPIO_Init(GPIOC, &GPIO_InitStruct);
 8002386:	485b      	ldr	r0, [pc, #364]	@ (80024f4 <HAL_TIM_MspPostInit+0x1a4>)
    GPIO_InitStruct.Alternate = GPIO_AF4_TIM8;
 8002388:	930f      	str	r3, [sp, #60]	@ 0x3c
    HAL_GPIO_Init(GPIOC, &GPIO_InitStruct);
 800238a:	a90b      	add	r1, sp, #44	@ 0x2c
    GPIO_InitStruct.Pin = GPIO_PIN_2;
    GPIO_InitStruct.Mode = GPIO_MODE_AF_PP;
    GPIO_InitStruct.Pull = GPIO_NOPULL;
    GPIO_InitStruct.Speed = GPIO_SPEED_FREQ_LOW;
    GPIO_InitStruct.Alternate = GPIO_AF3_TIM20;
    HAL_GPIO_Init(GPIOB, &GPIO_InitStruct);
 800238c:	f000 fbd2 	bl	8002b34 <HAL_GPIO_Init>
    /* USER CODE BEGIN TIM20_MspPostInit 1 */

    /* USER CODE END TIM20_MspPostInit 1 */
  }

}
 8002390:	b010      	add	sp, #64	@ 0x40
 8002392:	bd10      	pop	{r4, pc}
  else if(htim->Instance==TIM2)
 8002394:	f1b3 4f80 	cmp.w	r3, #1073741824	@ 0x40000000
 8002398:	d110      	bne.n	80023bc <HAL_TIM_MspPostInit+0x6c>
    __HAL_RCC_GPIOA_CLK_ENABLE();
 800239a:	f503 3304 	add.w	r3, r3, #135168	@ 0x21000
 800239e:	6cda      	ldr	r2, [r3, #76]	@ 0x4c
 80023a0:	f042 0201 	orr.w	r2, r2, #1
 80023a4:	64da      	str	r2, [r3, #76]	@ 0x4c
 80023a6:	6cdb      	ldr	r3, [r3, #76]	@ 0x4c
 80023a8:	f003 0301 	and.w	r3, r3, #1
 80023ac:	9302      	str	r3, [sp, #8]
 80023ae:	9b02      	ldr	r3, [sp, #8]
    GPIO_InitStruct.Pin = GPIO_PIN_5;
 80023b0:	2320      	movs	r3, #32
    GPIO_InitStruct.Pin = GPIO_PIN_7;
 80023b2:	930b      	str	r3, [sp, #44]	@ 0x2c
    GPIO_InitStruct.Mode = GPIO_MODE_AF_PP;
 80023b4:	2302      	movs	r3, #2
 80023b6:	930c      	str	r3, [sp, #48]	@ 0x30
    GPIO_InitStruct.Alternate = GPIO_AF1_TIM17;
 80023b8:	2301      	movs	r3, #1
 80023ba:	e010      	b.n	80023de <HAL_TIM_MspPostInit+0x8e>
  else if(htim->Instance==TIM3)
 80023bc:	4a4e      	ldr	r2, [pc, #312]	@ (80024f8 <HAL_TIM_MspPostInit+0x1a8>)
 80023be:	4293      	cmp	r3, r2
 80023c0:	d112      	bne.n	80023e8 <HAL_TIM_MspPostInit+0x98>
    __HAL_RCC_GPIOA_CLK_ENABLE();
 80023c2:	4b4b      	ldr	r3, [pc, #300]	@ (80024f0 <HAL_TIM_MspPostInit+0x1a0>)
 80023c4:	6cda      	ldr	r2, [r3, #76]	@ 0x4c
 80023c6:	f042 0201 	orr.w	r2, r2, #1
 80023ca:	64da      	str	r2, [r3, #76]	@ 0x4c
 80023cc:	6cdb      	ldr	r3, [r3, #76]	@ 0x4c
 80023ce:	f003 0301 	and.w	r3, r3, #1
 80023d2:	9303      	str	r3, [sp, #12]
 80023d4:	9b03      	ldr	r3, [sp, #12]
    GPIO_InitStruct.Pin = GPIO_PIN_6;
 80023d6:	2340      	movs	r3, #64	@ 0x40
    GPIO_InitStruct.Pin = GPIO_PIN_0;
 80023d8:	930b      	str	r3, [sp, #44]	@ 0x2c
    GPIO_InitStruct.Mode = GPIO_MODE_AF_PP;
 80023da:	2302      	movs	r3, #2
 80023dc:	930c      	str	r3, [sp, #48]	@ 0x30
    GPIO_InitStruct.Alternate = GPIO_AF1_TIM17;
 80023de:	930f      	str	r3, [sp, #60]	@ 0x3c
    HAL_GPIO_Init(GPIOA, &GPIO_InitStruct);
 80023e0:	a90b      	add	r1, sp, #44	@ 0x2c
 80023e2:	f04f 4090 	mov.w	r0, #1207959552	@ 0x48000000
 80023e6:	e7d1      	b.n	800238c <HAL_TIM_MspPostInit+0x3c>
  else if(htim->Instance==TIM4)
 80023e8:	4a44      	ldr	r2, [pc, #272]	@ (80024fc <HAL_TIM_MspPostInit+0x1ac>)
 80023ea:	4293      	cmp	r3, r2
 80023ec:	d112      	bne.n	8002414 <HAL_TIM_MspPostInit+0xc4>
    __HAL_RCC_GPIOB_CLK_ENABLE();
 80023ee:	4b40      	ldr	r3, [pc, #256]	@ (80024f0 <HAL_TIM_MspPostInit+0x1a0>)
 80023f0:	6cda      	ldr	r2, [r3, #76]	@ 0x4c
 80023f2:	f042 0202 	orr.w	r2, r2, #2
 80023f6:	64da      	str	r2, [r3, #76]	@ 0x4c
 80023f8:	6cdb      	ldr	r3, [r3, #76]	@ 0x4c
 80023fa:	f003 0302 	and.w	r3, r3, #2
 80023fe:	9304      	str	r3, [sp, #16]
 8002400:	9b04      	ldr	r3, [sp, #16]
    GPIO_InitStruct.Mode = GPIO_MODE_AF_PP;
 8002402:	f04f 0c40 	mov.w	ip, #64	@ 0x40
 8002406:	2302      	movs	r3, #2
 8002408:	e9cd c30b 	strd	ip, r3, [sp, #44]	@ 0x2c
    HAL_GPIO_Init(GPIOB, &GPIO_InitStruct);
 800240c:	483c      	ldr	r0, [pc, #240]	@ (8002500 <HAL_TIM_MspPostInit+0x1b0>)
    GPIO_InitStruct.Alternate = GPIO_AF3_TIM20;
 800240e:	930f      	str	r3, [sp, #60]	@ 0x3c
    HAL_GPIO_Init(GPIOB, &GPIO_InitStruct);
 8002410:	a90b      	add	r1, sp, #44	@ 0x2c
 8002412:	e7bb      	b.n	800238c <HAL_TIM_MspPostInit+0x3c>
  else if(htim->Instance==TIM5)
 8002414:	4a3b      	ldr	r2, [pc, #236]	@ (8002504 <HAL_TIM_MspPostInit+0x1b4>)
 8002416:	4293      	cmp	r3, r2
 8002418:	d10b      	bne.n	8002432 <HAL_TIM_MspPostInit+0xe2>
    __HAL_RCC_GPIOA_CLK_ENABLE();
 800241a:	4b35      	ldr	r3, [pc, #212]	@ (80024f0 <HAL_TIM_MspPostInit+0x1a0>)
 800241c:	6cda      	ldr	r2, [r3, #76]	@ 0x4c
 800241e:	f042 0201 	orr.w	r2, r2, #1
 8002422:	64da      	str	r2, [r3, #76]	@ 0x4c
 8002424:	6cdb      	ldr	r3, [r3, #76]	@ 0x4c
 8002426:	f003 0301 	and.w	r3, r3, #1
 800242a:	9305      	str	r3, [sp, #20]
 800242c:	9b05      	ldr	r3, [sp, #20]
    GPIO_InitStruct.Pin = GPIO_PIN_0;
 800242e:	2301      	movs	r3, #1
 8002430:	e7d2      	b.n	80023d8 <HAL_TIM_MspPostInit+0x88>
  else if(htim->Instance==TIM8)
 8002432:	4a35      	ldr	r2, [pc, #212]	@ (8002508 <HAL_TIM_MspPostInit+0x1b8>)
 8002434:	4293      	cmp	r3, r2
 8002436:	d10f      	bne.n	8002458 <HAL_TIM_MspPostInit+0x108>
    __HAL_RCC_GPIOC_CLK_ENABLE();
 8002438:	4b2d      	ldr	r3, [pc, #180]	@ (80024f0 <HAL_TIM_MspPostInit+0x1a0>)
 800243a:	6cda      	ldr	r2, [r3, #76]	@ 0x4c
 800243c:	f042 0204 	orr.w	r2, r2, #4
 8002440:	64da      	str	r2, [r3, #76]	@ 0x4c
 8002442:	6cdb      	ldr	r3, [r3, #76]	@ 0x4c
 8002444:	f003 0304 	and.w	r3, r3, #4
 8002448:	9306      	str	r3, [sp, #24]
 800244a:	9b06      	ldr	r3, [sp, #24]
    GPIO_InitStruct.Mode = GPIO_MODE_AF_PP;
 800244c:	2440      	movs	r4, #64	@ 0x40
 800244e:	2302      	movs	r3, #2
 8002450:	e9cd 430b 	strd	r4, r3, [sp, #44]	@ 0x2c
    GPIO_InitStruct.Alternate = GPIO_AF4_TIM8;
 8002454:	2304      	movs	r3, #4
 8002456:	e796      	b.n	8002386 <HAL_TIM_MspPostInit+0x36>
  else if(htim->Instance==TIM15)
 8002458:	4a2c      	ldr	r2, [pc, #176]	@ (800250c <HAL_TIM_MspPostInit+0x1bc>)
 800245a:	4293      	cmp	r3, r2
 800245c:	d10f      	bne.n	800247e <HAL_TIM_MspPostInit+0x12e>
    __HAL_RCC_GPIOA_CLK_ENABLE();
 800245e:	4b24      	ldr	r3, [pc, #144]	@ (80024f0 <HAL_TIM_MspPostInit+0x1a0>)
 8002460:	6cda      	ldr	r2, [r3, #76]	@ 0x4c
 8002462:	f042 0201 	orr.w	r2, r2, #1
 8002466:	64da      	str	r2, [r3, #76]	@ 0x4c
 8002468:	6cdb      	ldr	r3, [r3, #76]	@ 0x4c
 800246a:	f003 0301 	and.w	r3, r3, #1
 800246e:	9307      	str	r3, [sp, #28]
 8002470:	9b07      	ldr	r3, [sp, #28]
    GPIO_InitStruct.Mode = GPIO_MODE_AF_PP;
 8002472:	2004      	movs	r0, #4
 8002474:	2302      	movs	r3, #2
 8002476:	e9cd 030b 	strd	r0, r3, [sp, #44]	@ 0x2c
    GPIO_InitStruct.Alternate = GPIO_AF9_TIM15;
 800247a:	2309      	movs	r3, #9
 800247c:	e7af      	b.n	80023de <HAL_TIM_MspPostInit+0x8e>
  else if(htim->Instance==TIM16)
 800247e:	4a24      	ldr	r2, [pc, #144]	@ (8002510 <HAL_TIM_MspPostInit+0x1c0>)
 8002480:	4293      	cmp	r3, r2
 8002482:	d10f      	bne.n	80024a4 <HAL_TIM_MspPostInit+0x154>
    __HAL_RCC_GPIOB_CLK_ENABLE();
 8002484:	4b1a      	ldr	r3, [pc, #104]	@ (80024f0 <HAL_TIM_MspPostInit+0x1a0>)
 8002486:	6cda      	ldr	r2, [r3, #76]	@ 0x4c
 8002488:	f042 0202 	orr.w	r2, r2, #2
 800248c:	64da      	str	r2, [r3, #76]	@ 0x4c
 800248e:	6cdb      	ldr	r3, [r3, #76]	@ 0x4c
 8002490:	f003 0302 	and.w	r3, r3, #2
 8002494:	9308      	str	r3, [sp, #32]
 8002496:	9b08      	ldr	r3, [sp, #32]
    GPIO_InitStruct.Mode = GPIO_MODE_AF_PP;
 8002498:	2110      	movs	r1, #16
 800249a:	2302      	movs	r3, #2
 800249c:	e9cd 130b 	strd	r1, r3, [sp, #44]	@ 0x2c
    GPIO_InitStruct.Alternate = GPIO_AF1_TIM16;
 80024a0:	2301      	movs	r3, #1
 80024a2:	e7b3      	b.n	800240c <HAL_TIM_MspPostInit+0xbc>
  else if(htim->Instance==TIM17)
 80024a4:	4a1b      	ldr	r2, [pc, #108]	@ (8002514 <HAL_TIM_MspPostInit+0x1c4>)
 80024a6:	4293      	cmp	r3, r2
 80024a8:	d10b      	bne.n	80024c2 <HAL_TIM_MspPostInit+0x172>
    __HAL_RCC_GPIOA_CLK_ENABLE();
 80024aa:	4b11      	ldr	r3, [pc, #68]	@ (80024f0 <HAL_TIM_MspPostInit+0x1a0>)
 80024ac:	6cda      	ldr	r2, [r3, #76]	@ 0x4c
 80024ae:	f042 0201 	orr.w	r2, r2, #1
 80024b2:	64da      	str	r2, [r3, #76]	@ 0x4c
 80024b4:	6cdb      	ldr	r3, [r3, #76]	@ 0x4c
 80024b6:	f003 0301 	and.w	r3, r3, #1
 80024ba:	9309      	str	r3, [sp, #36]	@ 0x24
 80024bc:	9b09      	ldr	r3, [sp, #36]	@ 0x24
    GPIO_InitStruct.Pin = GPIO_PIN_7;
 80024be:	2380      	movs	r3, #128	@ 0x80
 80024c0:	e777      	b.n	80023b2 <HAL_TIM_MspPostInit+0x62>
  else if(htim->Instance==TIM20)
 80024c2:	4a15      	ldr	r2, [pc, #84]	@ (8002518 <HAL_TIM_MspPostInit+0x1c8>)
 80024c4:	4293      	cmp	r3, r2
 80024c6:	f47f af63 	bne.w	8002390 <HAL_TIM_MspPostInit+0x40>
    __HAL_RCC_GPIOB_CLK_ENABLE();
 80024ca:	4b09      	ldr	r3, [pc, #36]	@ (80024f0 <HAL_TIM_MspPostInit+0x1a0>)
 80024cc:	6cda      	ldr	r2, [r3, #76]	@ 0x4c
 80024ce:	f042 0202 	orr.w	r2, r2, #2
 80024d2:	64da      	str	r2, [r3, #76]	@ 0x4c
 80024d4:	6cdb      	ldr	r3, [r3, #76]	@ 0x4c
 80024d6:	f003 0302 	and.w	r3, r3, #2
 80024da:	930a      	str	r3, [sp, #40]	@ 0x28
 80024dc:	9b0a      	ldr	r3, [sp, #40]	@ 0x28
    GPIO_InitStruct.Mode = GPIO_MODE_AF_PP;
 80024de:	2204      	movs	r2, #4
 80024e0:	2302      	movs	r3, #2
 80024e2:	e9cd 230b 	strd	r2, r3, [sp, #44]	@ 0x2c
    GPIO_InitStruct.Alternate = GPIO_AF3_TIM20;
 80024e6:	2303      	movs	r3, #3
 80024e8:	e790      	b.n	800240c <HAL_TIM_MspPostInit+0xbc>
 80024ea:	bf00      	nop
 80024ec:	40012c00 	.word	0x40012c00
 80024f0:	40021000 	.word	0x40021000
 80024f4:	48000800 	.word	0x48000800
 80024f8:	40000400 	.word	0x40000400
 80024fc:	40000800 	.word	0x40000800
 8002500:	48000400 	.word	0x48000400
 8002504:	40000c00 	.word	0x40000c00
 8002508:	40013400 	.word	0x40013400
 800250c:	40014000 	.word	0x40014000
 8002510:	40014400 	.word	0x40014400
 8002514:	40014800 	.word	0x40014800
 8002518:	40015000 	.word	0x40015000

0800251c <HAL_UART_MspInit>:
  * This function configures the hardware resources used in this example
  * @param huart: UART handle pointer
  * @retval None
  */
void HAL_UART_MspInit(UART_HandleTypeDef* huart)
{
 800251c:	b5f0      	push	{r4, r5, r6, r7, lr}
 800251e:	b0a1      	sub	sp, #132	@ 0x84
 8002520:	4604      	mov	r4, r0
  GPIO_InitTypeDef GPIO_InitStruct = {0};
 8002522:	2214      	movs	r2, #20
 8002524:	2100      	movs	r1, #0
 8002526:	a806      	add	r0, sp, #24
 8002528:	f005 fe83 	bl	8008232 <memset>
  RCC_PeriphCLKInitTypeDef PeriphClkInit = {0};
 800252c:	2254      	movs	r2, #84	@ 0x54
 800252e:	2100      	movs	r1, #0
 8002530:	a80b      	add	r0, sp, #44	@ 0x2c
 8002532:	f005 fe7e 	bl	8008232 <memset>
  if(huart->Instance==USART1)
 8002536:	6823      	ldr	r3, [r4, #0]
 8002538:	4a44      	ldr	r2, [pc, #272]	@ (800264c <HAL_UART_MspInit+0x130>)
 800253a:	4293      	cmp	r3, r2
 800253c:	d146      	bne.n	80025cc <HAL_UART_MspInit+0xb0>

    /* USER CODE END USART1_MspInit 0 */

  /** Initializes the peripherals clocks
  */
    PeriphClkInit.PeriphClockSelection = RCC_PERIPHCLK_USART1;
 800253e:	2301      	movs	r3, #1
    PeriphClkInit.Usart1ClockSelection = RCC_USART1CLKSOURCE_PCLK2;
    if (HAL_RCCEx_PeriphCLKConfig(&PeriphClkInit) != HAL_OK)
 8002540:	a80b      	add	r0, sp, #44	@ 0x2c
    PeriphClkInit.PeriphClockSelection = RCC_PERIPHCLK_USART1;
 8002542:	930b      	str	r3, [sp, #44]	@ 0x2c
    if (HAL_RCCEx_PeriphCLKConfig(&PeriphClkInit) != HAL_OK)
 8002544:	f002 f97a 	bl	800483c <HAL_RCCEx_PeriphCLKConfig>
 8002548:	b108      	cbz	r0, 800254e <HAL_UART_MspInit+0x32>
    {
      Error_Handler();
 800254a:	f7ff fc73 	bl	8001e34 <Error_Handler>
    }

    /* Peripheral clock enable */
    __HAL_RCC_USART1_CLK_ENABLE();
 800254e:	4b40      	ldr	r3, [pc, #256]	@ (8002650 <HAL_UART_MspInit+0x134>)
    GPIO_InitStruct.Pin = GPIO_PIN_5;
    GPIO_InitStruct.Mode = GPIO_MODE_AF_PP;
    GPIO_InitStruct.Pull = GPIO_NOPULL;
    GPIO_InitStruct.Speed = GPIO_SPEED_FREQ_LOW;
    GPIO_InitStruct.Alternate = GPIO_AF7_USART1;
    HAL_GPIO_Init(GPIOC, &GPIO_InitStruct);
 8002550:	4840      	ldr	r0, [pc, #256]	@ (8002654 <HAL_UART_MspInit+0x138>)
    __HAL_RCC_USART1_CLK_ENABLE();
 8002552:	6e1a      	ldr	r2, [r3, #96]	@ 0x60
 8002554:	f442 4280 	orr.w	r2, r2, #16384	@ 0x4000
 8002558:	661a      	str	r2, [r3, #96]	@ 0x60
 800255a:	6e1a      	ldr	r2, [r3, #96]	@ 0x60
 800255c:	f402 4280 	and.w	r2, r2, #16384	@ 0x4000
 8002560:	9200      	str	r2, [sp, #0]
 8002562:	9a00      	ldr	r2, [sp, #0]
    __HAL_RCC_GPIOC_CLK_ENABLE();
 8002564:	6cda      	ldr	r2, [r3, #76]	@ 0x4c
 8002566:	f042 0204 	orr.w	r2, r2, #4
 800256a:	64da      	str	r2, [r3, #76]	@ 0x4c
 800256c:	6cda      	ldr	r2, [r3, #76]	@ 0x4c
 800256e:	f002 0204 	and.w	r2, r2, #4
 8002572:	9201      	str	r2, [sp, #4]
 8002574:	9a01      	ldr	r2, [sp, #4]
    __HAL_RCC_GPIOA_CLK_ENABLE();
 8002576:	6cda      	ldr	r2, [r3, #76]	@ 0x4c
 8002578:	f042 0201 	orr.w	r2, r2, #1
 800257c:	64da      	str	r2, [r3, #76]	@ 0x4c
 800257e:	6cdb      	ldr	r3, [r3, #76]	@ 0x4c
 8002580:	f003 0301 	and.w	r3, r3, #1
 8002584:	9302      	str	r3, [sp, #8]
    GPIO_InitStruct.Mode = GPIO_MODE_AF_PP;
 8002586:	2502      	movs	r5, #2
    GPIO_InitStruct.Pull = GPIO_NOPULL;
 8002588:	2400      	movs	r4, #0
    __HAL_RCC_GPIOA_CLK_ENABLE();
 800258a:	9b02      	ldr	r3, [sp, #8]
    GPIO_InitStruct.Alternate = GPIO_AF7_USART1;
 800258c:	2607      	movs	r6, #7
    GPIO_InitStruct.Mode = GPIO_MODE_AF_PP;
 800258e:	2320      	movs	r3, #32
    HAL_GPIO_Init(GPIOC, &GPIO_InitStruct);
 8002590:	a906      	add	r1, sp, #24
    GPIO_InitStruct.Mode = GPIO_MODE_AF_PP;
 8002592:	e9cd 3506 	strd	r3, r5, [sp, #24]
    GPIO_InitStruct.Speed = GPIO_SPEED_FREQ_LOW;
 8002596:	e9cd 4408 	strd	r4, r4, [sp, #32]
    GPIO_InitStruct.Alternate = GPIO_AF7_USART1;
 800259a:	960a      	str	r6, [sp, #40]	@ 0x28
    HAL_GPIO_Init(GPIOC, &GPIO_InitStruct);
 800259c:	f000 faca 	bl	8002b34 <HAL_GPIO_Init>

    GPIO_InitStruct.Pin = GPIO_PIN_9;
 80025a0:	f44f 7300 	mov.w	r3, #512	@ 0x200
    GPIO_InitStruct.Mode = GPIO_MODE_AF_PP;
    GPIO_InitStruct.Pull = GPIO_NOPULL;
    GPIO_InitStruct.Speed = GPIO_SPEED_FREQ_LOW;
    GPIO_InitStruct.Alternate = GPIO_AF7_USART1;
    HAL_GPIO_Init(GPIOA, &GPIO_InitStruct);
 80025a4:	a906      	add	r1, sp, #24
 80025a6:	f04f 4090 	mov.w	r0, #1207959552	@ 0x48000000
    GPIO_InitStruct.Mode = GPIO_MODE_AF_PP;
 80025aa:	e9cd 3506 	strd	r3, r5, [sp, #24]
    GPIO_InitStruct.Speed = GPIO_SPEED_FREQ_LOW;
 80025ae:	e9cd 4408 	strd	r4, r4, [sp, #32]
    GPIO_InitStruct.Alternate = GPIO_AF7_USART1;
 80025b2:	960a      	str	r6, [sp, #40]	@ 0x28
    HAL_GPIO_Init(GPIOA, &GPIO_InitStruct);
 80025b4:	f000 fabe 	bl	8002b34 <HAL_GPIO_Init>

    /* USART1 interrupt Init */
    HAL_NVIC_SetPriority(USART1_IRQn, 2, 0);
 80025b8:	2025      	movs	r0, #37	@ 0x25
 80025ba:	4622      	mov	r2, r4
 80025bc:	4629      	mov	r1, r5
 80025be:	f000 f9f7 	bl	80029b0 <HAL_NVIC_SetPriority>
    HAL_NVIC_EnableIRQ(USART1_IRQn);
 80025c2:	2025      	movs	r0, #37	@ 0x25
 80025c4:	f000 fa26 	bl	8002a14 <HAL_NVIC_EnableIRQ>
    /* USER CODE BEGIN USART2_MspInit 1 */

    /* USER CODE END USART2_MspInit 1 */
  }

}
 80025c8:	b021      	add	sp, #132	@ 0x84
 80025ca:	bdf0      	pop	{r4, r5, r6, r7, pc}
  else if(huart->Instance==USART2)
 80025cc:	4a22      	ldr	r2, [pc, #136]	@ (8002658 <HAL_UART_MspInit+0x13c>)
 80025ce:	4293      	cmp	r3, r2
 80025d0:	d1fa      	bne.n	80025c8 <HAL_UART_MspInit+0xac>
    PeriphClkInit.PeriphClockSelection = RCC_PERIPHCLK_USART2;
 80025d2:	2302      	movs	r3, #2
    if (HAL_RCCEx_PeriphCLKConfig(&PeriphClkInit) != HAL_OK)
 80025d4:	a80b      	add	r0, sp, #44	@ 0x2c
    PeriphClkInit.PeriphClockSelection = RCC_PERIPHCLK_USART2;
 80025d6:	930b      	str	r3, [sp, #44]	@ 0x2c
    if (HAL_RCCEx_PeriphCLKConfig(&PeriphClkInit) != HAL_OK)
 80025d8:	f002 f930 	bl	800483c <HAL_RCCEx_PeriphCLKConfig>
 80025dc:	b108      	cbz	r0, 80025e2 <HAL_UART_MspInit+0xc6>
      Error_Handler();
 80025de:	f7ff fc29 	bl	8001e34 <Error_Handler>
    __HAL_RCC_USART2_CLK_ENABLE();
 80025e2:	4b1b      	ldr	r3, [pc, #108]	@ (8002650 <HAL_UART_MspInit+0x134>)
 80025e4:	6d9a      	ldr	r2, [r3, #88]	@ 0x58
 80025e6:	f442 3200 	orr.w	r2, r2, #131072	@ 0x20000
 80025ea:	659a      	str	r2, [r3, #88]	@ 0x58
 80025ec:	6d9a      	ldr	r2, [r3, #88]	@ 0x58
 80025ee:	f402 3200 	and.w	r2, r2, #131072	@ 0x20000
 80025f2:	9203      	str	r2, [sp, #12]
 80025f4:	9a03      	ldr	r2, [sp, #12]
    __HAL_RCC_GPIOA_CLK_ENABLE();
 80025f6:	6cda      	ldr	r2, [r3, #76]	@ 0x4c
 80025f8:	f042 0201 	orr.w	r2, r2, #1
 80025fc:	64da      	str	r2, [r3, #76]	@ 0x4c
 80025fe:	6cda      	ldr	r2, [r3, #76]	@ 0x4c
 8002600:	f002 0201 	and.w	r2, r2, #1
 8002604:	9204      	str	r2, [sp, #16]
 8002606:	9a04      	ldr	r2, [sp, #16]
    __HAL_RCC_GPIOB_CLK_ENABLE();
 8002608:	6cda      	ldr	r2, [r3, #76]	@ 0x4c
 800260a:	f042 0202 	orr.w	r2, r2, #2
 800260e:	64da      	str	r2, [r3, #76]	@ 0x4c
 8002610:	6cdb      	ldr	r3, [r3, #76]	@ 0x4c
 8002612:	f003 0302 	and.w	r3, r3, #2
 8002616:	9305      	str	r3, [sp, #20]
    GPIO_InitStruct.Mode = GPIO_MODE_AF_PP;
 8002618:	2708      	movs	r7, #8
 800261a:	2602      	movs	r6, #2
    GPIO_InitStruct.Pull = GPIO_NOPULL;
 800261c:	2400      	movs	r4, #0
    GPIO_InitStruct.Alternate = GPIO_AF7_USART2;
 800261e:	2507      	movs	r5, #7
    HAL_GPIO_Init(GPIOA, &GPIO_InitStruct);
 8002620:	a906      	add	r1, sp, #24
 8002622:	f04f 4090 	mov.w	r0, #1207959552	@ 0x48000000
    GPIO_InitStruct.Mode = GPIO_MODE_AF_PP;
 8002626:	e9cd 7606 	strd	r7, r6, [sp, #24]
    GPIO_InitStruct.Speed = GPIO_SPEED_FREQ_LOW;
 800262a:	e9cd 4408 	strd	r4, r4, [sp, #32]
    __HAL_RCC_GPIOB_CLK_ENABLE();
 800262e:	9b05      	ldr	r3, [sp, #20]
    GPIO_InitStruct.Alternate = GPIO_AF7_USART2;
 8002630:	950a      	str	r5, [sp, #40]	@ 0x28
    HAL_GPIO_Init(GPIOA, &GPIO_InitStruct);
 8002632:	f000 fa7f 	bl	8002b34 <HAL_GPIO_Init>
    HAL_GPIO_Init(GPIOB, &GPIO_InitStruct);
 8002636:	4809      	ldr	r0, [pc, #36]	@ (800265c <HAL_UART_MspInit+0x140>)
    GPIO_InitStruct.Alternate = GPIO_AF7_USART2;
 8002638:	950a      	str	r5, [sp, #40]	@ 0x28
    HAL_GPIO_Init(GPIOB, &GPIO_InitStruct);
 800263a:	a906      	add	r1, sp, #24
    GPIO_InitStruct.Mode = GPIO_MODE_AF_PP;
 800263c:	e9cd 7606 	strd	r7, r6, [sp, #24]
    GPIO_InitStruct.Speed = GPIO_SPEED_FREQ_LOW;
 8002640:	e9cd 4408 	strd	r4, r4, [sp, #32]
    HAL_GPIO_Init(GPIOB, &GPIO_InitStruct);
 8002644:	f000 fa76 	bl	8002b34 <HAL_GPIO_Init>
}
 8002648:	e7be      	b.n	80025c8 <HAL_UART_MspInit+0xac>
 800264a:	bf00      	nop
 800264c:	40013800 	.word	0x40013800
 8002650:	40021000 	.word	0x40021000
 8002654:	48000800 	.word	0x48000800
 8002658:	40004400 	.word	0x40004400
 800265c:	48000400 	.word	0x48000400

08002660 <NMI_Handler>:
{
  /* USER CODE BEGIN NonMaskableInt_IRQn 0 */

  /* USER CODE END NonMaskableInt_IRQn 0 */
  /* USER CODE BEGIN NonMaskableInt_IRQn 1 */
   while (1)
 8002660:	e7fe      	b.n	8002660 <NMI_Handler>

08002662 <HardFault_Handler>:
void HardFault_Handler(void)
{
  /* USER CODE BEGIN HardFault_IRQn 0 */

  /* USER CODE END HardFault_IRQn 0 */
  while (1)
 8002662:	e7fe      	b.n	8002662 <HardFault_Handler>

08002664 <MemManage_Handler>:
void MemManage_Handler(void)
{
  /* USER CODE BEGIN MemoryManagement_IRQn 0 */

  /* USER CODE END MemoryManagement_IRQn 0 */
  while (1)
 8002664:	e7fe      	b.n	8002664 <MemManage_Handler>

08002666 <BusFault_Handler>:
void BusFault_Handler(void)
{
  /* USER CODE BEGIN BusFault_IRQn 0 */

  /* USER CODE END BusFault_IRQn 0 */
  while (1)
 8002666:	e7fe      	b.n	8002666 <BusFault_Handler>

08002668 <UsageFault_Handler>:
void UsageFault_Handler(void)
{
  /* USER CODE BEGIN UsageFault_IRQn 0 */

  /* USER CODE END UsageFault_IRQn 0 */
  while (1)
 8002668:	e7fe      	b.n	8002668 <UsageFault_Handler>

0800266a <SVC_Handler>:

  /* USER CODE END SVCall_IRQn 0 */
  /* USER CODE BEGIN SVCall_IRQn 1 */

  /* USER CODE END SVCall_IRQn 1 */
}
 800266a:	4770      	bx	lr

0800266c <DebugMon_Handler>:

/**
  * @brief This function handles Debug monitor.
  */
void DebugMon_Handler(void)
 800266c:	4770      	bx	lr

0800266e <PendSV_Handler>:
}

/**
  * @brief This function handles Pendable request for system service.
  */
void PendSV_Handler(void)
 800266e:	4770      	bx	lr

08002670 <SysTick_Handler>:
void SysTick_Handler(void)
{
  /* USER CODE BEGIN SysTick_IRQn 0 */

  /* USER CODE END SysTick_IRQn 0 */
  HAL_IncTick();
 8002670:	f000 b966 	b.w	8002940 <HAL_IncTick>

08002674 <USB_LP_IRQHandler>:
void USB_LP_IRQHandler(void)
{
  /* USER CODE BEGIN USB_LP_IRQn 0 */

  /* USER CODE END USB_LP_IRQn 0 */
  HAL_PCD_IRQHandler(&hpcd_USB_FS);
 8002674:	4801      	ldr	r0, [pc, #4]	@ (800267c <USB_LP_IRQHandler+0x8>)
 8002676:	f000 bf25 	b.w	80034c4 <HAL_PCD_IRQHandler>
 800267a:	bf00      	nop
 800267c:	200020a0 	.word	0x200020a0

08002680 <USART1_IRQHandler>:
void USART1_IRQHandler(void)
{
  /* USER CODE BEGIN USART1_IRQn 0 */

  /* USER CODE END USART1_IRQn 0 */
  HAL_UART_IRQHandler(&huart1);
 8002680:	4801      	ldr	r0, [pc, #4]	@ (8002688 <USART1_IRQHandler+0x8>)
 8002682:	f002 bf9b 	b.w	80055bc <HAL_UART_IRQHandler>
 8002686:	bf00      	nop
 8002688:	2000050c 	.word	0x2000050c

0800268c <TIM6_DAC_IRQHandler>:
void TIM6_DAC_IRQHandler(void)
{
  /* USER CODE BEGIN TIM6_DAC_IRQn 0 */

  /* USER CODE END TIM6_DAC_IRQn 0 */
  HAL_TIM_IRQHandler(&htim6);
 800268c:	4801      	ldr	r0, [pc, #4]	@ (8002694 <TIM6_DAC_IRQHandler+0x8>)
 800268e:	f002 bbc5 	b.w	8004e1c <HAL_TIM_IRQHandler>
 8002692:	bf00      	nop
 8002694:	20000768 	.word	0x20000768

08002698 <TIM7_DAC_IRQHandler>:
void TIM7_DAC_IRQHandler(void)
{
  /* USER CODE BEGIN TIM7_DAC_IRQn 0 */

  /* USER CODE END TIM7_DAC_IRQn 0 */
  HAL_TIM_IRQHandler(&htim7);
 8002698:	4801      	ldr	r0, [pc, #4]	@ (80026a0 <TIM7_DAC_IRQHandler+0x8>)
 800269a:	f002 bbbf 	b.w	8004e1c <HAL_TIM_IRQHandler>
 800269e:	bf00      	nop
 80026a0:	2000071c 	.word	0x2000071c

080026a4 <_getpid>:
}

int _getpid(void)
{
  return 1;
}
 80026a4:	2001      	movs	r0, #1
 80026a6:	4770      	bx	lr

080026a8 <_kill>:

int _kill(int pid, int sig)
{
 80026a8:	b508      	push	{r3, lr}
  (void)pid;
  (void)sig;
  errno = EINVAL;
 80026aa:	f005 fe15 	bl	80082d8 <__errno>
 80026ae:	2316      	movs	r3, #22
 80026b0:	6003      	str	r3, [r0, #0]
  return -1;
}
 80026b2:	f04f 30ff 	mov.w	r0, #4294967295	@ 0xffffffff
 80026b6:	bd08      	pop	{r3, pc}

080026b8 <_exit>:

void _exit (int status)
{
 80026b8:	b508      	push	{r3, lr}
  errno = EINVAL;
 80026ba:	f005 fe0d 	bl	80082d8 <__errno>
 80026be:	2316      	movs	r3, #22
 80026c0:	6003      	str	r3, [r0, #0]
  _kill(status, -1);
  while (1) {}    /* Make sure we hang here */
 80026c2:	e7fe      	b.n	80026c2 <_exit+0xa>

080026c4 <_read>:
}

__attribute__((weak)) int _read(int file, char *ptr, int len)
{
 80026c4:	b570      	push	{r4, r5, r6, lr}
 80026c6:	460d      	mov	r5, r1
 80026c8:	4614      	mov	r4, r2
  (void)file;
  int DataIdx;

  for (DataIdx = 0; DataIdx < len; DataIdx++)
 80026ca:	460e      	mov	r6, r1
 80026cc:	1b73      	subs	r3, r6, r5
 80026ce:	429c      	cmp	r4, r3
 80026d0:	dc01      	bgt.n	80026d6 <_read+0x12>
  {
    *ptr++ = __io_getchar();
  }

  return len;
}
 80026d2:	4620      	mov	r0, r4
 80026d4:	bd70      	pop	{r4, r5, r6, pc}
    *ptr++ = __io_getchar();
 80026d6:	f3af 8000 	nop.w
 80026da:	f806 0b01 	strb.w	r0, [r6], #1
  for (DataIdx = 0; DataIdx < len; DataIdx++)
 80026de:	e7f5      	b.n	80026cc <_read+0x8>

080026e0 <_write>:

__attribute__((weak)) int _write(int file, char *ptr, int len)
{
 80026e0:	b570      	push	{r4, r5, r6, lr}
 80026e2:	460d      	mov	r5, r1
 80026e4:	4614      	mov	r4, r2
  (void)file;
  int DataIdx;

  for (DataIdx = 0; DataIdx < len; DataIdx++)
 80026e6:	460e      	mov	r6, r1
 80026e8:	1b73      	subs	r3, r6, r5
 80026ea:	429c      	cmp	r4, r3
 80026ec:	dc01      	bgt.n	80026f2 <_write+0x12>
  {
    __io_putchar(*ptr++);
  }
  return len;
}
 80026ee:	4620      	mov	r0, r4
 80026f0:	bd70      	pop	{r4, r5, r6, pc}
    __io_putchar(*ptr++);
 80026f2:	f816 0b01 	ldrb.w	r0, [r6], #1
 80026f6:	f3af 8000 	nop.w
  for (DataIdx = 0; DataIdx < len; DataIdx++)
 80026fa:	e7f5      	b.n	80026e8 <_write+0x8>

080026fc <_close>:

int _close(int file)
{
  (void)file;
  return -1;
}
 80026fc:	f04f 30ff 	mov.w	r0, #4294967295	@ 0xffffffff
 8002700:	4770      	bx	lr

08002702 <_fstat>:


int _fstat(int file, struct stat *st)
{
  (void)file;
  st->st_mode = S_IFCHR;
 8002702:	f44f 5300 	mov.w	r3, #8192	@ 0x2000
 8002706:	604b      	str	r3, [r1, #4]
  return 0;
}
 8002708:	2000      	movs	r0, #0
 800270a:	4770      	bx	lr

0800270c <_isatty>:

int _isatty(int file)
{
  (void)file;
  return 1;
}
 800270c:	2001      	movs	r0, #1
 800270e:	4770      	bx	lr

08002710 <_lseek>:
{
  (void)file;
  (void)ptr;
  (void)dir;
  return 0;
}
 8002710:	2000      	movs	r0, #0
 8002712:	4770      	bx	lr

08002714 <_sbrk>:
  const uint32_t stack_limit = (uint32_t)&_estack - (uint32_t)&_Min_Stack_Size;
  const uint8_t *max_heap = (uint8_t *)stack_limit;
  uint8_t *prev_heap_end;

  /* Initialize heap end at first call */
  if (NULL == __sbrk_heap_end)
 8002714:	4a0b      	ldr	r2, [pc, #44]	@ (8002744 <_sbrk+0x30>)
 8002716:	6811      	ldr	r1, [r2, #0]
{
 8002718:	b510      	push	{r4, lr}
 800271a:	4603      	mov	r3, r0
  if (NULL == __sbrk_heap_end)
 800271c:	b909      	cbnz	r1, 8002722 <_sbrk+0xe>
  {
    __sbrk_heap_end = &_end;
 800271e:	490a      	ldr	r1, [pc, #40]	@ (8002748 <_sbrk+0x34>)
 8002720:	6011      	str	r1, [r2, #0]
  }

  /* Protect heap from growing into the reserved MSP stack */
  if (__sbrk_heap_end + incr > max_heap)
 8002722:	6810      	ldr	r0, [r2, #0]
 8002724:	4909      	ldr	r1, [pc, #36]	@ (800274c <_sbrk+0x38>)
 8002726:	4c0a      	ldr	r4, [pc, #40]	@ (8002750 <_sbrk+0x3c>)
 8002728:	4403      	add	r3, r0
 800272a:	1b09      	subs	r1, r1, r4
 800272c:	428b      	cmp	r3, r1
 800272e:	d906      	bls.n	800273e <_sbrk+0x2a>
  {
    errno = ENOMEM;
 8002730:	f005 fdd2 	bl	80082d8 <__errno>
 8002734:	230c      	movs	r3, #12
 8002736:	6003      	str	r3, [r0, #0]
    return (void *)-1;
 8002738:	f04f 30ff 	mov.w	r0, #4294967295	@ 0xffffffff

  prev_heap_end = __sbrk_heap_end;
  __sbrk_heap_end += incr;

  return (void *)prev_heap_end;
}
 800273c:	bd10      	pop	{r4, pc}
  __sbrk_heap_end += incr;
 800273e:	6013      	str	r3, [r2, #0]
  return (void *)prev_heap_end;
 8002740:	e7fc      	b.n	800273c <_sbrk+0x28>
 8002742:	bf00      	nop
 8002744:	20000998 	.word	0x20000998
 8002748:	200024c8 	.word	0x200024c8
 800274c:	20020000 	.word	0x20020000
 8002750:	00000400 	.word	0x00000400

08002754 <SystemState_UpdateFromUSB>:



int8_t SystemState_UpdateFromUSB(SystemState *state, const uint8_t *buffer, uint8_t len){

	if (len < USB_PACKET_MIN_LEN){
 8002754:	2a37      	cmp	r2, #55	@ 0x37
int8_t SystemState_UpdateFromUSB(SystemState *state, const uint8_t *buffer, uint8_t len){
 8002756:	b530      	push	{r4, r5, lr}
	if (len < USB_PACKET_MIN_LEN){
 8002758:	d917      	bls.n	800278a <SystemState_UpdateFromUSB+0x36>
	}

	//memcpy(dest, src, num_bytes)

	//all 32 bytes of motors
	memcpy(state->motorValues, buffer + USB_OFFSET(USB_IDX_MOTOR_0), sizeof(state->motorValues));
 800275a:	460b      	mov	r3, r1
 800275c:	4602      	mov	r2, r0
 800275e:	f101 0420 	add.w	r4, r1, #32
 8002762:	f853 5b04 	ldr.w	r5, [r3], #4
 8002766:	f842 5b04 	str.w	r5, [r2], #4
 800276a:	42a3      	cmp	r3, r4
 800276c:	d1f9      	bne.n	8002762 <SystemState_UpdateFromUSB+0xe>

	//killstate
	memcpy(&state->killState, buffer + USB_OFFSET(USB_IDX_KILL_STATE), USB_WORD_SIZE);
 800276e:	6a0b      	ldr	r3, [r1, #32]
 8002770:	6203      	str	r3, [r0, #32]

	//poweroff
	memcpy(&state->powerOff, buffer + USB_OFFSET(USB_IDX_POWER_OFF), USB_WORD_SIZE);
 8002772:	6a4b      	ldr	r3, [r1, #36]	@ 0x24
 8002774:	6243      	str	r3, [r0, #36]	@ 0x24

	//rgb values
    memcpy(&state->servo1,   buffer + USB_OFFSET(USB_IDX_SERVO_1),   USB_WORD_SIZE);
 8002776:	6a8b      	ldr	r3, [r1, #40]	@ 0x28
 8002778:	6283      	str	r3, [r0, #40]	@ 0x28
    memcpy(&state->servo2, buffer + USB_OFFSET(USB_IDX_SERVO_2), USB_WORD_SIZE);
 800277a:	6acb      	ldr	r3, [r1, #44]	@ 0x2c
 800277c:	62c3      	str	r3, [r0, #44]	@ 0x2c
    memcpy(&state->dropper,  buffer + USB_OFFSET(USB_IDX_DROPPER),  USB_WORD_SIZE);
 800277e:	6b0b      	ldr	r3, [r1, #48]	@ 0x30
 8002780:	6303      	str	r3, [r0, #48]	@ 0x30
    memcpy(&state->torpedo,  buffer + USB_OFFSET(USB_IDX_TORPEDO),  USB_WORD_SIZE);
 8002782:	6b4b      	ldr	r3, [r1, #52]	@ 0x34
 8002784:	6343      	str	r3, [r0, #52]	@ 0x34

    return 0;
 8002786:	2000      	movs	r0, #0
}
 8002788:	bd30      	pop	{r4, r5, pc}
		return -1;
 800278a:	f04f 30ff 	mov.w	r0, #4294967295	@ 0xffffffff
 800278e:	e7fb      	b.n	8002788 <SystemState_UpdateFromUSB+0x34>

08002790 <SystemInit>:

void SystemInit(void)
{
  /* FPU settings ------------------------------------------------------------*/
  #if (__FPU_PRESENT == 1) && (__FPU_USED == 1)
    SCB->CPACR |= ((3UL << (10*2))|(3UL << (11*2)));  /* set CP10 and CP11 Full Access */
 8002790:	4a03      	ldr	r2, [pc, #12]	@ (80027a0 <SystemInit+0x10>)
 8002792:	f8d2 3088 	ldr.w	r3, [r2, #136]	@ 0x88
 8002796:	f443 0370 	orr.w	r3, r3, #15728640	@ 0xf00000
 800279a:	f8c2 3088 	str.w	r3, [r2, #136]	@ 0x88

  /* Configure the Vector Table location add offset address ------------------*/
#if defined(USER_VECT_TAB_ADDRESS)
  SCB->VTOR = VECT_TAB_BASE_ADDRESS | VECT_TAB_OFFSET; /* Vector Table Relocation in Internal SRAM */
#endif /* USER_VECT_TAB_ADDRESS */
}
 800279e:	4770      	bx	lr
 80027a0:	e000ed00 	.word	0xe000ed00

080027a4 <Torpedo_Start_Arming>:

static void Set_Torpedo_Neutral(void){
    __HAL_TIM_SET_COMPARE(&htim20, TIM_CHANNEL_1, TORPEDO_NEUTRAL);
}

void Torpedo_Start_Arming(void){
 80027a4:	b508      	push	{r3, lr}
    __HAL_TIM_SET_COMPARE(&htim20, TIM_CHANNEL_1, TORPEDO_NEUTRAL);
 80027a6:	4b06      	ldr	r3, [pc, #24]	@ (80027c0 <Torpedo_Start_Arming+0x1c>)
 80027a8:	681b      	ldr	r3, [r3, #0]
 80027aa:	f648 429f 	movw	r2, #35999	@ 0x8c9f
 80027ae:	635a      	str	r2, [r3, #52]	@ 0x34
    Set_Torpedo_Neutral();
    torpedoState = TORPEDO_ARMING;
 80027b0:	4b04      	ldr	r3, [pc, #16]	@ (80027c4 <Torpedo_Start_Arming+0x20>)
 80027b2:	2200      	movs	r2, #0
 80027b4:	701a      	strb	r2, [r3, #0]
    armingStartTime = HAL_GetTick();
 80027b6:	f000 f8cf 	bl	8002958 <HAL_GetTick>
 80027ba:	4b03      	ldr	r3, [pc, #12]	@ (80027c8 <Torpedo_Start_Arming+0x24>)
 80027bc:	6018      	str	r0, [r3, #0]
}
 80027be:	bd08      	pop	{r3, pc}
 80027c0:	200005a0 	.word	0x200005a0
 80027c4:	200009a4 	.word	0x200009a4
 80027c8:	200009a0 	.word	0x200009a0

080027cc <Torpedo_Init>:

void Torpedo_Init(SystemState *state){
 80027cc:	b508      	push	{r3, lr}
    systemState = state;
 80027ce:	4b05      	ldr	r3, [pc, #20]	@ (80027e4 <Torpedo_Init+0x18>)
    HAL_TIM_PWM_Start(&htim20, TIM_CHANNEL_1);
 80027d0:	2100      	movs	r1, #0
    systemState = state;
 80027d2:	6018      	str	r0, [r3, #0]
    HAL_TIM_PWM_Start(&htim20, TIM_CHANNEL_1);
 80027d4:	4804      	ldr	r0, [pc, #16]	@ (80027e8 <Torpedo_Init+0x1c>)
 80027d6:	f002 fe11 	bl	80053fc <HAL_TIM_PWM_Start>
    Torpedo_Start_Arming();
}
 80027da:	e8bd 4008 	ldmia.w	sp!, {r3, lr}
    Torpedo_Start_Arming();
 80027de:	f7ff bfe1 	b.w	80027a4 <Torpedo_Start_Arming>
 80027e2:	bf00      	nop
 80027e4:	2000099c 	.word	0x2000099c
 80027e8:	200005a0 	.word	0x200005a0

080027ec <Torpedo_Update>:

void Torpedo_Update(void){
 80027ec:	b510      	push	{r4, lr}
    switch(torpedoState){
 80027ee:	4c11      	ldr	r4, [pc, #68]	@ (8002834 <Torpedo_Update+0x48>)
 80027f0:	7823      	ldrb	r3, [r4, #0]
 80027f2:	2b01      	cmp	r3, #1
 80027f4:	d00e      	beq.n	8002814 <Torpedo_Update+0x28>
 80027f6:	2b02      	cmp	r3, #2
 80027f8:	d016      	beq.n	8002828 <Torpedo_Update+0x3c>
 80027fa:	b953      	cbnz	r3, 8002812 <Torpedo_Update+0x26>
        case TORPEDO_ARMING:
            if((HAL_GetTick() - armingStartTime) >= TORPEDO_ARM_TIME_MS)
 80027fc:	f000 f8ac 	bl	8002958 <HAL_GetTick>
 8002800:	4b0d      	ldr	r3, [pc, #52]	@ (8002838 <Torpedo_Update+0x4c>)
 8002802:	681b      	ldr	r3, [r3, #0]
 8002804:	1ac0      	subs	r0, r0, r3
 8002806:	f640 33b7 	movw	r3, #2999	@ 0xbb7
 800280a:	4298      	cmp	r0, r3
 800280c:	d901      	bls.n	8002812 <Torpedo_Update+0x26>
            {
                torpedoState = TORPEDO_READY;
 800280e:	2301      	movs	r3, #1
 8002810:	7023      	strb	r3, [r4, #0]
            break;

        default:
            break;
    }
}
 8002812:	bd10      	pop	{r4, pc}
            if(systemState->torpedo){
 8002814:	4a09      	ldr	r2, [pc, #36]	@ (800283c <Torpedo_Update+0x50>)
                __HAL_TIM_SET_COMPARE(&htim20, TIM_CHANNEL_1, TORPEDO_OPEN);
 8002816:	4b0a      	ldr	r3, [pc, #40]	@ (8002840 <Torpedo_Update+0x54>)
            if(systemState->torpedo){
 8002818:	6812      	ldr	r2, [r2, #0]
                __HAL_TIM_SET_COMPARE(&htim20, TIM_CHANNEL_1, TORPEDO_OPEN);
 800281a:	681b      	ldr	r3, [r3, #0]
            if(systemState->torpedo){
 800281c:	6b52      	ldr	r2, [r2, #52]	@ 0x34
 800281e:	b12a      	cbz	r2, 800282c <Torpedo_Update+0x40>
                __HAL_TIM_SET_COMPARE(&htim20, TIM_CHANNEL_1, TORPEDO_OPEN);
 8002820:	f24b 2220 	movw	r2, #45600	@ 0xb220
    __HAL_TIM_SET_COMPARE(&htim20, TIM_CHANNEL_1, TORPEDO_NEUTRAL);
 8002824:	635a      	str	r2, [r3, #52]	@ 0x34
}
 8002826:	e7f4      	b.n	8002812 <Torpedo_Update+0x26>
    __HAL_TIM_SET_COMPARE(&htim20, TIM_CHANNEL_1, TORPEDO_NEUTRAL);
 8002828:	4b05      	ldr	r3, [pc, #20]	@ (8002840 <Torpedo_Update+0x54>)
 800282a:	681b      	ldr	r3, [r3, #0]
 800282c:	f648 429f 	movw	r2, #35999	@ 0x8c9f
 8002830:	e7f8      	b.n	8002824 <Torpedo_Update+0x38>
 8002832:	bf00      	nop
 8002834:	200009a4 	.word	0x200009a4
 8002838:	200009a0 	.word	0x200009a0
 800283c:	2000099c 	.word	0x2000099c
 8002840:	200005a0 	.word	0x200005a0

08002844 <USB_Manager_Update>:
#include "system_state.h"
#include "usb_manager.h"
#include "main.h"


void USB_Manager_Update(SystemState *state){
 8002844:	b538      	push	{r3, r4, r5, lr}
	GPIO_PinState usbPresent = HAL_GPIO_ReadPin(GPIOC, VBUS_DETECT_Pin);
 8002846:	f44f 5180 	mov.w	r1, #4096	@ 0x1000
void USB_Manager_Update(SystemState *state){
 800284a:	4605      	mov	r5, r0
	GPIO_PinState usbPresent = HAL_GPIO_ReadPin(GPIOC, VBUS_DETECT_Pin);
 800284c:	480b      	ldr	r0, [pc, #44]	@ (800287c <USB_Manager_Update+0x38>)
 800284e:	f000 fa3b 	bl	8002cc8 <HAL_GPIO_ReadPin>

	if (usbPresent){
 8002852:	4604      	mov	r4, r0
 8002854:	b150      	cbz	r0, 800286c <USB_Manager_Update+0x28>
		  HAL_GPIO_WritePin(GPIOA, D__PU_Pin, GPIO_PIN_SET);
 8002856:	2201      	movs	r2, #1
 8002858:	f44f 6180 	mov.w	r1, #1024	@ 0x400
 800285c:	f04f 4090 	mov.w	r0, #1207959552	@ 0x48000000
 8002860:	f000 fa38 	bl	8002cd4 <HAL_GPIO_WritePin>
		  state->usbConnected = 1;
 8002864:	2401      	movs	r4, #1
 8002866:	f885 4040 	strb.w	r4, [r5, #64]	@ 0x40
	  else {
		  HAL_GPIO_WritePin(GPIOA, D__PU_Pin, GPIO_PIN_RESET);
		  state->usbConnected = 0;
	  }

}
 800286a:	bd38      	pop	{r3, r4, r5, pc}
		  HAL_GPIO_WritePin(GPIOA, D__PU_Pin, GPIO_PIN_RESET);
 800286c:	4602      	mov	r2, r0
 800286e:	f44f 6180 	mov.w	r1, #1024	@ 0x400
 8002872:	f04f 4090 	mov.w	r0, #1207959552	@ 0x48000000
 8002876:	f000 fa2d 	bl	8002cd4 <HAL_GPIO_WritePin>
		  state->usbConnected = 0;
 800287a:	e7f4      	b.n	8002866 <USB_Manager_Update+0x22>
 800287c:	48000800 	.word	0x48000800

08002880 <Reset_Handler>:

    .section	.text.Reset_Handler
	.weak	Reset_Handler
	.type	Reset_Handler, %function
Reset_Handler:
  ldr   r0, =_estack
 8002880:	480d      	ldr	r0, [pc, #52]	@ (80028b8 <LoopForever+0x2>)
  mov   sp, r0          /* set stack pointer */
 8002882:	4685      	mov	sp, r0

/* Call the clock system initialization function.*/
    bl  SystemInit
 8002884:	f7ff ff84 	bl	8002790 <SystemInit>

/* Copy the data segment initializers from flash to SRAM */
  ldr r0, =_sdata
 8002888:	480c      	ldr	r0, [pc, #48]	@ (80028bc <LoopForever+0x6>)
  ldr r1, =_edata
 800288a:	490d      	ldr	r1, [pc, #52]	@ (80028c0 <LoopForever+0xa>)
  ldr r2, =_sidata
 800288c:	4a0d      	ldr	r2, [pc, #52]	@ (80028c4 <LoopForever+0xe>)
  movs r3, #0
 800288e:	2300      	movs	r3, #0
  b	LoopCopyDataInit
 8002890:	e002      	b.n	8002898 <LoopCopyDataInit>

08002892 <CopyDataInit>:

CopyDataInit:
  ldr r4, [r2, r3]
 8002892:	58d4      	ldr	r4, [r2, r3]
  str r4, [r0, r3]
 8002894:	50c4      	str	r4, [r0, r3]
  adds r3, r3, #4
 8002896:	3304      	adds	r3, #4

08002898 <LoopCopyDataInit>:

LoopCopyDataInit:
  adds r4, r0, r3
 8002898:	18c4      	adds	r4, r0, r3
  cmp r4, r1
 800289a:	428c      	cmp	r4, r1
  bcc CopyDataInit
 800289c:	d3f9      	bcc.n	8002892 <CopyDataInit>
  
/* Zero fill the bss segment. */
  ldr r2, =_sbss
 800289e:	4a0a      	ldr	r2, [pc, #40]	@ (80028c8 <LoopForever+0x12>)
  ldr r4, =_ebss
 80028a0:	4c0a      	ldr	r4, [pc, #40]	@ (80028cc <LoopForever+0x16>)
  movs r3, #0
 80028a2:	2300      	movs	r3, #0
  b LoopFillZerobss
 80028a4:	e001      	b.n	80028aa <LoopFillZerobss>

080028a6 <FillZerobss>:

FillZerobss:
  str  r3, [r2]
 80028a6:	6013      	str	r3, [r2, #0]
  adds r2, r2, #4
 80028a8:	3204      	adds	r2, #4

080028aa <LoopFillZerobss>:

LoopFillZerobss:
  cmp r2, r4
 80028aa:	42a2      	cmp	r2, r4
  bcc FillZerobss
 80028ac:	d3fb      	bcc.n	80028a6 <FillZerobss>

/* Call static constructors */
    bl __libc_init_array
 80028ae:	f005 fd19 	bl	80082e4 <__libc_init_array>
/* Call the application's entry point.*/
	bl	main
 80028b2:	f7fe fe69 	bl	8001588 <main>

080028b6 <LoopForever>:

LoopForever:
    b LoopForever
 80028b6:	e7fe      	b.n	80028b6 <LoopForever>
  ldr   r0, =_estack
 80028b8:	20020000 	.word	0x20020000
  ldr r0, =_sdata
 80028bc:	20000000 	.word	0x20000000
  ldr r1, =_edata
 80028c0:	20000390 	.word	0x20000390
  ldr r2, =_sidata
 80028c4:	0800a4ec 	.word	0x0800a4ec
  ldr r2, =_sbss
 80028c8:	20000390 	.word	0x20000390
  ldr r4, =_ebss
 80028cc:	200024c8 	.word	0x200024c8

080028d0 <ADC1_2_IRQHandler>:
 * @retval : None
*/
    .section	.text.Default_Handler,"ax",%progbits
Default_Handler:
Infinite_Loop:
	b	Infinite_Loop
 80028d0:	e7fe      	b.n	80028d0 <ADC1_2_IRQHandler>
	...

080028d4 <HAL_InitTick>:
  *       implementation  in user file.
  * @param TickPriority: Tick interrupt priority.
  * @retval HAL status
  */
__weak HAL_StatusTypeDef HAL_InitTick(uint32_t TickPriority)
{
 80028d4:	b538      	push	{r3, r4, r5, lr}
  HAL_StatusTypeDef  status = HAL_OK;

  if (uwTickFreq != 0U)
 80028d6:	4b0f      	ldr	r3, [pc, #60]	@ (8002914 <HAL_InitTick+0x40>)
 80028d8:	681a      	ldr	r2, [r3, #0]
{
 80028da:	4605      	mov	r5, r0
  if (uwTickFreq != 0U)
 80028dc:	b90a      	cbnz	r2, 80028e2 <HAL_InitTick+0xe>
        status = HAL_ERROR;
      }
    }
    else
    {
      status = HAL_ERROR;
 80028de:	2001      	movs	r0, #1
    status = HAL_ERROR;
  }

  /* Return function status */
  return status;
}
 80028e0:	bd38      	pop	{r3, r4, r5, pc}
    if (HAL_SYSTICK_Config(SystemCoreClock / (1000U / uwTickFreq)) == 0U)
 80028e2:	f44f 737a 	mov.w	r3, #1000	@ 0x3e8
 80028e6:	fbb3 f3f2 	udiv	r3, r3, r2
 80028ea:	4a0b      	ldr	r2, [pc, #44]	@ (8002918 <HAL_InitTick+0x44>)
 80028ec:	6810      	ldr	r0, [r2, #0]
 80028ee:	fbb0 f0f3 	udiv	r0, r0, r3
 80028f2:	f000 f89d 	bl	8002a30 <HAL_SYSTICK_Config>
 80028f6:	4604      	mov	r4, r0
 80028f8:	2800      	cmp	r0, #0
 80028fa:	d1f0      	bne.n	80028de <HAL_InitTick+0xa>
      if (TickPriority < (1UL << __NVIC_PRIO_BITS))
 80028fc:	2d0f      	cmp	r5, #15
 80028fe:	d8ee      	bhi.n	80028de <HAL_InitTick+0xa>
        HAL_NVIC_SetPriority(SysTick_IRQn, TickPriority, 0U);
 8002900:	4602      	mov	r2, r0
 8002902:	4629      	mov	r1, r5
 8002904:	f04f 30ff 	mov.w	r0, #4294967295	@ 0xffffffff
 8002908:	f000 f852 	bl	80029b0 <HAL_NVIC_SetPriority>
        uwTickPrio = TickPriority;
 800290c:	4b03      	ldr	r3, [pc, #12]	@ (800291c <HAL_InitTick+0x48>)
 800290e:	4620      	mov	r0, r4
 8002910:	601d      	str	r5, [r3, #0]
  return status;
 8002912:	e7e5      	b.n	80028e0 <HAL_InitTick+0xc>
 8002914:	20000048 	.word	0x20000048
 8002918:	20000044 	.word	0x20000044
 800291c:	2000004c 	.word	0x2000004c

08002920 <HAL_Init>:
{
 8002920:	b510      	push	{r4, lr}
  HAL_NVIC_SetPriorityGrouping(NVIC_PRIORITYGROUP_4);
 8002922:	2003      	movs	r0, #3
 8002924:	f000 f832 	bl	800298c <HAL_NVIC_SetPriorityGrouping>
  if (HAL_InitTick(TICK_INT_PRIORITY) != HAL_OK)
 8002928:	200f      	movs	r0, #15
 800292a:	f7ff ffd3 	bl	80028d4 <HAL_InitTick>
 800292e:	4604      	mov	r4, r0
 8002930:	b918      	cbnz	r0, 800293a <HAL_Init+0x1a>
    HAL_MspInit();
 8002932:	f7ff fbc3 	bl	80020bc <HAL_MspInit>
}
 8002936:	4620      	mov	r0, r4
 8002938:	bd10      	pop	{r4, pc}
    status = HAL_ERROR;
 800293a:	2401      	movs	r4, #1
 800293c:	e7fb      	b.n	8002936 <HAL_Init+0x16>
	...

08002940 <HAL_IncTick>:
  *      implementations in user file.
  * @retval None
  */
__weak void HAL_IncTick(void)
{
  uwTick += uwTickFreq;
 8002940:	4a03      	ldr	r2, [pc, #12]	@ (8002950 <HAL_IncTick+0x10>)
 8002942:	4904      	ldr	r1, [pc, #16]	@ (8002954 <HAL_IncTick+0x14>)
 8002944:	6813      	ldr	r3, [r2, #0]
 8002946:	6809      	ldr	r1, [r1, #0]
 8002948:	440b      	add	r3, r1
 800294a:	6013      	str	r3, [r2, #0]
}
 800294c:	4770      	bx	lr
 800294e:	bf00      	nop
 8002950:	200009a8 	.word	0x200009a8
 8002954:	20000048 	.word	0x20000048

08002958 <HAL_GetTick>:
  *       implementations in user file.
  * @retval tick value
  */
__weak uint32_t HAL_GetTick(void)
{
  return uwTick;
 8002958:	4b01      	ldr	r3, [pc, #4]	@ (8002960 <HAL_GetTick+0x8>)
 800295a:	6818      	ldr	r0, [r3, #0]
}
 800295c:	4770      	bx	lr
 800295e:	bf00      	nop
 8002960:	200009a8 	.word	0x200009a8

08002964 <HAL_Delay>:
  *       implementations in user file.
  * @param Delay specifies the delay time length, in milliseconds.
  * @retval None
  */
__weak void HAL_Delay(uint32_t Delay)
{
 8002964:	b538      	push	{r3, r4, r5, lr}
 8002966:	4604      	mov	r4, r0
  uint32_t tickstart = HAL_GetTick();
 8002968:	f7ff fff6 	bl	8002958 <HAL_GetTick>
  uint32_t wait = Delay;

  /* Add a freq to guarantee minimum wait */
  if (wait < HAL_MAX_DELAY)
 800296c:	1c63      	adds	r3, r4, #1
  {
    wait += (uint32_t)(uwTickFreq);
 800296e:	bf1c      	itt	ne
 8002970:	4b05      	ldrne	r3, [pc, #20]	@ (8002988 <HAL_Delay+0x24>)
 8002972:	681b      	ldrne	r3, [r3, #0]
  uint32_t tickstart = HAL_GetTick();
 8002974:	4605      	mov	r5, r0
    wait += (uint32_t)(uwTickFreq);
 8002976:	bf18      	it	ne
 8002978:	18e4      	addne	r4, r4, r3
  }

  while ((HAL_GetTick() - tickstart) < wait)
 800297a:	f7ff ffed 	bl	8002958 <HAL_GetTick>
 800297e:	1b43      	subs	r3, r0, r5
 8002980:	42a3      	cmp	r3, r4
 8002982:	d3fa      	bcc.n	800297a <HAL_Delay+0x16>
  {
  }
}
 8002984:	bd38      	pop	{r3, r4, r5, pc}
 8002986:	bf00      	nop
 8002988:	20000048 	.word	0x20000048

0800298c <HAL_NVIC_SetPriorityGrouping>:
__STATIC_INLINE void __NVIC_SetPriorityGrouping(uint32_t PriorityGroup)
{
  uint32_t reg_value;
  uint32_t PriorityGroupTmp = (PriorityGroup & (uint32_t)0x07UL);             /* only values 0..7 are used          */

  reg_value  =  SCB->AIRCR;                                                   /* read old register configuration    */
 800298c:	4907      	ldr	r1, [pc, #28]	@ (80029ac <HAL_NVIC_SetPriorityGrouping+0x20>)
 800298e:	68ca      	ldr	r2, [r1, #12]
  reg_value &= ~((uint32_t)(SCB_AIRCR_VECTKEY_Msk | SCB_AIRCR_PRIGROUP_Msk)); /* clear bits to change               */
 8002990:	f422 62e0 	bic.w	r2, r2, #1792	@ 0x700
  reg_value  =  (reg_value                                   |
                ((uint32_t)0x5FAUL << SCB_AIRCR_VECTKEY_Pos) |
                (PriorityGroupTmp << SCB_AIRCR_PRIGROUP_Pos)  );              /* Insert write key and priority group */
 8002994:	0203      	lsls	r3, r0, #8
  reg_value &= ~((uint32_t)(SCB_AIRCR_VECTKEY_Msk | SCB_AIRCR_PRIGROUP_Msk)); /* clear bits to change               */
 8002996:	0412      	lsls	r2, r2, #16
                (PriorityGroupTmp << SCB_AIRCR_PRIGROUP_Pos)  );              /* Insert write key and priority group */
 8002998:	f403 63e0 	and.w	r3, r3, #1792	@ 0x700
  reg_value &= ~((uint32_t)(SCB_AIRCR_VECTKEY_Msk | SCB_AIRCR_PRIGROUP_Msk)); /* clear bits to change               */
 800299c:	0c12      	lsrs	r2, r2, #16
                ((uint32_t)0x5FAUL << SCB_AIRCR_VECTKEY_Pos) |
 800299e:	4313      	orrs	r3, r2
  reg_value  =  (reg_value                                   |
 80029a0:	f043 63bf 	orr.w	r3, r3, #100139008	@ 0x5f80000
 80029a4:	f443 3300 	orr.w	r3, r3, #131072	@ 0x20000
  SCB->AIRCR =  reg_value;
 80029a8:	60cb      	str	r3, [r1, #12]
  /* Check the parameters */
  assert_param(IS_NVIC_PRIORITY_GROUP(PriorityGroup));

  /* Set the PRIGROUP[10:8] bits according to the PriorityGroup parameter value */
  NVIC_SetPriorityGrouping(PriorityGroup);
}
 80029aa:	4770      	bx	lr
 80029ac:	e000ed00 	.word	0xe000ed00

080029b0 <HAL_NVIC_SetPriority>:
  \details Reads the priority grouping field from the NVIC Interrupt Controller.
  \return                Priority grouping field (SCB->AIRCR [10:8] PRIGROUP field).
 */
__STATIC_INLINE uint32_t __NVIC_GetPriorityGrouping(void)
{
  return ((uint32_t)((SCB->AIRCR & SCB_AIRCR_PRIGROUP_Msk) >> SCB_AIRCR_PRIGROUP_Pos));
 80029b0:	4b16      	ldr	r3, [pc, #88]	@ (8002a0c <HAL_NVIC_SetPriority+0x5c>)
  *         This parameter can be a value between 0 and 15
  *         A lower priority value indicates a higher priority.
  * @retval None
  */
void HAL_NVIC_SetPriority(IRQn_Type IRQn, uint32_t PreemptPriority, uint32_t SubPriority)
{
 80029b2:	b530      	push	{r4, r5, lr}
 80029b4:	68dc      	ldr	r4, [r3, #12]
 80029b6:	f3c4 2402 	ubfx	r4, r4, #8, #3
{
  uint32_t PriorityGroupTmp = (PriorityGroup & (uint32_t)0x07UL);   /* only values 0..7 are used          */
  uint32_t PreemptPriorityBits;
  uint32_t SubPriorityBits;

  PreemptPriorityBits = ((7UL - PriorityGroupTmp) > (uint32_t)(__NVIC_PRIO_BITS)) ? (uint32_t)(__NVIC_PRIO_BITS) : (uint32_t)(7UL - PriorityGroupTmp);
 80029ba:	f1c4 0307 	rsb	r3, r4, #7
  SubPriorityBits     = ((PriorityGroupTmp + (uint32_t)(__NVIC_PRIO_BITS)) < (uint32_t)7UL) ? (uint32_t)0UL : (uint32_t)((PriorityGroupTmp - 7UL) + (uint32_t)(__NVIC_PRIO_BITS));
 80029be:	1d25      	adds	r5, r4, #4
  PreemptPriorityBits = ((7UL - PriorityGroupTmp) > (uint32_t)(__NVIC_PRIO_BITS)) ? (uint32_t)(__NVIC_PRIO_BITS) : (uint32_t)(7UL - PriorityGroupTmp);
 80029c0:	2b04      	cmp	r3, #4
 80029c2:	bf28      	it	cs
 80029c4:	2304      	movcs	r3, #4
  SubPriorityBits     = ((PriorityGroupTmp + (uint32_t)(__NVIC_PRIO_BITS)) < (uint32_t)7UL) ? (uint32_t)0UL : (uint32_t)((PriorityGroupTmp - 7UL) + (uint32_t)(__NVIC_PRIO_BITS));
 80029c6:	2d06      	cmp	r5, #6

  return (
           ((PreemptPriority & (uint32_t)((1UL << (PreemptPriorityBits)) - 1UL)) << SubPriorityBits) |
 80029c8:	f04f 35ff 	mov.w	r5, #4294967295	@ 0xffffffff
  SubPriorityBits     = ((PriorityGroupTmp + (uint32_t)(__NVIC_PRIO_BITS)) < (uint32_t)7UL) ? (uint32_t)0UL : (uint32_t)((PriorityGroupTmp - 7UL) + (uint32_t)(__NVIC_PRIO_BITS));
 80029cc:	bf8c      	ite	hi
 80029ce:	3c03      	subhi	r4, #3
 80029d0:	2400      	movls	r4, #0
           ((PreemptPriority & (uint32_t)((1UL << (PreemptPriorityBits)) - 1UL)) << SubPriorityBits) |
 80029d2:	fa05 f303 	lsl.w	r3, r5, r3
 80029d6:	ea21 0303 	bic.w	r3, r1, r3
           ((SubPriority     & (uint32_t)((1UL << (SubPriorityBits    )) - 1UL)))
 80029da:	40a5      	lsls	r5, r4
 80029dc:	ea22 0205 	bic.w	r2, r2, r5
           ((PreemptPriority & (uint32_t)((1UL << (PreemptPriorityBits)) - 1UL)) << SubPriorityBits) |
 80029e0:	40a3      	lsls	r3, r4
  if ((int32_t)(IRQn) >= 0)
 80029e2:	2800      	cmp	r0, #0
           ((PreemptPriority & (uint32_t)((1UL << (PreemptPriorityBits)) - 1UL)) << SubPriorityBits) |
 80029e4:	ea43 0302 	orr.w	r3, r3, r2
    NVIC->IP[((uint32_t)IRQn)]               = (uint8_t)((priority << (8U - __NVIC_PRIO_BITS)) & (uint32_t)0xFFUL);
 80029e8:	bfac      	ite	ge
 80029ea:	f100 4060 	addge.w	r0, r0, #3758096384	@ 0xe0000000
    SCB->SHP[(((uint32_t)IRQn) & 0xFUL)-4UL] = (uint8_t)((priority << (8U - __NVIC_PRIO_BITS)) & (uint32_t)0xFFUL);
 80029ee:	4a08      	ldrlt	r2, [pc, #32]	@ (8002a10 <HAL_NVIC_SetPriority+0x60>)
    NVIC->IP[((uint32_t)IRQn)]               = (uint8_t)((priority << (8U - __NVIC_PRIO_BITS)) & (uint32_t)0xFFUL);
 80029f0:	ea4f 1303 	mov.w	r3, r3, lsl #4
    SCB->SHP[(((uint32_t)IRQn) & 0xFUL)-4UL] = (uint8_t)((priority << (8U - __NVIC_PRIO_BITS)) & (uint32_t)0xFFUL);
 80029f4:	bfb8      	it	lt
 80029f6:	f000 000f 	andlt.w	r0, r0, #15
    NVIC->IP[((uint32_t)IRQn)]               = (uint8_t)((priority << (8U - __NVIC_PRIO_BITS)) & (uint32_t)0xFFUL);
 80029fa:	b2db      	uxtb	r3, r3
 80029fc:	bfaa      	itet	ge
 80029fe:	f500 4061 	addge.w	r0, r0, #57600	@ 0xe100
    SCB->SHP[(((uint32_t)IRQn) & 0xFUL)-4UL] = (uint8_t)((priority << (8U - __NVIC_PRIO_BITS)) & (uint32_t)0xFFUL);
 8002a02:	5413      	strblt	r3, [r2, r0]
    NVIC->IP[((uint32_t)IRQn)]               = (uint8_t)((priority << (8U - __NVIC_PRIO_BITS)) & (uint32_t)0xFFUL);
 8002a04:	f880 3300 	strbge.w	r3, [r0, #768]	@ 0x300
  assert_param(IS_NVIC_PREEMPTION_PRIORITY(PreemptPriority));

  prioritygroup = NVIC_GetPriorityGrouping();

  NVIC_SetPriority(IRQn, NVIC_EncodePriority(prioritygroup, PreemptPriority, SubPriority));
}
 8002a08:	bd30      	pop	{r4, r5, pc}
 8002a0a:	bf00      	nop
 8002a0c:	e000ed00 	.word	0xe000ed00
 8002a10:	e000ed14 	.word	0xe000ed14

08002a14 <HAL_NVIC_EnableIRQ>:
  if ((int32_t)(IRQn) >= 0)
 8002a14:	2800      	cmp	r0, #0
 8002a16:	db07      	blt.n	8002a28 <HAL_NVIC_EnableIRQ+0x14>
    NVIC->ISER[(((uint32_t)IRQn) >> 5UL)] = (uint32_t)(1UL << (((uint32_t)IRQn) & 0x1FUL));
 8002a18:	4a04      	ldr	r2, [pc, #16]	@ (8002a2c <HAL_NVIC_EnableIRQ+0x18>)
 8002a1a:	0941      	lsrs	r1, r0, #5
 8002a1c:	2301      	movs	r3, #1
 8002a1e:	f000 001f 	and.w	r0, r0, #31
 8002a22:	4083      	lsls	r3, r0
 8002a24:	f842 3021 	str.w	r3, [r2, r1, lsl #2]
  /* Check the parameters */
  assert_param(IS_NVIC_DEVICE_IRQ(IRQn));
  
  /* Enable interrupt */
  NVIC_EnableIRQ(IRQn);
}
 8002a28:	4770      	bx	lr
 8002a2a:	bf00      	nop
 8002a2c:	e000e100 	.word	0xe000e100

08002a30 <HAL_SYSTICK_Config>:
           function <b>SysTick_Config</b> is not included. In this case, the file <b><i>device</i>.h</b>
           must contain a vendor-specific implementation of this function.
 */
__STATIC_INLINE uint32_t SysTick_Config(uint32_t ticks)
{
  if ((ticks - 1UL) > SysTick_LOAD_RELOAD_Msk)
 8002a30:	3801      	subs	r0, #1
 8002a32:	f1b0 7f80 	cmp.w	r0, #16777216	@ 0x1000000
 8002a36:	d20b      	bcs.n	8002a50 <HAL_SYSTICK_Config+0x20>
  {
    return (1UL);                                                   /* Reload value impossible */
  }

  SysTick->LOAD  = (uint32_t)(ticks - 1UL);                         /* set reload register */
 8002a38:	f04f 23e0 	mov.w	r3, #3758153728	@ 0xe000e000
    SCB->SHP[(((uint32_t)IRQn) & 0xFUL)-4UL] = (uint8_t)((priority << (8U - __NVIC_PRIO_BITS)) & (uint32_t)0xFFUL);
 8002a3c:	4a05      	ldr	r2, [pc, #20]	@ (8002a54 <HAL_SYSTICK_Config+0x24>)
  SysTick->LOAD  = (uint32_t)(ticks - 1UL);                         /* set reload register */
 8002a3e:	6158      	str	r0, [r3, #20]
    SCB->SHP[(((uint32_t)IRQn) & 0xFUL)-4UL] = (uint8_t)((priority << (8U - __NVIC_PRIO_BITS)) & (uint32_t)0xFFUL);
 8002a40:	21f0      	movs	r1, #240	@ 0xf0
 8002a42:	f882 1023 	strb.w	r1, [r2, #35]	@ 0x23
  NVIC_SetPriority (SysTick_IRQn, (1UL << __NVIC_PRIO_BITS) - 1UL); /* set Priority for Systick Interrupt */
  SysTick->VAL   = 0UL;                                             /* Load the SysTick Counter Value */
 8002a46:	2000      	movs	r0, #0
  SysTick->CTRL  = SysTick_CTRL_CLKSOURCE_Msk |
 8002a48:	2207      	movs	r2, #7
  SysTick->VAL   = 0UL;                                             /* Load the SysTick Counter Value */
 8002a4a:	6198      	str	r0, [r3, #24]
  SysTick->CTRL  = SysTick_CTRL_CLKSOURCE_Msk |
 8002a4c:	611a      	str	r2, [r3, #16]
                   SysTick_CTRL_TICKINT_Msk   |
                   SysTick_CTRL_ENABLE_Msk;                         /* Enable SysTick IRQ and SysTick Timer */
  return (0UL);                                                     /* Function successful */
 8002a4e:	4770      	bx	lr
    return (1UL);                                                   /* Reload value impossible */
 8002a50:	2001      	movs	r0, #1
  *                  - 1  Function failed.
  */
uint32_t HAL_SYSTICK_Config(uint32_t TicksNumb)
{
   return SysTick_Config(TicksNumb);
}
 8002a52:	4770      	bx	lr
 8002a54:	e000ed00 	.word	0xe000ed00

08002a58 <HAL_DMA_Abort>:
  */
HAL_StatusTypeDef HAL_DMA_Abort(DMA_HandleTypeDef *hdma)
{
  HAL_StatusTypeDef status = HAL_OK;

  if(hdma->State != HAL_DMA_STATE_BUSY)
 8002a58:	f890 2025 	ldrb.w	r2, [r0, #37]	@ 0x25
 8002a5c:	2a02      	cmp	r2, #2
{
 8002a5e:	4603      	mov	r3, r0
  if(hdma->State != HAL_DMA_STATE_BUSY)
 8002a60:	d009      	beq.n	8002a76 <HAL_DMA_Abort+0x1e>
  {
    /* no transfer ongoing */
    hdma->ErrorCode = HAL_DMA_ERROR_NO_XFER;
 8002a62:	2204      	movs	r2, #4
 8002a64:	63c2      	str	r2, [r0, #60]	@ 0x3c

    status = HAL_ERROR;
 8002a66:	2001      	movs	r0, #1
       /* Clear the DMAMUX request generator overrun flag */
       hdma->DMAmuxRequestGenStatus->RGCFR = hdma->DMAmuxRequestGenStatusMask;
     }
  }  
  /* Change the DMA state */
  hdma->State = HAL_DMA_STATE_READY;
 8002a68:	2201      	movs	r2, #1
 8002a6a:	f883 2025 	strb.w	r2, [r3, #37]	@ 0x25

  /* Process Unlocked */
  __HAL_UNLOCK(hdma);
 8002a6e:	2200      	movs	r2, #0
 8002a70:	f883 2024 	strb.w	r2, [r3, #36]	@ 0x24

  return status;
}
 8002a74:	4770      	bx	lr
     __HAL_DMA_DISABLE_IT(hdma, (DMA_IT_TC | DMA_IT_HT | DMA_IT_TE));
 8002a76:	6802      	ldr	r2, [r0, #0]
     hdma->DMAmuxChannel->CCR &= ~DMAMUX_CxCR_SOIE;
 8002a78:	6c80      	ldr	r0, [r0, #72]	@ 0x48
     __HAL_DMA_DISABLE_IT(hdma, (DMA_IT_TC | DMA_IT_HT | DMA_IT_TE));
 8002a7a:	6811      	ldr	r1, [r2, #0]
 8002a7c:	f021 010e 	bic.w	r1, r1, #14
 8002a80:	6011      	str	r1, [r2, #0]
     hdma->DMAmuxChannel->CCR &= ~DMAMUX_CxCR_SOIE;
 8002a82:	6801      	ldr	r1, [r0, #0]
 8002a84:	f421 7180 	bic.w	r1, r1, #256	@ 0x100
 8002a88:	6001      	str	r1, [r0, #0]
     __HAL_DMA_DISABLE(hdma);
 8002a8a:	6811      	ldr	r1, [r2, #0]
 8002a8c:	f021 0101 	bic.w	r1, r1, #1
 8002a90:	6011      	str	r1, [r2, #0]
     hdma->DmaBaseAddress->IFCR = (DMA_ISR_GIF1 << (hdma->ChannelIndex & 0x1FU));
 8002a92:	e9d3 0210 	ldrd	r0, r2, [r3, #64]	@ 0x40
 8002a96:	f002 011f 	and.w	r1, r2, #31
 8002a9a:	2201      	movs	r2, #1
 8002a9c:	408a      	lsls	r2, r1
 8002a9e:	6042      	str	r2, [r0, #4]
     hdma->DMAmuxChannelStatus->CFR = hdma->DMAmuxChannelStatusMask;
 8002aa0:	e9d3 2113 	ldrd	r2, r1, [r3, #76]	@ 0x4c
 8002aa4:	6051      	str	r1, [r2, #4]
     if (hdma->DMAmuxRequestGen != 0U)
 8002aa6:	6d5a      	ldr	r2, [r3, #84]	@ 0x54
 8002aa8:	b132      	cbz	r2, 8002ab8 <HAL_DMA_Abort+0x60>
       hdma->DMAmuxRequestGen->RGCR &= ~DMAMUX_RGxCR_OIE;
 8002aaa:	6811      	ldr	r1, [r2, #0]
 8002aac:	f421 7180 	bic.w	r1, r1, #256	@ 0x100
 8002ab0:	6011      	str	r1, [r2, #0]
       hdma->DMAmuxRequestGenStatus->RGCFR = hdma->DMAmuxRequestGenStatusMask;
 8002ab2:	e9d3 2116 	ldrd	r2, r1, [r3, #88]	@ 0x58
 8002ab6:	6051      	str	r1, [r2, #4]
  HAL_StatusTypeDef status = HAL_OK;
 8002ab8:	2000      	movs	r0, #0
 8002aba:	e7d5      	b.n	8002a68 <HAL_DMA_Abort+0x10>

08002abc <HAL_DMA_Abort_IT>:
  * @param  hdma pointer to a DMA_HandleTypeDef structure that contains
  *              the configuration information for the specified DMA Channel.
  * @retval HAL status
  */
HAL_StatusTypeDef HAL_DMA_Abort_IT(DMA_HandleTypeDef *hdma)
{
 8002abc:	b508      	push	{r3, lr}
  HAL_StatusTypeDef status = HAL_OK;

  if (HAL_DMA_STATE_BUSY != hdma->State)
 8002abe:	f890 3025 	ldrb.w	r3, [r0, #37]	@ 0x25
 8002ac2:	2b02      	cmp	r3, #2
 8002ac4:	d009      	beq.n	8002ada <HAL_DMA_Abort_IT+0x1e>
  {
    /* no transfer ongoing */
    hdma->ErrorCode = HAL_DMA_ERROR_NO_XFER;
 8002ac6:	2304      	movs	r3, #4
 8002ac8:	63c3      	str	r3, [r0, #60]	@ 0x3c

    /* Change the DMA state */
    hdma->State = HAL_DMA_STATE_READY;

    /* Process Unlocked */
    __HAL_UNLOCK(hdma);
 8002aca:	2200      	movs	r2, #0
    hdma->State = HAL_DMA_STATE_READY;
 8002acc:	2301      	movs	r3, #1
 8002ace:	f880 3025 	strb.w	r3, [r0, #37]	@ 0x25
    __HAL_UNLOCK(hdma);
 8002ad2:	f880 2024 	strb.w	r2, [r0, #36]	@ 0x24

    status = HAL_ERROR;
 8002ad6:	4618      	mov	r0, r3
    {
      hdma->XferAbortCallback(hdma);
    }
  }
  return status;
}
 8002ad8:	bd08      	pop	{r3, pc}
    __HAL_DMA_DISABLE_IT(hdma, (DMA_IT_TC | DMA_IT_HT | DMA_IT_TE));
 8002ada:	6803      	ldr	r3, [r0, #0]
 8002adc:	681a      	ldr	r2, [r3, #0]
 8002ade:	f022 020e 	bic.w	r2, r2, #14
 8002ae2:	601a      	str	r2, [r3, #0]
    __HAL_DMA_DISABLE(hdma);
 8002ae4:	681a      	ldr	r2, [r3, #0]
 8002ae6:	f022 0201 	bic.w	r2, r2, #1
 8002aea:	601a      	str	r2, [r3, #0]
    hdma->DMAmuxChannel->CCR &= ~DMAMUX_CxCR_SOIE;
 8002aec:	6c82      	ldr	r2, [r0, #72]	@ 0x48
 8002aee:	6813      	ldr	r3, [r2, #0]
 8002af0:	f423 7380 	bic.w	r3, r3, #256	@ 0x100
 8002af4:	6013      	str	r3, [r2, #0]
    hdma->DmaBaseAddress->IFCR = (DMA_ISR_GIF1 << (hdma->ChannelIndex & 0x1FU));
 8002af6:	e9d0 1310 	ldrd	r1, r3, [r0, #64]	@ 0x40
 8002afa:	f003 021f 	and.w	r2, r3, #31
 8002afe:	2301      	movs	r3, #1
 8002b00:	4093      	lsls	r3, r2
 8002b02:	604b      	str	r3, [r1, #4]
    hdma->DMAmuxChannelStatus->CFR = hdma->DMAmuxChannelStatusMask;
 8002b04:	e9d0 3213 	ldrd	r3, r2, [r0, #76]	@ 0x4c
 8002b08:	605a      	str	r2, [r3, #4]
    if (hdma->DMAmuxRequestGen != 0U)
 8002b0a:	6d43      	ldr	r3, [r0, #84]	@ 0x54
 8002b0c:	b133      	cbz	r3, 8002b1c <HAL_DMA_Abort_IT+0x60>
      hdma->DMAmuxRequestGen->RGCR &= ~DMAMUX_RGxCR_OIE;
 8002b0e:	681a      	ldr	r2, [r3, #0]
 8002b10:	f422 7280 	bic.w	r2, r2, #256	@ 0x100
 8002b14:	601a      	str	r2, [r3, #0]
      hdma->DMAmuxRequestGenStatus->RGCFR = hdma->DMAmuxRequestGenStatusMask;
 8002b16:	e9d0 3216 	ldrd	r3, r2, [r0, #88]	@ 0x58
 8002b1a:	605a      	str	r2, [r3, #4]
    hdma->State = HAL_DMA_STATE_READY;
 8002b1c:	2301      	movs	r3, #1
 8002b1e:	f880 3025 	strb.w	r3, [r0, #37]	@ 0x25
    __HAL_UNLOCK(hdma);
 8002b22:	2300      	movs	r3, #0
 8002b24:	f880 3024 	strb.w	r3, [r0, #36]	@ 0x24
    if (hdma->XferAbortCallback != NULL)
 8002b28:	6b83      	ldr	r3, [r0, #56]	@ 0x38
 8002b2a:	b103      	cbz	r3, 8002b2e <HAL_DMA_Abort_IT+0x72>
      hdma->XferAbortCallback(hdma);
 8002b2c:	4798      	blx	r3
  HAL_StatusTypeDef status = HAL_OK;
 8002b2e:	2000      	movs	r0, #0
 8002b30:	e7d2      	b.n	8002ad8 <HAL_DMA_Abort_IT+0x1c>
	...

08002b34 <HAL_GPIO_Init>:
  * @param  GPIO_Init pointer to a GPIO_InitTypeDef structure that contains
  *         the configuration information for the specified GPIO peripheral.
  * @retval None
  */
void HAL_GPIO_Init(GPIO_TypeDef  *GPIOx, GPIO_InitTypeDef *GPIO_Init)
{
 8002b34:	e92d 4ff7 	stmdb	sp!, {r0, r1, r2, r4, r5, r6, r7, r8, r9, sl, fp, lr}
      /*--------------------- EXTI Mode Configuration ------------------------*/
      /* Configure the External Interrupt or event for the current IO */
      if ((GPIO_Init->Mode & EXTI_MODE) != 0x00u)
      {
        /* Enable SYSCFG Clock */
        __HAL_RCC_SYSCFG_CLK_ENABLE();
 8002b38:	f8df 9188 	ldr.w	r9, [pc, #392]	@ 8002cc4 <HAL_GPIO_Init+0x190>
        temp &= ~(0x0FUL << (4U * (position & 0x03U)));
        temp |= (GPIO_GET_INDEX(GPIOx) << (4U * (position & 0x03U)));
        SYSCFG->EXTICR[position >> 2U] = temp;

        /* Clear Rising Falling edge configuration */
        temp = EXTI->RTSR1;
 8002b3c:	4c5f      	ldr	r4, [pc, #380]	@ (8002cbc <HAL_GPIO_Init+0x188>)
  uint32_t position = 0x00U;
 8002b3e:	2300      	movs	r3, #0
  while (((GPIO_Init->Pin) >> position) != 0U)
 8002b40:	680a      	ldr	r2, [r1, #0]
 8002b42:	fa32 f503 	lsrs.w	r5, r2, r3
 8002b46:	d102      	bne.n	8002b4e <HAL_GPIO_Init+0x1a>
      }
    }

    position++;
  }
}
 8002b48:	b003      	add	sp, #12
 8002b4a:	e8bd 8ff0 	ldmia.w	sp!, {r4, r5, r6, r7, r8, r9, sl, fp, pc}
    iocurrent = (GPIO_Init->Pin) & (1UL << position);
 8002b4e:	2501      	movs	r5, #1
 8002b50:	fa05 f803 	lsl.w	r8, r5, r3
    if (iocurrent != 0x00u)
 8002b54:	ea18 0202 	ands.w	r2, r8, r2
 8002b58:	f000 80a4 	beq.w	8002ca4 <HAL_GPIO_Init+0x170>
      if(((GPIO_Init->Mode & GPIO_MODE) == MODE_OUTPUT) ||
 8002b5c:	684e      	ldr	r6, [r1, #4]
        temp &= ~(GPIO_OSPEEDR_OSPEED0 << (position * 2U));
 8002b5e:	2703      	movs	r7, #3
      if(((GPIO_Init->Mode & GPIO_MODE) == MODE_OUTPUT) ||
 8002b60:	f006 0503 	and.w	r5, r6, #3
 8002b64:	ea4f 0e43 	mov.w	lr, r3, lsl #1
        temp &= ~(GPIO_OSPEEDR_OSPEED0 << (position * 2U));
 8002b68:	fa07 fc0e 	lsl.w	ip, r7, lr
      if(((GPIO_Init->Mode & GPIO_MODE) == MODE_OUTPUT) ||
 8002b6c:	1e6f      	subs	r7, r5, #1
 8002b6e:	2f01      	cmp	r7, #1
        temp &= ~(GPIO_OSPEEDR_OSPEED0 << (position * 2U));
 8002b70:	ea6f 0c0c 	mvn.w	ip, ip
      if(((GPIO_Init->Mode & GPIO_MODE) == MODE_OUTPUT) ||
 8002b74:	d834      	bhi.n	8002be0 <HAL_GPIO_Init+0xac>
        temp = GPIOx->OSPEEDR;
 8002b76:	6887      	ldr	r7, [r0, #8]
        temp &= ~(GPIO_OSPEEDR_OSPEED0 << (position * 2U));
 8002b78:	ea07 0a0c 	and.w	sl, r7, ip
        temp |= (GPIO_Init->Speed << (position * 2U));
 8002b7c:	68cf      	ldr	r7, [r1, #12]
 8002b7e:	fa07 f70e 	lsl.w	r7, r7, lr
 8002b82:	ea47 070a 	orr.w	r7, r7, sl
        GPIOx->OSPEEDR = temp;
 8002b86:	6087      	str	r7, [r0, #8]
        temp = GPIOx->OTYPER;
 8002b88:	6847      	ldr	r7, [r0, #4]
        temp &= ~(GPIO_OTYPER_OT0 << position) ;
 8002b8a:	ea27 0808 	bic.w	r8, r7, r8
        temp |= (((GPIO_Init->Mode & OUTPUT_TYPE) >> OUTPUT_TYPE_Pos) << position);
 8002b8e:	f3c6 1700 	ubfx	r7, r6, #4, #1
 8002b92:	409f      	lsls	r7, r3
 8002b94:	ea47 0708 	orr.w	r7, r7, r8
        GPIOx->OTYPER = temp;
 8002b98:	6047      	str	r7, [r0, #4]
        temp = GPIOx->PUPDR;
 8002b9a:	68c7      	ldr	r7, [r0, #12]
        temp &= ~(GPIO_PUPDR_PUPD0 << (position * 2U));
 8002b9c:	ea07 080c 	and.w	r8, r7, ip
        temp |= ((GPIO_Init->Pull) << (position * 2U));
 8002ba0:	688f      	ldr	r7, [r1, #8]
 8002ba2:	fa07 f70e 	lsl.w	r7, r7, lr
 8002ba6:	ea47 0708 	orr.w	r7, r7, r8
      if ((GPIO_Init->Mode & GPIO_MODE) == MODE_AF)
 8002baa:	2d02      	cmp	r5, #2
        GPIOx->PUPDR = temp;
 8002bac:	60c7      	str	r7, [r0, #12]
      if ((GPIO_Init->Mode & GPIO_MODE) == MODE_AF)
 8002bae:	d119      	bne.n	8002be4 <HAL_GPIO_Init+0xb0>
        temp = GPIOx->AFR[position >> 3U];
 8002bb0:	ea4f 08d3 	mov.w	r8, r3, lsr #3
 8002bb4:	eb00 0888 	add.w	r8, r0, r8, lsl #2
        temp &= ~(0xFU << ((position & 0x07U) * 4U));
 8002bb8:	f003 0a07 	and.w	sl, r3, #7
        temp = GPIOx->AFR[position >> 3U];
 8002bbc:	f8d8 7020 	ldr.w	r7, [r8, #32]
        temp &= ~(0xFU << ((position & 0x07U) * 4U));
 8002bc0:	ea4f 0a8a 	mov.w	sl, sl, lsl #2
 8002bc4:	f04f 0b0f 	mov.w	fp, #15
 8002bc8:	fa0b fb0a 	lsl.w	fp, fp, sl
 8002bcc:	ea27 0b0b 	bic.w	fp, r7, fp
        temp |= ((GPIO_Init->Alternate) << ((position & 0x07U) * 4U));
 8002bd0:	690f      	ldr	r7, [r1, #16]
 8002bd2:	fa07 f70a 	lsl.w	r7, r7, sl
 8002bd6:	ea47 070b 	orr.w	r7, r7, fp
        GPIOx->AFR[position >> 3U] = temp;
 8002bda:	f8c8 7020 	str.w	r7, [r8, #32]
 8002bde:	e001      	b.n	8002be4 <HAL_GPIO_Init+0xb0>
      if ((GPIO_Init->Mode & GPIO_MODE) != MODE_ANALOG)
 8002be0:	2d03      	cmp	r5, #3
 8002be2:	d1da      	bne.n	8002b9a <HAL_GPIO_Init+0x66>
      temp = GPIOx->MODER;
 8002be4:	6807      	ldr	r7, [r0, #0]
      temp |= ((GPIO_Init->Mode & GPIO_MODE) << (position * 2U));
 8002be6:	fa05 f50e 	lsl.w	r5, r5, lr
      temp &= ~(GPIO_MODER_MODE0 << (position * 2U));
 8002bea:	ea07 070c 	and.w	r7, r7, ip
      temp |= ((GPIO_Init->Mode & GPIO_MODE) << (position * 2U));
 8002bee:	433d      	orrs	r5, r7
      if ((GPIO_Init->Mode & EXTI_MODE) != 0x00u)
 8002bf0:	f416 3f40 	tst.w	r6, #196608	@ 0x30000
      GPIOx->MODER = temp;
 8002bf4:	6005      	str	r5, [r0, #0]
      if ((GPIO_Init->Mode & EXTI_MODE) != 0x00u)
 8002bf6:	d055      	beq.n	8002ca4 <HAL_GPIO_Init+0x170>
        __HAL_RCC_SYSCFG_CLK_ENABLE();
 8002bf8:	f8d9 5060 	ldr.w	r5, [r9, #96]	@ 0x60
 8002bfc:	f045 0501 	orr.w	r5, r5, #1
 8002c00:	f8c9 5060 	str.w	r5, [r9, #96]	@ 0x60
 8002c04:	f8d9 5060 	ldr.w	r5, [r9, #96]	@ 0x60
 8002c08:	f023 0703 	bic.w	r7, r3, #3
 8002c0c:	f107 4780 	add.w	r7, r7, #1073741824	@ 0x40000000
 8002c10:	f005 0501 	and.w	r5, r5, #1
 8002c14:	f507 3780 	add.w	r7, r7, #65536	@ 0x10000
 8002c18:	9501      	str	r5, [sp, #4]
        temp &= ~(0x0FUL << (4U * (position & 0x03U)));
 8002c1a:	f003 0c03 	and.w	ip, r3, #3
        __HAL_RCC_SYSCFG_CLK_ENABLE();
 8002c1e:	9d01      	ldr	r5, [sp, #4]
        temp = SYSCFG->EXTICR[position >> 2U];
 8002c20:	68bd      	ldr	r5, [r7, #8]
        temp &= ~(0x0FUL << (4U * (position & 0x03U)));
 8002c22:	ea4f 0c8c 	mov.w	ip, ip, lsl #2
 8002c26:	f04f 0e0f 	mov.w	lr, #15
 8002c2a:	fa0e fe0c 	lsl.w	lr, lr, ip
        temp |= (GPIO_GET_INDEX(GPIOx) << (4U * (position & 0x03U)));
 8002c2e:	f1b0 4f90 	cmp.w	r0, #1207959552	@ 0x48000000
        temp &= ~(0x0FUL << (4U * (position & 0x03U)));
 8002c32:	ea25 0e0e 	bic.w	lr, r5, lr
        temp |= (GPIO_GET_INDEX(GPIOx) << (4U * (position & 0x03U)));
 8002c36:	d037      	beq.n	8002ca8 <HAL_GPIO_Init+0x174>
 8002c38:	4d21      	ldr	r5, [pc, #132]	@ (8002cc0 <HAL_GPIO_Init+0x18c>)
 8002c3a:	42a8      	cmp	r0, r5
 8002c3c:	d036      	beq.n	8002cac <HAL_GPIO_Init+0x178>
 8002c3e:	f505 6580 	add.w	r5, r5, #1024	@ 0x400
 8002c42:	42a8      	cmp	r0, r5
 8002c44:	d034      	beq.n	8002cb0 <HAL_GPIO_Init+0x17c>
 8002c46:	f505 6580 	add.w	r5, r5, #1024	@ 0x400
 8002c4a:	42a8      	cmp	r0, r5
 8002c4c:	d032      	beq.n	8002cb4 <HAL_GPIO_Init+0x180>
 8002c4e:	f505 6580 	add.w	r5, r5, #1024	@ 0x400
 8002c52:	42a8      	cmp	r0, r5
 8002c54:	d030      	beq.n	8002cb8 <HAL_GPIO_Init+0x184>
 8002c56:	f505 6580 	add.w	r5, r5, #1024	@ 0x400
 8002c5a:	42a8      	cmp	r0, r5
 8002c5c:	bf14      	ite	ne
 8002c5e:	2506      	movne	r5, #6
 8002c60:	2505      	moveq	r5, #5
 8002c62:	fa05 f50c 	lsl.w	r5, r5, ip
 8002c66:	ea45 050e 	orr.w	r5, r5, lr
        SYSCFG->EXTICR[position >> 2U] = temp;
 8002c6a:	60bd      	str	r5, [r7, #8]
        temp = EXTI->RTSR1;
 8002c6c:	68a5      	ldr	r5, [r4, #8]
        temp &= ~(iocurrent);
 8002c6e:	43d7      	mvns	r7, r2
        if ((GPIO_Init->Mode & TRIGGER_RISING) != 0x00U)
 8002c70:	f416 1f80 	tst.w	r6, #1048576	@ 0x100000
        temp &= ~(iocurrent);
 8002c74:	bf0c      	ite	eq
 8002c76:	403d      	andeq	r5, r7
          temp |= iocurrent;
 8002c78:	4315      	orrne	r5, r2
        EXTI->RTSR1 = temp;
 8002c7a:	60a5      	str	r5, [r4, #8]
        temp = EXTI->FTSR1;
 8002c7c:	68e5      	ldr	r5, [r4, #12]
        if ((GPIO_Init->Mode & TRIGGER_FALLING) != 0x00U)
 8002c7e:	f416 1f00 	tst.w	r6, #2097152	@ 0x200000
        temp &= ~(iocurrent);
 8002c82:	bf0c      	ite	eq
 8002c84:	403d      	andeq	r5, r7
          temp |= iocurrent;
 8002c86:	4315      	orrne	r5, r2
        EXTI->FTSR1 = temp;
 8002c88:	60e5      	str	r5, [r4, #12]
        temp = EXTI->EMR1;
 8002c8a:	6865      	ldr	r5, [r4, #4]
        if ((GPIO_Init->Mode & EXTI_EVT) != 0x00U)
 8002c8c:	f416 3f00 	tst.w	r6, #131072	@ 0x20000
        temp &= ~(iocurrent);
 8002c90:	bf0c      	ite	eq
 8002c92:	403d      	andeq	r5, r7
          temp |= iocurrent;
 8002c94:	4315      	orrne	r5, r2
        EXTI->EMR1 = temp;
 8002c96:	6065      	str	r5, [r4, #4]
        temp = EXTI->IMR1;
 8002c98:	6825      	ldr	r5, [r4, #0]
        if ((GPIO_Init->Mode & EXTI_IT) != 0x00U)
 8002c9a:	03f6      	lsls	r6, r6, #15
        temp &= ~(iocurrent);
 8002c9c:	bf54      	ite	pl
 8002c9e:	403d      	andpl	r5, r7
          temp |= iocurrent;
 8002ca0:	4315      	orrmi	r5, r2
        EXTI->IMR1 = temp;
 8002ca2:	6025      	str	r5, [r4, #0]
    position++;
 8002ca4:	3301      	adds	r3, #1
 8002ca6:	e74b      	b.n	8002b40 <HAL_GPIO_Init+0xc>
        temp |= (GPIO_GET_INDEX(GPIOx) << (4U * (position & 0x03U)));
 8002ca8:	2500      	movs	r5, #0
 8002caa:	e7da      	b.n	8002c62 <HAL_GPIO_Init+0x12e>
 8002cac:	2501      	movs	r5, #1
 8002cae:	e7d8      	b.n	8002c62 <HAL_GPIO_Init+0x12e>
 8002cb0:	2502      	movs	r5, #2
 8002cb2:	e7d6      	b.n	8002c62 <HAL_GPIO_Init+0x12e>
 8002cb4:	2503      	movs	r5, #3
 8002cb6:	e7d4      	b.n	8002c62 <HAL_GPIO_Init+0x12e>
 8002cb8:	2504      	movs	r5, #4
 8002cba:	e7d2      	b.n	8002c62 <HAL_GPIO_Init+0x12e>
 8002cbc:	40010400 	.word	0x40010400
 8002cc0:	48000400 	.word	0x48000400
 8002cc4:	40021000 	.word	0x40021000

08002cc8 <HAL_GPIO_ReadPin>:
  GPIO_PinState bitstatus;

  /* Check the parameters */
  assert_param(IS_GPIO_PIN(GPIO_Pin));

  if ((GPIOx->IDR & GPIO_Pin) != 0x00U)
 8002cc8:	6903      	ldr	r3, [r0, #16]
 8002cca:	4219      	tst	r1, r3
  else
  {
    bitstatus = GPIO_PIN_RESET;
  }
  return bitstatus;
}
 8002ccc:	bf14      	ite	ne
 8002cce:	2001      	movne	r0, #1
 8002cd0:	2000      	moveq	r0, #0
 8002cd2:	4770      	bx	lr

08002cd4 <HAL_GPIO_WritePin>:
{
  /* Check the parameters */
  assert_param(IS_GPIO_PIN(GPIO_Pin));
  assert_param(IS_GPIO_PIN_ACTION(PinState));

  if (PinState != GPIO_PIN_RESET)
 8002cd4:	b10a      	cbz	r2, 8002cda <HAL_GPIO_WritePin+0x6>
  {
    GPIOx->BSRR = (uint32_t)GPIO_Pin;
 8002cd6:	6181      	str	r1, [r0, #24]
 8002cd8:	4770      	bx	lr
  }
  else
  {
    GPIOx->BRR = (uint32_t)GPIO_Pin;
 8002cda:	6281      	str	r1, [r0, #40]	@ 0x28
  }
}
 8002cdc:	4770      	bx	lr

08002cde <HAL_GPIO_TogglePin>:

  /* Check the parameters */
  assert_param(IS_GPIO_PIN(GPIO_Pin));

  /* get current Output Data Register value */
  odr = GPIOx->ODR;
 8002cde:	6943      	ldr	r3, [r0, #20]

  /* Set selected pins that were at low level, and reset ones that were high */
  GPIOx->BSRR = ((odr & GPIO_Pin) << GPIO_NUMBER) | (~odr & GPIO_Pin);
 8002ce0:	ea01 0203 	and.w	r2, r1, r3
 8002ce4:	ea21 0103 	bic.w	r1, r1, r3
 8002ce8:	ea41 4102 	orr.w	r1, r1, r2, lsl #16
 8002cec:	6181      	str	r1, [r0, #24]
}
 8002cee:	4770      	bx	lr

08002cf0 <I2C_Flush_TXDR>:
  */
static void I2C_Flush_TXDR(I2C_HandleTypeDef *hi2c)
{
  /* If a pending TXIS flag is set */
  /* Write a dummy data in TXDR to clear it */
  if (__HAL_I2C_GET_FLAG(hi2c, I2C_FLAG_TXIS) != RESET)
 8002cf0:	6803      	ldr	r3, [r0, #0]
 8002cf2:	699a      	ldr	r2, [r3, #24]
 8002cf4:	0791      	lsls	r1, r2, #30
  {
    hi2c->Instance->TXDR = 0x00U;
 8002cf6:	bf44      	itt	mi
 8002cf8:	2200      	movmi	r2, #0
 8002cfa:	629a      	strmi	r2, [r3, #40]	@ 0x28
  }

  /* Flush TX register if not empty */
  if (__HAL_I2C_GET_FLAG(hi2c, I2C_FLAG_TXE) == RESET)
 8002cfc:	699a      	ldr	r2, [r3, #24]
 8002cfe:	07d2      	lsls	r2, r2, #31
  {
    __HAL_I2C_CLEAR_FLAG(hi2c, I2C_FLAG_TXE);
 8002d00:	bf5e      	ittt	pl
 8002d02:	699a      	ldrpl	r2, [r3, #24]
 8002d04:	f042 0201 	orrpl.w	r2, r2, #1
 8002d08:	619a      	strpl	r2, [r3, #24]
  }
}
 8002d0a:	4770      	bx	lr

08002d0c <I2C_TransferConfig>:
  *     @arg @ref I2C_GENERATE_START_WRITE Generate Restart for write request.
  * @retval None
  */
static void I2C_TransferConfig(I2C_HandleTypeDef *hi2c, uint16_t DevAddress, uint8_t Size, uint32_t Mode,
                               uint32_t Request)
{
 8002d0c:	b530      	push	{r4, r5, lr}
 8002d0e:	9d03      	ldr	r5, [sp, #12]
  uint32_t tmp = ((uint32_t)(((uint32_t)DevAddress & I2C_CR2_SADD) | \
                             (((uint32_t)Size << I2C_CR2_NBYTES_Pos) & I2C_CR2_NBYTES) | \
                             (uint32_t)Mode | (uint32_t)Request) & (~0x80000000U));

  /* update CR2 register */
  MODIFY_REG(hi2c->Instance->CR2, \
 8002d10:	6804      	ldr	r4, [r0, #0]
  uint32_t tmp = ((uint32_t)(((uint32_t)DevAddress & I2C_CR2_SADD) | \
 8002d12:	432b      	orrs	r3, r5
 8002d14:	ea43 4302 	orr.w	r3, r3, r2, lsl #16
  MODIFY_REG(hi2c->Instance->CR2, \
 8002d18:	4a06      	ldr	r2, [pc, #24]	@ (8002d34 <I2C_TransferConfig+0x28>)
 8002d1a:	6860      	ldr	r0, [r4, #4]
  uint32_t tmp = ((uint32_t)(((uint32_t)DevAddress & I2C_CR2_SADD) | \
 8002d1c:	f3c1 0109 	ubfx	r1, r1, #0, #10
 8002d20:	430b      	orrs	r3, r1
  MODIFY_REG(hi2c->Instance->CR2, \
 8002d22:	ea42 5255 	orr.w	r2, r2, r5, lsr #21
  uint32_t tmp = ((uint32_t)(((uint32_t)DevAddress & I2C_CR2_SADD) | \
 8002d26:	f023 4300 	bic.w	r3, r3, #2147483648	@ 0x80000000
  MODIFY_REG(hi2c->Instance->CR2, \
 8002d2a:	ea20 0002 	bic.w	r0, r0, r2
 8002d2e:	4303      	orrs	r3, r0
 8002d30:	6063      	str	r3, [r4, #4]
             ((I2C_CR2_SADD | I2C_CR2_NBYTES | I2C_CR2_RELOAD | I2C_CR2_AUTOEND | \
               (I2C_CR2_RD_WRN & (uint32_t)(Request >> (31U - I2C_CR2_RD_WRN_Pos))) | \
               I2C_CR2_START | I2C_CR2_STOP)), tmp);
}
 8002d32:	bd30      	pop	{r4, r5, pc}
 8002d34:	03ff63ff 	.word	0x03ff63ff

08002d38 <I2C_IsErrorOccurred>:
  uint32_t itflag   = hi2c->Instance->ISR;
 8002d38:	6803      	ldr	r3, [r0, #0]
{
 8002d3a:	e92d 41f0 	stmdb	sp!, {r4, r5, r6, r7, r8, lr}
  uint32_t itflag   = hi2c->Instance->ISR;
 8002d3e:	699c      	ldr	r4, [r3, #24]
  if (HAL_IS_BIT_SET(itflag, I2C_FLAG_AF))
 8002d40:	f014 0410 	ands.w	r4, r4, #16
{
 8002d44:	4605      	mov	r5, r0
 8002d46:	460f      	mov	r7, r1
 8002d48:	4616      	mov	r6, r2
  if (HAL_IS_BIT_SET(itflag, I2C_FLAG_AF))
 8002d4a:	d06f      	beq.n	8002e2c <I2C_IsErrorOccurred+0xf4>
    __HAL_I2C_CLEAR_FLAG(hi2c, I2C_FLAG_AF);
 8002d4c:	2210      	movs	r2, #16
  uint32_t error_code = 0;
 8002d4e:	2400      	movs	r4, #0
    __HAL_I2C_CLEAR_FLAG(hi2c, I2C_FLAG_AF);
 8002d50:	61da      	str	r2, [r3, #28]
  HAL_StatusTypeDef status = HAL_OK;
 8002d52:	46a0      	mov	r8, r4
    while ((__HAL_I2C_GET_FLAG(hi2c, I2C_FLAG_STOPF) == RESET) && (status == HAL_OK))
 8002d54:	682b      	ldr	r3, [r5, #0]
 8002d56:	699a      	ldr	r2, [r3, #24]
 8002d58:	0690      	lsls	r0, r2, #26
 8002d5a:	d461      	bmi.n	8002e20 <I2C_IsErrorOccurred+0xe8>
 8002d5c:	f1b8 0f00 	cmp.w	r8, #0
 8002d60:	d035      	beq.n	8002dce <I2C_IsErrorOccurred+0x96>
    error_code |= HAL_I2C_ERROR_AF;
 8002d62:	f044 0404 	orr.w	r4, r4, #4
    status = HAL_ERROR;
 8002d66:	2001      	movs	r0, #1
  itflag = hi2c->Instance->ISR;
 8002d68:	682e      	ldr	r6, [r5, #0]
 8002d6a:	69b3      	ldr	r3, [r6, #24]
  if (HAL_IS_BIT_SET(itflag, I2C_FLAG_BERR))
 8002d6c:	05d9      	lsls	r1, r3, #23
    __HAL_I2C_CLEAR_FLAG(hi2c, I2C_FLAG_BERR);
 8002d6e:	bf41      	itttt	mi
 8002d70:	f44f 7280 	movmi.w	r2, #256	@ 0x100
 8002d74:	61f2      	strmi	r2, [r6, #28]
    error_code |= HAL_I2C_ERROR_BERR;
 8002d76:	f044 0401 	orrmi.w	r4, r4, #1
    status = HAL_ERROR;
 8002d7a:	2001      	movmi	r0, #1
  if (HAL_IS_BIT_SET(itflag, I2C_FLAG_OVR))
 8002d7c:	055a      	lsls	r2, r3, #21
    __HAL_I2C_CLEAR_FLAG(hi2c, I2C_FLAG_OVR);
 8002d7e:	bf41      	itttt	mi
 8002d80:	f44f 6280 	movmi.w	r2, #1024	@ 0x400
    error_code |= HAL_I2C_ERROR_OVR;
 8002d84:	f044 0408 	orrmi.w	r4, r4, #8
    __HAL_I2C_CLEAR_FLAG(hi2c, I2C_FLAG_OVR);
 8002d88:	61f2      	strmi	r2, [r6, #28]
    status = HAL_ERROR;
 8002d8a:	2001      	movmi	r0, #1
  if (HAL_IS_BIT_SET(itflag, I2C_FLAG_ARLO))
 8002d8c:	059b      	lsls	r3, r3, #22
 8002d8e:	d54f      	bpl.n	8002e30 <I2C_IsErrorOccurred+0xf8>
    __HAL_I2C_CLEAR_FLAG(hi2c, I2C_FLAG_ARLO);
 8002d90:	f44f 7300 	mov.w	r3, #512	@ 0x200
    error_code |= HAL_I2C_ERROR_ARLO;
 8002d94:	f044 0402 	orr.w	r4, r4, #2
    __HAL_I2C_CLEAR_FLAG(hi2c, I2C_FLAG_ARLO);
 8002d98:	61f3      	str	r3, [r6, #28]
    I2C_Flush_TXDR(hi2c);
 8002d9a:	4628      	mov	r0, r5
 8002d9c:	f7ff ffa8 	bl	8002cf0 <I2C_Flush_TXDR>
    I2C_RESET_CR2(hi2c);
 8002da0:	6873      	ldr	r3, [r6, #4]
 8002da2:	f023 73ff 	bic.w	r3, r3, #33423360	@ 0x1fe0000
 8002da6:	f423 338b 	bic.w	r3, r3, #71168	@ 0x11600
 8002daa:	f423 73ff 	bic.w	r3, r3, #510	@ 0x1fe
 8002dae:	f023 0301 	bic.w	r3, r3, #1
 8002db2:	6073      	str	r3, [r6, #4]
    hi2c->ErrorCode |= error_code;
 8002db4:	6c6b      	ldr	r3, [r5, #68]	@ 0x44
 8002db6:	4323      	orrs	r3, r4
 8002db8:	646b      	str	r3, [r5, #68]	@ 0x44
    hi2c->State = HAL_I2C_STATE_READY;
 8002dba:	2320      	movs	r3, #32
 8002dbc:	f885 3041 	strb.w	r3, [r5, #65]	@ 0x41
    hi2c->Mode = HAL_I2C_MODE_NONE;
 8002dc0:	2300      	movs	r3, #0
 8002dc2:	f885 3042 	strb.w	r3, [r5, #66]	@ 0x42
    __HAL_UNLOCK(hi2c);
 8002dc6:	f885 3040 	strb.w	r3, [r5, #64]	@ 0x40
 8002dca:	2001      	movs	r0, #1
 8002dcc:	e032      	b.n	8002e34 <I2C_IsErrorOccurred+0xfc>
      if (Timeout != HAL_MAX_DELAY)
 8002dce:	1c7a      	adds	r2, r7, #1
 8002dd0:	d0c1      	beq.n	8002d56 <I2C_IsErrorOccurred+0x1e>
        if (((HAL_GetTick() - tickstart) > Timeout) || (Timeout == 0U))
 8002dd2:	f7ff fdc1 	bl	8002958 <HAL_GetTick>
 8002dd6:	1b80      	subs	r0, r0, r6
 8002dd8:	42b8      	cmp	r0, r7
 8002dda:	d801      	bhi.n	8002de0 <I2C_IsErrorOccurred+0xa8>
 8002ddc:	2f00      	cmp	r7, #0
 8002dde:	d1b9      	bne.n	8002d54 <I2C_IsErrorOccurred+0x1c>
          tmp1 = (uint32_t)(hi2c->Instance->CR2 & I2C_CR2_STOP);
 8002de0:	682b      	ldr	r3, [r5, #0]
 8002de2:	6859      	ldr	r1, [r3, #4]
          tmp2 = hi2c->Mode;
 8002de4:	f895 2042 	ldrb.w	r2, [r5, #66]	@ 0x42
          if ((__HAL_I2C_GET_FLAG(hi2c, I2C_FLAG_BUSY) != RESET) && \
 8002de8:	6998      	ldr	r0, [r3, #24]
 8002dea:	0400      	lsls	r0, r0, #16
          tmp2 = hi2c->Mode;
 8002dec:	b2d2      	uxtb	r2, r2
          if ((__HAL_I2C_GET_FLAG(hi2c, I2C_FLAG_BUSY) != RESET) && \
 8002dee:	d50a      	bpl.n	8002e06 <I2C_IsErrorOccurred+0xce>
 8002df0:	0449      	lsls	r1, r1, #17
 8002df2:	d408      	bmi.n	8002e06 <I2C_IsErrorOccurred+0xce>
              (tmp1 != I2C_CR2_STOP) && \
 8002df4:	2a20      	cmp	r2, #32
 8002df6:	d006      	beq.n	8002e06 <I2C_IsErrorOccurred+0xce>
            hi2c->Instance->CR2 |= I2C_CR2_STOP;
 8002df8:	685a      	ldr	r2, [r3, #4]
 8002dfa:	f442 4280 	orr.w	r2, r2, #16384	@ 0x4000
 8002dfe:	605a      	str	r2, [r3, #4]
            tickstart = HAL_GetTick();
 8002e00:	f7ff fdaa 	bl	8002958 <HAL_GetTick>
 8002e04:	4606      	mov	r6, r0
          while (__HAL_I2C_GET_FLAG(hi2c, I2C_FLAG_STOPF) == RESET)
 8002e06:	682b      	ldr	r3, [r5, #0]
 8002e08:	699b      	ldr	r3, [r3, #24]
 8002e0a:	069b      	lsls	r3, r3, #26
 8002e0c:	d4a2      	bmi.n	8002d54 <I2C_IsErrorOccurred+0x1c>
            if ((HAL_GetTick() - tickstart) > I2C_TIMEOUT_STOPF)
 8002e0e:	f7ff fda3 	bl	8002958 <HAL_GetTick>
 8002e12:	1b80      	subs	r0, r0, r6
 8002e14:	2819      	cmp	r0, #25
 8002e16:	d9f6      	bls.n	8002e06 <I2C_IsErrorOccurred+0xce>
              error_code |= HAL_I2C_ERROR_TIMEOUT;
 8002e18:	2420      	movs	r4, #32
              status = HAL_ERROR;
 8002e1a:	f04f 0801 	mov.w	r8, #1
 8002e1e:	e799      	b.n	8002d54 <I2C_IsErrorOccurred+0x1c>
    if (status == HAL_OK)
 8002e20:	f1b8 0f00 	cmp.w	r8, #0
 8002e24:	d19d      	bne.n	8002d62 <I2C_IsErrorOccurred+0x2a>
      __HAL_I2C_CLEAR_FLAG(hi2c, I2C_FLAG_STOPF);
 8002e26:	2220      	movs	r2, #32
 8002e28:	61da      	str	r2, [r3, #28]
 8002e2a:	e79a      	b.n	8002d62 <I2C_IsErrorOccurred+0x2a>
  HAL_StatusTypeDef status = HAL_OK;
 8002e2c:	4620      	mov	r0, r4
 8002e2e:	e79b      	b.n	8002d68 <I2C_IsErrorOccurred+0x30>
  if (status != HAL_OK)
 8002e30:	2800      	cmp	r0, #0
 8002e32:	d1b2      	bne.n	8002d9a <I2C_IsErrorOccurred+0x62>
}
 8002e34:	e8bd 81f0 	ldmia.w	sp!, {r4, r5, r6, r7, r8, pc}

08002e38 <I2C_WaitOnTXISFlagUntilTimeout>:
{
 8002e38:	b570      	push	{r4, r5, r6, lr}
 8002e3a:	4604      	mov	r4, r0
 8002e3c:	460d      	mov	r5, r1
 8002e3e:	4616      	mov	r6, r2
  while (__HAL_I2C_GET_FLAG(hi2c, I2C_FLAG_TXIS) == RESET)
 8002e40:	6823      	ldr	r3, [r4, #0]
 8002e42:	699b      	ldr	r3, [r3, #24]
 8002e44:	079b      	lsls	r3, r3, #30
 8002e46:	d501      	bpl.n	8002e4c <I2C_WaitOnTXISFlagUntilTimeout+0x14>
  return HAL_OK;
 8002e48:	2000      	movs	r0, #0
 8002e4a:	e01f      	b.n	8002e8c <I2C_WaitOnTXISFlagUntilTimeout+0x54>
    if (I2C_IsErrorOccurred(hi2c, Timeout, Tickstart) != HAL_OK)
 8002e4c:	4632      	mov	r2, r6
 8002e4e:	4629      	mov	r1, r5
 8002e50:	4620      	mov	r0, r4
 8002e52:	f7ff ff71 	bl	8002d38 <I2C_IsErrorOccurred>
 8002e56:	b9c0      	cbnz	r0, 8002e8a <I2C_WaitOnTXISFlagUntilTimeout+0x52>
    if (Timeout != HAL_MAX_DELAY)
 8002e58:	1c6a      	adds	r2, r5, #1
 8002e5a:	d0f1      	beq.n	8002e40 <I2C_WaitOnTXISFlagUntilTimeout+0x8>
      if (((HAL_GetTick() - Tickstart) > Timeout) || (Timeout == 0U))
 8002e5c:	f7ff fd7c 	bl	8002958 <HAL_GetTick>
 8002e60:	1b80      	subs	r0, r0, r6
 8002e62:	42a8      	cmp	r0, r5
 8002e64:	d801      	bhi.n	8002e6a <I2C_WaitOnTXISFlagUntilTimeout+0x32>
 8002e66:	2d00      	cmp	r5, #0
 8002e68:	d1ea      	bne.n	8002e40 <I2C_WaitOnTXISFlagUntilTimeout+0x8>
        if ((__HAL_I2C_GET_FLAG(hi2c, I2C_FLAG_TXIS) == RESET))
 8002e6a:	6823      	ldr	r3, [r4, #0]
 8002e6c:	699b      	ldr	r3, [r3, #24]
 8002e6e:	f013 0302 	ands.w	r3, r3, #2
 8002e72:	d1e5      	bne.n	8002e40 <I2C_WaitOnTXISFlagUntilTimeout+0x8>
          hi2c->ErrorCode |= HAL_I2C_ERROR_TIMEOUT;
 8002e74:	6c62      	ldr	r2, [r4, #68]	@ 0x44
          __HAL_UNLOCK(hi2c);
 8002e76:	f884 3040 	strb.w	r3, [r4, #64]	@ 0x40
          hi2c->ErrorCode |= HAL_I2C_ERROR_TIMEOUT;
 8002e7a:	f042 0220 	orr.w	r2, r2, #32
 8002e7e:	6462      	str	r2, [r4, #68]	@ 0x44
          hi2c->State = HAL_I2C_STATE_READY;
 8002e80:	2220      	movs	r2, #32
 8002e82:	f884 2041 	strb.w	r2, [r4, #65]	@ 0x41
          hi2c->Mode = HAL_I2C_MODE_NONE;
 8002e86:	f884 3042 	strb.w	r3, [r4, #66]	@ 0x42
      return HAL_ERROR;
 8002e8a:	2001      	movs	r0, #1
}
 8002e8c:	bd70      	pop	{r4, r5, r6, pc}

08002e8e <I2C_WaitOnFlagUntilTimeout>:
{
 8002e8e:	e92d 41f0 	stmdb	sp!, {r4, r5, r6, r7, r8, lr}
 8002e92:	f8dd 8018 	ldr.w	r8, [sp, #24]
 8002e96:	4604      	mov	r4, r0
 8002e98:	460f      	mov	r7, r1
 8002e9a:	4616      	mov	r6, r2
 8002e9c:	461d      	mov	r5, r3
  while (__HAL_I2C_GET_FLAG(hi2c, Flag) == Status)
 8002e9e:	6823      	ldr	r3, [r4, #0]
 8002ea0:	699b      	ldr	r3, [r3, #24]
 8002ea2:	ea37 0303 	bics.w	r3, r7, r3
 8002ea6:	bf0c      	ite	eq
 8002ea8:	2301      	moveq	r3, #1
 8002eaa:	2300      	movne	r3, #0
 8002eac:	42b3      	cmp	r3, r6
 8002eae:	d001      	beq.n	8002eb4 <I2C_WaitOnFlagUntilTimeout+0x26>
  return HAL_OK;
 8002eb0:	2000      	movs	r0, #0
 8002eb2:	e025      	b.n	8002f00 <I2C_WaitOnFlagUntilTimeout+0x72>
    if (I2C_IsErrorOccurred(hi2c, Timeout, Tickstart) != HAL_OK)
 8002eb4:	4642      	mov	r2, r8
 8002eb6:	4629      	mov	r1, r5
 8002eb8:	4620      	mov	r0, r4
 8002eba:	f7ff ff3d 	bl	8002d38 <I2C_IsErrorOccurred>
 8002ebe:	b9f0      	cbnz	r0, 8002efe <I2C_WaitOnFlagUntilTimeout+0x70>
    if (Timeout != HAL_MAX_DELAY)
 8002ec0:	1c6b      	adds	r3, r5, #1
 8002ec2:	d0ec      	beq.n	8002e9e <I2C_WaitOnFlagUntilTimeout+0x10>
      if (((HAL_GetTick() - Tickstart) > Timeout) || (Timeout == 0U))
 8002ec4:	f7ff fd48 	bl	8002958 <HAL_GetTick>
 8002ec8:	eba0 0008 	sub.w	r0, r0, r8
 8002ecc:	42a8      	cmp	r0, r5
 8002ece:	d801      	bhi.n	8002ed4 <I2C_WaitOnFlagUntilTimeout+0x46>
 8002ed0:	2d00      	cmp	r5, #0
 8002ed2:	d1e4      	bne.n	8002e9e <I2C_WaitOnFlagUntilTimeout+0x10>
        if ((__HAL_I2C_GET_FLAG(hi2c, Flag) == Status))
 8002ed4:	6823      	ldr	r3, [r4, #0]
 8002ed6:	699b      	ldr	r3, [r3, #24]
 8002ed8:	ea37 0303 	bics.w	r3, r7, r3
 8002edc:	bf0c      	ite	eq
 8002ede:	2301      	moveq	r3, #1
 8002ee0:	2300      	movne	r3, #0
 8002ee2:	42b3      	cmp	r3, r6
 8002ee4:	d1db      	bne.n	8002e9e <I2C_WaitOnFlagUntilTimeout+0x10>
          hi2c->ErrorCode |= HAL_I2C_ERROR_TIMEOUT;
 8002ee6:	6c63      	ldr	r3, [r4, #68]	@ 0x44
 8002ee8:	f043 0320 	orr.w	r3, r3, #32
 8002eec:	6463      	str	r3, [r4, #68]	@ 0x44
          hi2c->State = HAL_I2C_STATE_READY;
 8002eee:	2320      	movs	r3, #32
 8002ef0:	f884 3041 	strb.w	r3, [r4, #65]	@ 0x41
          hi2c->Mode = HAL_I2C_MODE_NONE;
 8002ef4:	2300      	movs	r3, #0
 8002ef6:	f884 3042 	strb.w	r3, [r4, #66]	@ 0x42
          __HAL_UNLOCK(hi2c);
 8002efa:	f884 3040 	strb.w	r3, [r4, #64]	@ 0x40
      return HAL_ERROR;
 8002efe:	2001      	movs	r0, #1
}
 8002f00:	e8bd 81f0 	ldmia.w	sp!, {r4, r5, r6, r7, r8, pc}

08002f04 <I2C_WaitOnSTOPFlagUntilTimeout>:
{
 8002f04:	b570      	push	{r4, r5, r6, lr}
 8002f06:	4604      	mov	r4, r0
 8002f08:	460d      	mov	r5, r1
 8002f0a:	4616      	mov	r6, r2
  while (__HAL_I2C_GET_FLAG(hi2c, I2C_FLAG_STOPF) == RESET)
 8002f0c:	6823      	ldr	r3, [r4, #0]
 8002f0e:	699b      	ldr	r3, [r3, #24]
 8002f10:	069b      	lsls	r3, r3, #26
 8002f12:	d501      	bpl.n	8002f18 <I2C_WaitOnSTOPFlagUntilTimeout+0x14>
  return HAL_OK;
 8002f14:	2000      	movs	r0, #0
 8002f16:	e01d      	b.n	8002f54 <I2C_WaitOnSTOPFlagUntilTimeout+0x50>
    if (I2C_IsErrorOccurred(hi2c, Timeout, Tickstart) != HAL_OK)
 8002f18:	4632      	mov	r2, r6
 8002f1a:	4629      	mov	r1, r5
 8002f1c:	4620      	mov	r0, r4
 8002f1e:	f7ff ff0b 	bl	8002d38 <I2C_IsErrorOccurred>
 8002f22:	b9b0      	cbnz	r0, 8002f52 <I2C_WaitOnSTOPFlagUntilTimeout+0x4e>
    if (((HAL_GetTick() - Tickstart) > Timeout) || (Timeout == 0U))
 8002f24:	f7ff fd18 	bl	8002958 <HAL_GetTick>
 8002f28:	1b80      	subs	r0, r0, r6
 8002f2a:	42a8      	cmp	r0, r5
 8002f2c:	d801      	bhi.n	8002f32 <I2C_WaitOnSTOPFlagUntilTimeout+0x2e>
 8002f2e:	2d00      	cmp	r5, #0
 8002f30:	d1ec      	bne.n	8002f0c <I2C_WaitOnSTOPFlagUntilTimeout+0x8>
      if ((__HAL_I2C_GET_FLAG(hi2c, I2C_FLAG_STOPF) == RESET))
 8002f32:	6823      	ldr	r3, [r4, #0]
 8002f34:	699b      	ldr	r3, [r3, #24]
 8002f36:	f013 0320 	ands.w	r3, r3, #32
 8002f3a:	d1e7      	bne.n	8002f0c <I2C_WaitOnSTOPFlagUntilTimeout+0x8>
        hi2c->ErrorCode |= HAL_I2C_ERROR_TIMEOUT;
 8002f3c:	6c62      	ldr	r2, [r4, #68]	@ 0x44
        __HAL_UNLOCK(hi2c);
 8002f3e:	f884 3040 	strb.w	r3, [r4, #64]	@ 0x40
        hi2c->ErrorCode |= HAL_I2C_ERROR_TIMEOUT;
 8002f42:	f042 0220 	orr.w	r2, r2, #32
 8002f46:	6462      	str	r2, [r4, #68]	@ 0x44
        hi2c->State = HAL_I2C_STATE_READY;
 8002f48:	2220      	movs	r2, #32
 8002f4a:	f884 2041 	strb.w	r2, [r4, #65]	@ 0x41
        hi2c->Mode = HAL_I2C_MODE_NONE;
 8002f4e:	f884 3042 	strb.w	r3, [r4, #66]	@ 0x42
      return HAL_ERROR;
 8002f52:	2001      	movs	r0, #1
}
 8002f54:	bd70      	pop	{r4, r5, r6, pc}
	...

08002f58 <I2C_WaitOnRXNEFlagUntilTimeout>:
{
 8002f58:	e92d 43f8 	stmdb	sp!, {r3, r4, r5, r6, r7, r8, r9, lr}
        I2C_RESET_CR2(hi2c);
 8002f5c:	f8df 9098 	ldr.w	r9, [pc, #152]	@ 8002ff8 <I2C_WaitOnRXNEFlagUntilTimeout+0xa0>
{
 8002f60:	4605      	mov	r5, r0
 8002f62:	460e      	mov	r6, r1
 8002f64:	4617      	mov	r7, r2
  HAL_StatusTypeDef status = HAL_OK;
 8002f66:	2400      	movs	r4, #0
        __HAL_I2C_CLEAR_FLAG(hi2c, I2C_FLAG_AF);
 8002f68:	f04f 0810 	mov.w	r8, #16
  while ((__HAL_I2C_GET_FLAG(hi2c, I2C_FLAG_RXNE) == RESET) && (status == HAL_OK))
 8002f6c:	682b      	ldr	r3, [r5, #0]
 8002f6e:	699b      	ldr	r3, [r3, #24]
 8002f70:	075b      	lsls	r3, r3, #29
 8002f72:	d400      	bmi.n	8002f76 <I2C_WaitOnRXNEFlagUntilTimeout+0x1e>
 8002f74:	b114      	cbz	r4, 8002f7c <I2C_WaitOnRXNEFlagUntilTimeout+0x24>
}
 8002f76:	4620      	mov	r0, r4
 8002f78:	e8bd 83f8 	ldmia.w	sp!, {r3, r4, r5, r6, r7, r8, r9, pc}
    if (I2C_IsErrorOccurred(hi2c, Timeout, Tickstart) != HAL_OK)
 8002f7c:	463a      	mov	r2, r7
 8002f7e:	4631      	mov	r1, r6
 8002f80:	4628      	mov	r0, r5
 8002f82:	f7ff fed9 	bl	8002d38 <I2C_IsErrorOccurred>
    if ((__HAL_I2C_GET_FLAG(hi2c, I2C_FLAG_STOPF) == SET) && (status == HAL_OK))
 8002f86:	682b      	ldr	r3, [r5, #0]
 8002f88:	699a      	ldr	r2, [r3, #24]
    if (I2C_IsErrorOccurred(hi2c, Timeout, Tickstart) != HAL_OK)
 8002f8a:	4604      	mov	r4, r0
    if ((__HAL_I2C_GET_FLAG(hi2c, I2C_FLAG_STOPF) == SET) && (status == HAL_OK))
 8002f8c:	0690      	lsls	r0, r2, #26
 8002f8e:	d40c      	bmi.n	8002faa <I2C_WaitOnRXNEFlagUntilTimeout+0x52>
    if (I2C_IsErrorOccurred(hi2c, Timeout, Tickstart) != HAL_OK)
 8002f90:	3c00      	subs	r4, #0
 8002f92:	bf18      	it	ne
 8002f94:	2401      	movne	r4, #1
    if ((((HAL_GetTick() - Tickstart) > Timeout) || (Timeout == 0U)) && (status == HAL_OK))
 8002f96:	f7ff fcdf 	bl	8002958 <HAL_GetTick>
 8002f9a:	1bc0      	subs	r0, r0, r7
 8002f9c:	42b0      	cmp	r0, r6
 8002f9e:	d801      	bhi.n	8002fa4 <I2C_WaitOnRXNEFlagUntilTimeout+0x4c>
 8002fa0:	2e00      	cmp	r6, #0
 8002fa2:	d1e3      	bne.n	8002f6c <I2C_WaitOnRXNEFlagUntilTimeout+0x14>
 8002fa4:	b1d4      	cbz	r4, 8002fdc <I2C_WaitOnRXNEFlagUntilTimeout+0x84>
{
 8002fa6:	2401      	movs	r4, #1
 8002fa8:	e7e0      	b.n	8002f6c <I2C_WaitOnRXNEFlagUntilTimeout+0x14>
    if ((__HAL_I2C_GET_FLAG(hi2c, I2C_FLAG_STOPF) == SET) && (status == HAL_OK))
 8002faa:	b99c      	cbnz	r4, 8002fd4 <I2C_WaitOnRXNEFlagUntilTimeout+0x7c>
      if ((__HAL_I2C_GET_FLAG(hi2c, I2C_FLAG_RXNE) == SET) && (hi2c->XferSize > 0U))
 8002fac:	699a      	ldr	r2, [r3, #24]
      if (__HAL_I2C_GET_FLAG(hi2c, I2C_FLAG_AF) == SET)
 8002fae:	699a      	ldr	r2, [r3, #24]
 8002fb0:	06d1      	lsls	r1, r2, #27
 8002fb2:	d511      	bpl.n	8002fd8 <I2C_WaitOnRXNEFlagUntilTimeout+0x80>
        hi2c->ErrorCode = HAL_I2C_ERROR_AF;
 8002fb4:	2204      	movs	r2, #4
        __HAL_I2C_CLEAR_FLAG(hi2c, I2C_FLAG_STOPF);
 8002fb6:	2120      	movs	r1, #32
        __HAL_I2C_CLEAR_FLAG(hi2c, I2C_FLAG_AF);
 8002fb8:	f8c3 801c 	str.w	r8, [r3, #28]
        hi2c->ErrorCode = HAL_I2C_ERROR_AF;
 8002fbc:	646a      	str	r2, [r5, #68]	@ 0x44
        __HAL_I2C_CLEAR_FLAG(hi2c, I2C_FLAG_STOPF);
 8002fbe:	61d9      	str	r1, [r3, #28]
        I2C_RESET_CR2(hi2c);
 8002fc0:	685a      	ldr	r2, [r3, #4]
 8002fc2:	ea02 0209 	and.w	r2, r2, r9
 8002fc6:	605a      	str	r2, [r3, #4]
        hi2c->State = HAL_I2C_STATE_READY;
 8002fc8:	f885 1041 	strb.w	r1, [r5, #65]	@ 0x41
        __HAL_UNLOCK(hi2c);
 8002fcc:	f885 4040 	strb.w	r4, [r5, #64]	@ 0x40
        hi2c->Mode = HAL_I2C_MODE_NONE;
 8002fd0:	f885 4042 	strb.w	r4, [r5, #66]	@ 0x42
{
 8002fd4:	2401      	movs	r4, #1
 8002fd6:	e7de      	b.n	8002f96 <I2C_WaitOnRXNEFlagUntilTimeout+0x3e>
        hi2c->ErrorCode = HAL_I2C_ERROR_NONE;
 8002fd8:	646c      	str	r4, [r5, #68]	@ 0x44
 8002fda:	e7dc      	b.n	8002f96 <I2C_WaitOnRXNEFlagUntilTimeout+0x3e>
      if ((__HAL_I2C_GET_FLAG(hi2c, I2C_FLAG_RXNE) == RESET))
 8002fdc:	682b      	ldr	r3, [r5, #0]
 8002fde:	699b      	ldr	r3, [r3, #24]
 8002fe0:	075a      	lsls	r2, r3, #29
 8002fe2:	d4c3      	bmi.n	8002f6c <I2C_WaitOnRXNEFlagUntilTimeout+0x14>
        hi2c->ErrorCode |= HAL_I2C_ERROR_TIMEOUT;
 8002fe4:	6c6b      	ldr	r3, [r5, #68]	@ 0x44
        __HAL_UNLOCK(hi2c);
 8002fe6:	f885 4040 	strb.w	r4, [r5, #64]	@ 0x40
        hi2c->ErrorCode |= HAL_I2C_ERROR_TIMEOUT;
 8002fea:	f043 0320 	orr.w	r3, r3, #32
 8002fee:	646b      	str	r3, [r5, #68]	@ 0x44
        hi2c->State = HAL_I2C_STATE_READY;
 8002ff0:	2320      	movs	r3, #32
 8002ff2:	f885 3041 	strb.w	r3, [r5, #65]	@ 0x41
        status = HAL_ERROR;
 8002ff6:	e7d6      	b.n	8002fa6 <I2C_WaitOnRXNEFlagUntilTimeout+0x4e>
 8002ff8:	fe00e800 	.word	0xfe00e800

08002ffc <HAL_I2C_Init>:
{
 8002ffc:	b510      	push	{r4, lr}
  if (hi2c == NULL)
 8002ffe:	4604      	mov	r4, r0
 8003000:	2800      	cmp	r0, #0
 8003002:	d04e      	beq.n	80030a2 <HAL_I2C_Init+0xa6>
  if (hi2c->State == HAL_I2C_STATE_RESET)
 8003004:	f890 3041 	ldrb.w	r3, [r0, #65]	@ 0x41
 8003008:	f003 02ff 	and.w	r2, r3, #255	@ 0xff
 800300c:	b91b      	cbnz	r3, 8003016 <HAL_I2C_Init+0x1a>
    hi2c->Lock = HAL_UNLOCKED;
 800300e:	f880 2040 	strb.w	r2, [r0, #64]	@ 0x40
    HAL_I2C_MspInit(hi2c);
 8003012:	f7ff f86d 	bl	80020f0 <HAL_I2C_MspInit>
  hi2c->State = HAL_I2C_STATE_BUSY;
 8003016:	2324      	movs	r3, #36	@ 0x24
 8003018:	f884 3041 	strb.w	r3, [r4, #65]	@ 0x41
  __HAL_I2C_DISABLE(hi2c);
 800301c:	6823      	ldr	r3, [r4, #0]
 800301e:	681a      	ldr	r2, [r3, #0]
 8003020:	f022 0201 	bic.w	r2, r2, #1
 8003024:	601a      	str	r2, [r3, #0]
  hi2c->Instance->TIMINGR = hi2c->Init.Timing & TIMING_CLEAR_MASK;
 8003026:	6862      	ldr	r2, [r4, #4]
 8003028:	f022 6270 	bic.w	r2, r2, #251658240	@ 0xf000000
 800302c:	611a      	str	r2, [r3, #16]
  hi2c->Instance->OAR1 &= ~I2C_OAR1_OA1EN;
 800302e:	689a      	ldr	r2, [r3, #8]
 8003030:	f422 4200 	bic.w	r2, r2, #32768	@ 0x8000
 8003034:	609a      	str	r2, [r3, #8]
    hi2c->Instance->OAR1 = (I2C_OAR1_OA1EN | hi2c->Init.OwnAddress1);
 8003036:	e9d4 2102 	ldrd	r2, r1, [r4, #8]
  if (hi2c->Init.AddressingMode == I2C_ADDRESSINGMODE_7BIT)
 800303a:	2901      	cmp	r1, #1
 800303c:	d106      	bne.n	800304c <HAL_I2C_Init+0x50>
    hi2c->Instance->OAR1 = (I2C_OAR1_OA1EN | hi2c->Init.OwnAddress1);
 800303e:	f442 4200 	orr.w	r2, r2, #32768	@ 0x8000
 8003042:	609a      	str	r2, [r3, #8]
    CLEAR_BIT(hi2c->Instance->CR2, I2C_CR2_ADD10);
 8003044:	685a      	ldr	r2, [r3, #4]
 8003046:	f422 6200 	bic.w	r2, r2, #2048	@ 0x800
 800304a:	e007      	b.n	800305c <HAL_I2C_Init+0x60>
    hi2c->Instance->OAR1 = (I2C_OAR1_OA1EN | I2C_OAR1_OA1MODE | hi2c->Init.OwnAddress1);
 800304c:	f442 4204 	orr.w	r2, r2, #33792	@ 0x8400
  if (hi2c->Init.AddressingMode == I2C_ADDRESSINGMODE_10BIT)
 8003050:	2902      	cmp	r1, #2
    hi2c->Instance->OAR1 = (I2C_OAR1_OA1EN | I2C_OAR1_OA1MODE | hi2c->Init.OwnAddress1);
 8003052:	609a      	str	r2, [r3, #8]
  if (hi2c->Init.AddressingMode == I2C_ADDRESSINGMODE_10BIT)
 8003054:	d1f6      	bne.n	8003044 <HAL_I2C_Init+0x48>
    SET_BIT(hi2c->Instance->CR2, I2C_CR2_ADD10);
 8003056:	685a      	ldr	r2, [r3, #4]
 8003058:	f442 6200 	orr.w	r2, r2, #2048	@ 0x800
    CLEAR_BIT(hi2c->Instance->CR2, I2C_CR2_ADD10);
 800305c:	605a      	str	r2, [r3, #4]
  hi2c->Instance->CR2 |= (I2C_CR2_AUTOEND | I2C_CR2_NACK);
 800305e:	685a      	ldr	r2, [r3, #4]
 8003060:	f042 7200 	orr.w	r2, r2, #33554432	@ 0x2000000
 8003064:	f442 4200 	orr.w	r2, r2, #32768	@ 0x8000
 8003068:	605a      	str	r2, [r3, #4]
  hi2c->Instance->OAR2 &= ~I2C_DUALADDRESS_ENABLE;
 800306a:	68da      	ldr	r2, [r3, #12]
 800306c:	f422 4200 	bic.w	r2, r2, #32768	@ 0x8000
 8003070:	60da      	str	r2, [r3, #12]
  hi2c->Instance->OAR2 = (hi2c->Init.DualAddressMode | hi2c->Init.OwnAddress2 | \
 8003072:	e9d4 2104 	ldrd	r2, r1, [r4, #16]
 8003076:	430a      	orrs	r2, r1
                          (hi2c->Init.OwnAddress2Masks << 8));
 8003078:	69a1      	ldr	r1, [r4, #24]
  hi2c->Instance->OAR2 = (hi2c->Init.DualAddressMode | hi2c->Init.OwnAddress2 | \
 800307a:	ea42 2201 	orr.w	r2, r2, r1, lsl #8
 800307e:	60da      	str	r2, [r3, #12]
  hi2c->Instance->CR1 = (hi2c->Init.GeneralCallMode | hi2c->Init.NoStretchMode);
 8003080:	e9d4 2107 	ldrd	r2, r1, [r4, #28]
 8003084:	430a      	orrs	r2, r1
 8003086:	601a      	str	r2, [r3, #0]
  __HAL_I2C_ENABLE(hi2c);
 8003088:	681a      	ldr	r2, [r3, #0]
 800308a:	f042 0201 	orr.w	r2, r2, #1
 800308e:	601a      	str	r2, [r3, #0]
  hi2c->ErrorCode = HAL_I2C_ERROR_NONE;
 8003090:	2000      	movs	r0, #0
  hi2c->State = HAL_I2C_STATE_READY;
 8003092:	2320      	movs	r3, #32
  hi2c->ErrorCode = HAL_I2C_ERROR_NONE;
 8003094:	6460      	str	r0, [r4, #68]	@ 0x44
  hi2c->State = HAL_I2C_STATE_READY;
 8003096:	f884 3041 	strb.w	r3, [r4, #65]	@ 0x41
  hi2c->PreviousState = I2C_STATE_NONE;
 800309a:	6320      	str	r0, [r4, #48]	@ 0x30
  hi2c->Mode = HAL_I2C_MODE_NONE;
 800309c:	f884 0042 	strb.w	r0, [r4, #66]	@ 0x42
}
 80030a0:	bd10      	pop	{r4, pc}
    return HAL_ERROR;
 80030a2:	2001      	movs	r0, #1
 80030a4:	e7fc      	b.n	80030a0 <HAL_I2C_Init+0xa4>
	...

080030a8 <HAL_I2C_Master_Transmit>:
{
 80030a8:	e92d 47f3 	stmdb	sp!, {r0, r1, r4, r5, r6, r7, r8, r9, sl, lr}
 80030ac:	4699      	mov	r9, r3
  if (hi2c->State == HAL_I2C_STATE_READY)
 80030ae:	f890 3041 	ldrb.w	r3, [r0, #65]	@ 0x41
{
 80030b2:	9f0a      	ldr	r7, [sp, #40]	@ 0x28
  if (hi2c->State == HAL_I2C_STATE_READY)
 80030b4:	2b20      	cmp	r3, #32
{
 80030b6:	4604      	mov	r4, r0
 80030b8:	460e      	mov	r6, r1
 80030ba:	4690      	mov	r8, r2
  if (hi2c->State == HAL_I2C_STATE_READY)
 80030bc:	f040 809e 	bne.w	80031fc <HAL_I2C_Master_Transmit+0x154>
    __HAL_LOCK(hi2c);
 80030c0:	f890 3040 	ldrb.w	r3, [r0, #64]	@ 0x40
 80030c4:	2b01      	cmp	r3, #1
 80030c6:	f000 8099 	beq.w	80031fc <HAL_I2C_Master_Transmit+0x154>
 80030ca:	f04f 0a01 	mov.w	sl, #1
 80030ce:	f880 a040 	strb.w	sl, [r0, #64]	@ 0x40
    tickstart = HAL_GetTick();
 80030d2:	f7ff fc41 	bl	8002958 <HAL_GetTick>
    if (I2C_WaitOnFlagUntilTimeout(hi2c, I2C_FLAG_BUSY, SET, I2C_TIMEOUT_BUSY, tickstart) != HAL_OK)
 80030d6:	2319      	movs	r3, #25
    tickstart = HAL_GetTick();
 80030d8:	4605      	mov	r5, r0
    if (I2C_WaitOnFlagUntilTimeout(hi2c, I2C_FLAG_BUSY, SET, I2C_TIMEOUT_BUSY, tickstart) != HAL_OK)
 80030da:	9000      	str	r0, [sp, #0]
 80030dc:	4652      	mov	r2, sl
 80030de:	f44f 4100 	mov.w	r1, #32768	@ 0x8000
 80030e2:	4620      	mov	r0, r4
 80030e4:	f7ff fed3 	bl	8002e8e <I2C_WaitOnFlagUntilTimeout>
 80030e8:	b118      	cbz	r0, 80030f2 <HAL_I2C_Master_Transmit+0x4a>
      return HAL_ERROR;
 80030ea:	2001      	movs	r0, #1
}
 80030ec:	b002      	add	sp, #8
 80030ee:	e8bd 87f0 	ldmia.w	sp!, {r4, r5, r6, r7, r8, r9, sl, pc}
    hi2c->State     = HAL_I2C_STATE_BUSY_TX;
 80030f2:	2321      	movs	r3, #33	@ 0x21
 80030f4:	f884 3041 	strb.w	r3, [r4, #65]	@ 0x41
    hi2c->Mode      = HAL_I2C_MODE_MASTER;
 80030f8:	2310      	movs	r3, #16
 80030fa:	f884 3042 	strb.w	r3, [r4, #66]	@ 0x42
    hi2c->ErrorCode = HAL_I2C_ERROR_NONE;
 80030fe:	6460      	str	r0, [r4, #68]	@ 0x44
    hi2c->XferCount = Size;
 8003100:	f8a4 902a 	strh.w	r9, [r4, #42]	@ 0x2a
    if (hi2c->XferCount > MAX_NBYTE_SIZE)
 8003104:	8d63      	ldrh	r3, [r4, #42]	@ 0x2a
    hi2c->pBuffPtr  = pData;
 8003106:	f8c4 8024 	str.w	r8, [r4, #36]	@ 0x24
    if (hi2c->XferCount > MAX_NBYTE_SIZE)
 800310a:	b29b      	uxth	r3, r3
 800310c:	2bff      	cmp	r3, #255	@ 0xff
    hi2c->XferISR   = NULL;
 800310e:	6360      	str	r0, [r4, #52]	@ 0x34
    if (hi2c->XferCount > MAX_NBYTE_SIZE)
 8003110:	d916      	bls.n	8003140 <HAL_I2C_Master_Transmit+0x98>
 8003112:	22ff      	movs	r2, #255	@ 0xff
 8003114:	8522      	strh	r2, [r4, #40]	@ 0x28
      xfermode = I2C_RELOAD_MODE;
 8003116:	f04f 7c80 	mov.w	ip, #16777216	@ 0x1000000
      hi2c->Instance->TXDR = *hi2c->pBuffPtr;
 800311a:	4641      	mov	r1, r8
 800311c:	6823      	ldr	r3, [r4, #0]
 800311e:	f811 0b01 	ldrb.w	r0, [r1], #1
 8003122:	6298      	str	r0, [r3, #40]	@ 0x28
      hi2c->pBuffPtr++;
 8003124:	6261      	str	r1, [r4, #36]	@ 0x24
      hi2c->XferCount--;
 8003126:	8d61      	ldrh	r1, [r4, #42]	@ 0x2a
 8003128:	3901      	subs	r1, #1
 800312a:	b289      	uxth	r1, r1
      hi2c->XferSize--;
 800312c:	3a01      	subs	r2, #1
      hi2c->XferCount--;
 800312e:	8561      	strh	r1, [r4, #42]	@ 0x2a
      hi2c->XferSize--;
 8003130:	b292      	uxth	r2, r2
      I2C_TransferConfig(hi2c, DevAddress, (uint8_t)(hi2c->XferSize + 1U), xfermode,
 8003132:	4933      	ldr	r1, [pc, #204]	@ (8003200 <HAL_I2C_Master_Transmit+0x158>)
      hi2c->XferSize--;
 8003134:	8522      	strh	r2, [r4, #40]	@ 0x28
      I2C_TransferConfig(hi2c, DevAddress, (uint8_t)(hi2c->XferSize + 1U), xfermode,
 8003136:	4663      	mov	r3, ip
 8003138:	3201      	adds	r2, #1
 800313a:	9100      	str	r1, [sp, #0]
          I2C_TransferConfig(hi2c, DevAddress, (uint8_t)hi2c->XferSize, I2C_AUTOEND_MODE,
 800313c:	b2d2      	uxtb	r2, r2
 800313e:	e00a      	b.n	8003156 <HAL_I2C_Master_Transmit+0xae>
      hi2c->XferSize = hi2c->XferCount;
 8003140:	8d62      	ldrh	r2, [r4, #42]	@ 0x2a
 8003142:	b292      	uxth	r2, r2
      xfermode = I2C_AUTOEND_MODE;
 8003144:	8522      	strh	r2, [r4, #40]	@ 0x28
    if (hi2c->XferSize > 0U)
 8003146:	b112      	cbz	r2, 800314e <HAL_I2C_Master_Transmit+0xa6>
 8003148:	f04f 7c00 	mov.w	ip, #33554432	@ 0x2000000
 800314c:	e7e5      	b.n	800311a <HAL_I2C_Master_Transmit+0x72>
      I2C_TransferConfig(hi2c, DevAddress, (uint8_t)hi2c->XferSize, xfermode,
 800314e:	4b2c      	ldr	r3, [pc, #176]	@ (8003200 <HAL_I2C_Master_Transmit+0x158>)
 8003150:	9300      	str	r3, [sp, #0]
 8003152:	f04f 7300 	mov.w	r3, #33554432	@ 0x2000000
          I2C_TransferConfig(hi2c, DevAddress, (uint8_t)hi2c->XferSize, I2C_AUTOEND_MODE,
 8003156:	4631      	mov	r1, r6
 8003158:	4620      	mov	r0, r4
 800315a:	f7ff fdd7 	bl	8002d0c <I2C_TransferConfig>
    while (hi2c->XferCount > 0U)
 800315e:	8d63      	ldrh	r3, [r4, #42]	@ 0x2a
 8003160:	b29b      	uxth	r3, r3
      if (I2C_WaitOnTXISFlagUntilTimeout(hi2c, Timeout, tickstart) != HAL_OK)
 8003162:	462a      	mov	r2, r5
 8003164:	4639      	mov	r1, r7
 8003166:	4620      	mov	r0, r4
    while (hi2c->XferCount > 0U)
 8003168:	b9bb      	cbnz	r3, 800319a <HAL_I2C_Master_Transmit+0xf2>
    if (I2C_WaitOnSTOPFlagUntilTimeout(hi2c, Timeout, tickstart) != HAL_OK)
 800316a:	f7ff fecb 	bl	8002f04 <I2C_WaitOnSTOPFlagUntilTimeout>
 800316e:	2800      	cmp	r0, #0
 8003170:	d1bb      	bne.n	80030ea <HAL_I2C_Master_Transmit+0x42>
    __HAL_I2C_CLEAR_FLAG(hi2c, I2C_FLAG_STOPF);
 8003172:	6823      	ldr	r3, [r4, #0]
 8003174:	2120      	movs	r1, #32
 8003176:	61d9      	str	r1, [r3, #28]
    I2C_RESET_CR2(hi2c);
 8003178:	685a      	ldr	r2, [r3, #4]
 800317a:	f022 72ff 	bic.w	r2, r2, #33423360	@ 0x1fe0000
 800317e:	f422 328b 	bic.w	r2, r2, #71168	@ 0x11600
 8003182:	f422 72ff 	bic.w	r2, r2, #510	@ 0x1fe
 8003186:	f022 0201 	bic.w	r2, r2, #1
 800318a:	605a      	str	r2, [r3, #4]
    hi2c->State = HAL_I2C_STATE_READY;
 800318c:	f884 1041 	strb.w	r1, [r4, #65]	@ 0x41
    __HAL_UNLOCK(hi2c);
 8003190:	f884 0040 	strb.w	r0, [r4, #64]	@ 0x40
    hi2c->Mode  = HAL_I2C_MODE_NONE;
 8003194:	f884 0042 	strb.w	r0, [r4, #66]	@ 0x42
    return HAL_OK;
 8003198:	e7a8      	b.n	80030ec <HAL_I2C_Master_Transmit+0x44>
      if (I2C_WaitOnTXISFlagUntilTimeout(hi2c, Timeout, tickstart) != HAL_OK)
 800319a:	f7ff fe4d 	bl	8002e38 <I2C_WaitOnTXISFlagUntilTimeout>
 800319e:	2800      	cmp	r0, #0
 80031a0:	d1a3      	bne.n	80030ea <HAL_I2C_Master_Transmit+0x42>
      hi2c->Instance->TXDR = *hi2c->pBuffPtr;
 80031a2:	6a63      	ldr	r3, [r4, #36]	@ 0x24
 80031a4:	6822      	ldr	r2, [r4, #0]
 80031a6:	f813 1b01 	ldrb.w	r1, [r3], #1
 80031aa:	6291      	str	r1, [r2, #40]	@ 0x28
      hi2c->pBuffPtr++;
 80031ac:	6263      	str	r3, [r4, #36]	@ 0x24
      hi2c->XferCount--;
 80031ae:	8d63      	ldrh	r3, [r4, #42]	@ 0x2a
      hi2c->XferSize--;
 80031b0:	8d22      	ldrh	r2, [r4, #40]	@ 0x28
      hi2c->XferCount--;
 80031b2:	3b01      	subs	r3, #1
 80031b4:	b29b      	uxth	r3, r3
 80031b6:	8563      	strh	r3, [r4, #42]	@ 0x2a
      if ((hi2c->XferCount != 0U) && (hi2c->XferSize == 0U))
 80031b8:	8d63      	ldrh	r3, [r4, #42]	@ 0x2a
      hi2c->XferSize--;
 80031ba:	3a01      	subs	r2, #1
 80031bc:	b292      	uxth	r2, r2
      if ((hi2c->XferCount != 0U) && (hi2c->XferSize == 0U))
 80031be:	b29b      	uxth	r3, r3
      hi2c->XferSize--;
 80031c0:	8522      	strh	r2, [r4, #40]	@ 0x28
      if ((hi2c->XferCount != 0U) && (hi2c->XferSize == 0U))
 80031c2:	2b00      	cmp	r3, #0
 80031c4:	d0cb      	beq.n	800315e <HAL_I2C_Master_Transmit+0xb6>
 80031c6:	2a00      	cmp	r2, #0
 80031c8:	d1c9      	bne.n	800315e <HAL_I2C_Master_Transmit+0xb6>
        if (I2C_WaitOnFlagUntilTimeout(hi2c, I2C_FLAG_TCR, RESET, Timeout, tickstart) != HAL_OK)
 80031ca:	9500      	str	r5, [sp, #0]
 80031cc:	463b      	mov	r3, r7
 80031ce:	2180      	movs	r1, #128	@ 0x80
 80031d0:	4620      	mov	r0, r4
 80031d2:	f7ff fe5c 	bl	8002e8e <I2C_WaitOnFlagUntilTimeout>
 80031d6:	2800      	cmp	r0, #0
 80031d8:	d187      	bne.n	80030ea <HAL_I2C_Master_Transmit+0x42>
        if (hi2c->XferCount > MAX_NBYTE_SIZE)
 80031da:	8d63      	ldrh	r3, [r4, #42]	@ 0x2a
 80031dc:	b29b      	uxth	r3, r3
 80031de:	2bff      	cmp	r3, #255	@ 0xff
 80031e0:	d905      	bls.n	80031ee <HAL_I2C_Master_Transmit+0x146>
          hi2c->XferSize = MAX_NBYTE_SIZE;
 80031e2:	22ff      	movs	r2, #255	@ 0xff
 80031e4:	8522      	strh	r2, [r4, #40]	@ 0x28
          I2C_TransferConfig(hi2c, DevAddress, (uint8_t)hi2c->XferSize, I2C_RELOAD_MODE,
 80031e6:	f04f 7380 	mov.w	r3, #16777216	@ 0x1000000
 80031ea:	9000      	str	r0, [sp, #0]
 80031ec:	e7b3      	b.n	8003156 <HAL_I2C_Master_Transmit+0xae>
          hi2c->XferSize = hi2c->XferCount;
 80031ee:	8d62      	ldrh	r2, [r4, #42]	@ 0x2a
 80031f0:	b292      	uxth	r2, r2
 80031f2:	8522      	strh	r2, [r4, #40]	@ 0x28
          I2C_TransferConfig(hi2c, DevAddress, (uint8_t)hi2c->XferSize, I2C_AUTOEND_MODE,
 80031f4:	f04f 7300 	mov.w	r3, #33554432	@ 0x2000000
 80031f8:	9000      	str	r0, [sp, #0]
 80031fa:	e79f      	b.n	800313c <HAL_I2C_Master_Transmit+0x94>
    __HAL_LOCK(hi2c);
 80031fc:	2002      	movs	r0, #2
 80031fe:	e775      	b.n	80030ec <HAL_I2C_Master_Transmit+0x44>
 8003200:	80002000 	.word	0x80002000

08003204 <HAL_I2C_Master_Receive>:
{
 8003204:	e92d 47f3 	stmdb	sp!, {r0, r1, r4, r5, r6, r7, r8, r9, sl, lr}
 8003208:	4698      	mov	r8, r3
  if (hi2c->State == HAL_I2C_STATE_READY)
 800320a:	f890 3041 	ldrb.w	r3, [r0, #65]	@ 0x41
{
 800320e:	9f0a      	ldr	r7, [sp, #40]	@ 0x28
  if (hi2c->State == HAL_I2C_STATE_READY)
 8003210:	2b20      	cmp	r3, #32
{
 8003212:	4604      	mov	r4, r0
 8003214:	460e      	mov	r6, r1
 8003216:	4691      	mov	r9, r2
  if (hi2c->State == HAL_I2C_STATE_READY)
 8003218:	f040 8087 	bne.w	800332a <HAL_I2C_Master_Receive+0x126>
    __HAL_LOCK(hi2c);
 800321c:	f890 3040 	ldrb.w	r3, [r0, #64]	@ 0x40
 8003220:	2b01      	cmp	r3, #1
 8003222:	f000 8082 	beq.w	800332a <HAL_I2C_Master_Receive+0x126>
 8003226:	f04f 0a01 	mov.w	sl, #1
 800322a:	f880 a040 	strb.w	sl, [r0, #64]	@ 0x40
    tickstart = HAL_GetTick();
 800322e:	f7ff fb93 	bl	8002958 <HAL_GetTick>
    if (I2C_WaitOnFlagUntilTimeout(hi2c, I2C_FLAG_BUSY, SET, I2C_TIMEOUT_BUSY, tickstart) != HAL_OK)
 8003232:	2319      	movs	r3, #25
    tickstart = HAL_GetTick();
 8003234:	4605      	mov	r5, r0
    if (I2C_WaitOnFlagUntilTimeout(hi2c, I2C_FLAG_BUSY, SET, I2C_TIMEOUT_BUSY, tickstart) != HAL_OK)
 8003236:	9000      	str	r0, [sp, #0]
 8003238:	4652      	mov	r2, sl
 800323a:	f44f 4100 	mov.w	r1, #32768	@ 0x8000
 800323e:	4620      	mov	r0, r4
 8003240:	f7ff fe25 	bl	8002e8e <I2C_WaitOnFlagUntilTimeout>
 8003244:	b118      	cbz	r0, 800324e <HAL_I2C_Master_Receive+0x4a>
      return HAL_ERROR;
 8003246:	2001      	movs	r0, #1
}
 8003248:	b002      	add	sp, #8
 800324a:	e8bd 87f0 	ldmia.w	sp!, {r4, r5, r6, r7, r8, r9, sl, pc}
    hi2c->State     = HAL_I2C_STATE_BUSY_RX;
 800324e:	2322      	movs	r3, #34	@ 0x22
 8003250:	f884 3041 	strb.w	r3, [r4, #65]	@ 0x41
    hi2c->Mode      = HAL_I2C_MODE_MASTER;
 8003254:	2310      	movs	r3, #16
 8003256:	f884 3042 	strb.w	r3, [r4, #66]	@ 0x42
    hi2c->ErrorCode = HAL_I2C_ERROR_NONE;
 800325a:	6460      	str	r0, [r4, #68]	@ 0x44
    hi2c->XferCount = Size;
 800325c:	f8a4 802a 	strh.w	r8, [r4, #42]	@ 0x2a
    if (hi2c->XferCount > MAX_NBYTE_SIZE)
 8003260:	8d63      	ldrh	r3, [r4, #42]	@ 0x2a
    hi2c->pBuffPtr  = pData;
 8003262:	f8c4 9024 	str.w	r9, [r4, #36]	@ 0x24
    if (hi2c->XferCount > MAX_NBYTE_SIZE)
 8003266:	b29b      	uxth	r3, r3
 8003268:	2bff      	cmp	r3, #255	@ 0xff
    hi2c->XferISR   = NULL;
 800326a:	6360      	str	r0, [r4, #52]	@ 0x34
    if (hi2c->XferCount > MAX_NBYTE_SIZE)
 800326c:	4b30      	ldr	r3, [pc, #192]	@ (8003330 <HAL_I2C_Master_Receive+0x12c>)
 800326e:	d926      	bls.n	80032be <HAL_I2C_Master_Receive+0xba>
      hi2c->XferSize = MAX_NBYTE_SIZE;
 8003270:	22ff      	movs	r2, #255	@ 0xff
 8003272:	8522      	strh	r2, [r4, #40]	@ 0x28
      I2C_TransferConfig(hi2c, DevAddress, (uint8_t)hi2c->XferSize, I2C_RELOAD_MODE,
 8003274:	9300      	str	r3, [sp, #0]
          I2C_TransferConfig(hi2c, DevAddress, (uint8_t)hi2c->XferSize, I2C_RELOAD_MODE,
 8003276:	f04f 7380 	mov.w	r3, #16777216	@ 0x1000000
          I2C_TransferConfig(hi2c, DevAddress, (uint8_t)hi2c->XferSize, I2C_AUTOEND_MODE,
 800327a:	4631      	mov	r1, r6
 800327c:	4620      	mov	r0, r4
 800327e:	f7ff fd45 	bl	8002d0c <I2C_TransferConfig>
    while (hi2c->XferCount > 0U)
 8003282:	8d63      	ldrh	r3, [r4, #42]	@ 0x2a
 8003284:	b29b      	uxth	r3, r3
      if (I2C_WaitOnRXNEFlagUntilTimeout(hi2c, Timeout, tickstart) != HAL_OK)
 8003286:	462a      	mov	r2, r5
 8003288:	4639      	mov	r1, r7
 800328a:	4620      	mov	r0, r4
    while (hi2c->XferCount > 0U)
 800328c:	b9fb      	cbnz	r3, 80032ce <HAL_I2C_Master_Receive+0xca>
    if (I2C_WaitOnSTOPFlagUntilTimeout(hi2c, Timeout, tickstart) != HAL_OK)
 800328e:	f7ff fe39 	bl	8002f04 <I2C_WaitOnSTOPFlagUntilTimeout>
 8003292:	2800      	cmp	r0, #0
 8003294:	d1d7      	bne.n	8003246 <HAL_I2C_Master_Receive+0x42>
    __HAL_I2C_CLEAR_FLAG(hi2c, I2C_FLAG_STOPF);
 8003296:	6823      	ldr	r3, [r4, #0]
 8003298:	2120      	movs	r1, #32
 800329a:	61d9      	str	r1, [r3, #28]
    I2C_RESET_CR2(hi2c);
 800329c:	685a      	ldr	r2, [r3, #4]
 800329e:	f022 72ff 	bic.w	r2, r2, #33423360	@ 0x1fe0000
 80032a2:	f422 328b 	bic.w	r2, r2, #71168	@ 0x11600
 80032a6:	f422 72ff 	bic.w	r2, r2, #510	@ 0x1fe
 80032aa:	f022 0201 	bic.w	r2, r2, #1
 80032ae:	605a      	str	r2, [r3, #4]
    hi2c->State = HAL_I2C_STATE_READY;
 80032b0:	f884 1041 	strb.w	r1, [r4, #65]	@ 0x41
    __HAL_UNLOCK(hi2c);
 80032b4:	f884 0040 	strb.w	r0, [r4, #64]	@ 0x40
    hi2c->Mode  = HAL_I2C_MODE_NONE;
 80032b8:	f884 0042 	strb.w	r0, [r4, #66]	@ 0x42
    return HAL_OK;
 80032bc:	e7c4      	b.n	8003248 <HAL_I2C_Master_Receive+0x44>
      hi2c->XferSize = hi2c->XferCount;
 80032be:	8d62      	ldrh	r2, [r4, #42]	@ 0x2a
 80032c0:	b292      	uxth	r2, r2
 80032c2:	8522      	strh	r2, [r4, #40]	@ 0x28
      I2C_TransferConfig(hi2c, DevAddress, (uint8_t)hi2c->XferSize, I2C_AUTOEND_MODE,
 80032c4:	9300      	str	r3, [sp, #0]
          I2C_TransferConfig(hi2c, DevAddress, (uint8_t)hi2c->XferSize, I2C_AUTOEND_MODE,
 80032c6:	f04f 7300 	mov.w	r3, #33554432	@ 0x2000000
 80032ca:	b2d2      	uxtb	r2, r2
 80032cc:	e7d5      	b.n	800327a <HAL_I2C_Master_Receive+0x76>
      if (I2C_WaitOnRXNEFlagUntilTimeout(hi2c, Timeout, tickstart) != HAL_OK)
 80032ce:	f7ff fe43 	bl	8002f58 <I2C_WaitOnRXNEFlagUntilTimeout>
 80032d2:	2800      	cmp	r0, #0
 80032d4:	d1b7      	bne.n	8003246 <HAL_I2C_Master_Receive+0x42>
      *hi2c->pBuffPtr = (uint8_t)hi2c->Instance->RXDR;
 80032d6:	6823      	ldr	r3, [r4, #0]
 80032d8:	6a5a      	ldr	r2, [r3, #36]	@ 0x24
 80032da:	6a63      	ldr	r3, [r4, #36]	@ 0x24
 80032dc:	701a      	strb	r2, [r3, #0]
      hi2c->pBuffPtr++;
 80032de:	6a63      	ldr	r3, [r4, #36]	@ 0x24
      hi2c->XferSize--;
 80032e0:	8d22      	ldrh	r2, [r4, #40]	@ 0x28
      hi2c->pBuffPtr++;
 80032e2:	3301      	adds	r3, #1
 80032e4:	6263      	str	r3, [r4, #36]	@ 0x24
      hi2c->XferCount--;
 80032e6:	8d63      	ldrh	r3, [r4, #42]	@ 0x2a
 80032e8:	3b01      	subs	r3, #1
 80032ea:	b29b      	uxth	r3, r3
 80032ec:	8563      	strh	r3, [r4, #42]	@ 0x2a
      if ((hi2c->XferCount != 0U) && (hi2c->XferSize == 0U))
 80032ee:	8d63      	ldrh	r3, [r4, #42]	@ 0x2a
      hi2c->XferSize--;
 80032f0:	3a01      	subs	r2, #1
 80032f2:	b292      	uxth	r2, r2
      if ((hi2c->XferCount != 0U) && (hi2c->XferSize == 0U))
 80032f4:	b29b      	uxth	r3, r3
      hi2c->XferSize--;
 80032f6:	8522      	strh	r2, [r4, #40]	@ 0x28
      if ((hi2c->XferCount != 0U) && (hi2c->XferSize == 0U))
 80032f8:	2b00      	cmp	r3, #0
 80032fa:	d0c2      	beq.n	8003282 <HAL_I2C_Master_Receive+0x7e>
 80032fc:	2a00      	cmp	r2, #0
 80032fe:	d1c0      	bne.n	8003282 <HAL_I2C_Master_Receive+0x7e>
        if (I2C_WaitOnFlagUntilTimeout(hi2c, I2C_FLAG_TCR, RESET, Timeout, tickstart) != HAL_OK)
 8003300:	9500      	str	r5, [sp, #0]
 8003302:	463b      	mov	r3, r7
 8003304:	2180      	movs	r1, #128	@ 0x80
 8003306:	4620      	mov	r0, r4
 8003308:	f7ff fdc1 	bl	8002e8e <I2C_WaitOnFlagUntilTimeout>
 800330c:	2800      	cmp	r0, #0
 800330e:	d19a      	bne.n	8003246 <HAL_I2C_Master_Receive+0x42>
        if (hi2c->XferCount > MAX_NBYTE_SIZE)
 8003310:	8d63      	ldrh	r3, [r4, #42]	@ 0x2a
 8003312:	b29b      	uxth	r3, r3
 8003314:	2bff      	cmp	r3, #255	@ 0xff
 8003316:	d903      	bls.n	8003320 <HAL_I2C_Master_Receive+0x11c>
          hi2c->XferSize = MAX_NBYTE_SIZE;
 8003318:	22ff      	movs	r2, #255	@ 0xff
 800331a:	8522      	strh	r2, [r4, #40]	@ 0x28
          I2C_TransferConfig(hi2c, DevAddress, (uint8_t)hi2c->XferSize, I2C_RELOAD_MODE,
 800331c:	9000      	str	r0, [sp, #0]
 800331e:	e7aa      	b.n	8003276 <HAL_I2C_Master_Receive+0x72>
          hi2c->XferSize = hi2c->XferCount;
 8003320:	8d62      	ldrh	r2, [r4, #42]	@ 0x2a
 8003322:	b292      	uxth	r2, r2
 8003324:	8522      	strh	r2, [r4, #40]	@ 0x28
          I2C_TransferConfig(hi2c, DevAddress, (uint8_t)hi2c->XferSize, I2C_AUTOEND_MODE,
 8003326:	9000      	str	r0, [sp, #0]
 8003328:	e7cd      	b.n	80032c6 <HAL_I2C_Master_Receive+0xc2>
    __HAL_LOCK(hi2c);
 800332a:	2002      	movs	r0, #2
 800332c:	e78c      	b.n	8003248 <HAL_I2C_Master_Receive+0x44>
 800332e:	bf00      	nop
 8003330:	80002400 	.word	0x80002400

08003334 <HAL_I2CEx_ConfigAnalogFilter>:
  *                the configuration information for the specified I2Cx peripheral.
  * @param  AnalogFilter New state of the Analog filter.
  * @retval HAL status
  */
HAL_StatusTypeDef HAL_I2CEx_ConfigAnalogFilter(I2C_HandleTypeDef *hi2c, uint32_t AnalogFilter)
{
 8003334:	b510      	push	{r4, lr}
  /* Check the parameters */
  assert_param(IS_I2C_ALL_INSTANCE(hi2c->Instance));
  assert_param(IS_I2C_ANALOG_FILTER(AnalogFilter));

  if (hi2c->State == HAL_I2C_STATE_READY)
 8003336:	f890 2041 	ldrb.w	r2, [r0, #65]	@ 0x41
 800333a:	2a20      	cmp	r2, #32
{
 800333c:	4603      	mov	r3, r0
  if (hi2c->State == HAL_I2C_STATE_READY)
 800333e:	b2d4      	uxtb	r4, r2
 8003340:	d11c      	bne.n	800337c <HAL_I2CEx_ConfigAnalogFilter+0x48>
  {
    /* Process Locked */
    __HAL_LOCK(hi2c);
 8003342:	f890 2040 	ldrb.w	r2, [r0, #64]	@ 0x40
 8003346:	2a01      	cmp	r2, #1
 8003348:	d018      	beq.n	800337c <HAL_I2CEx_ConfigAnalogFilter+0x48>

    hi2c->State = HAL_I2C_STATE_BUSY;
 800334a:	2224      	movs	r2, #36	@ 0x24
 800334c:	f880 2041 	strb.w	r2, [r0, #65]	@ 0x41

    /* Disable the selected I2C peripheral */
    __HAL_I2C_DISABLE(hi2c);
 8003350:	6802      	ldr	r2, [r0, #0]
 8003352:	6810      	ldr	r0, [r2, #0]
 8003354:	f020 0001 	bic.w	r0, r0, #1
 8003358:	6010      	str	r0, [r2, #0]

    /* Reset I2Cx ANOFF bit */
    hi2c->Instance->CR1 &= ~(I2C_CR1_ANFOFF);
 800335a:	6810      	ldr	r0, [r2, #0]
 800335c:	f420 5080 	bic.w	r0, r0, #4096	@ 0x1000
 8003360:	6010      	str	r0, [r2, #0]

    /* Set analog filter bit*/
    hi2c->Instance->CR1 |= AnalogFilter;
 8003362:	6810      	ldr	r0, [r2, #0]
 8003364:	4301      	orrs	r1, r0
 8003366:	6011      	str	r1, [r2, #0]

    __HAL_I2C_ENABLE(hi2c);
 8003368:	6811      	ldr	r1, [r2, #0]

    hi2c->State = HAL_I2C_STATE_READY;

    /* Process Unlocked */
    __HAL_UNLOCK(hi2c);
 800336a:	2000      	movs	r0, #0
    __HAL_I2C_ENABLE(hi2c);
 800336c:	f041 0101 	orr.w	r1, r1, #1
 8003370:	6011      	str	r1, [r2, #0]
    hi2c->State = HAL_I2C_STATE_READY;
 8003372:	f883 4041 	strb.w	r4, [r3, #65]	@ 0x41
    __HAL_UNLOCK(hi2c);
 8003376:	f883 0040 	strb.w	r0, [r3, #64]	@ 0x40
  }
  else
  {
    return HAL_BUSY;
  }
}
 800337a:	bd10      	pop	{r4, pc}
    __HAL_LOCK(hi2c);
 800337c:	2002      	movs	r0, #2
 800337e:	e7fc      	b.n	800337a <HAL_I2CEx_ConfigAnalogFilter+0x46>

08003380 <HAL_I2CEx_ConfigDigitalFilter>:
  *                the configuration information for the specified I2Cx peripheral.
  * @param  DigitalFilter Coefficient of digital noise filter between Min_Data=0x00 and Max_Data=0x0F.
  * @retval HAL status
  */
HAL_StatusTypeDef HAL_I2CEx_ConfigDigitalFilter(I2C_HandleTypeDef *hi2c, uint32_t DigitalFilter)
{
 8003380:	b510      	push	{r4, lr}

  /* Check the parameters */
  assert_param(IS_I2C_ALL_INSTANCE(hi2c->Instance));
  assert_param(IS_I2C_DIGITAL_FILTER(DigitalFilter));

  if (hi2c->State == HAL_I2C_STATE_READY)
 8003382:	f890 2041 	ldrb.w	r2, [r0, #65]	@ 0x41
 8003386:	2a20      	cmp	r2, #32
{
 8003388:	4603      	mov	r3, r0
  if (hi2c->State == HAL_I2C_STATE_READY)
 800338a:	b2d4      	uxtb	r4, r2
 800338c:	d11b      	bne.n	80033c6 <HAL_I2CEx_ConfigDigitalFilter+0x46>
  {
    /* Process Locked */
    __HAL_LOCK(hi2c);
 800338e:	f890 2040 	ldrb.w	r2, [r0, #64]	@ 0x40
 8003392:	2a01      	cmp	r2, #1
 8003394:	d017      	beq.n	80033c6 <HAL_I2CEx_ConfigDigitalFilter+0x46>

    hi2c->State = HAL_I2C_STATE_BUSY;
 8003396:	2224      	movs	r2, #36	@ 0x24
 8003398:	f880 2041 	strb.w	r2, [r0, #65]	@ 0x41

    /* Disable the selected I2C peripheral */
    __HAL_I2C_DISABLE(hi2c);
 800339c:	6802      	ldr	r2, [r0, #0]
 800339e:	6810      	ldr	r0, [r2, #0]
 80033a0:	f020 0001 	bic.w	r0, r0, #1
 80033a4:	6010      	str	r0, [r2, #0]

    /* Get the old register value */
    tmpreg = hi2c->Instance->CR1;
 80033a6:	6810      	ldr	r0, [r2, #0]

    /* Reset I2Cx DNF bits [11:8] */
    tmpreg &= ~(I2C_CR1_DNF);
 80033a8:	f420 6070 	bic.w	r0, r0, #3840	@ 0xf00

    /* Set I2Cx DNF coefficient */
    tmpreg |= DigitalFilter << 8U;
 80033ac:	ea40 2101 	orr.w	r1, r0, r1, lsl #8

    /* Store the new register value */
    hi2c->Instance->CR1 = tmpreg;
 80033b0:	6011      	str	r1, [r2, #0]

    __HAL_I2C_ENABLE(hi2c);
 80033b2:	6811      	ldr	r1, [r2, #0]

    hi2c->State = HAL_I2C_STATE_READY;

    /* Process Unlocked */
    __HAL_UNLOCK(hi2c);
 80033b4:	2000      	movs	r0, #0
    __HAL_I2C_ENABLE(hi2c);
 80033b6:	f041 0101 	orr.w	r1, r1, #1
 80033ba:	6011      	str	r1, [r2, #0]
    hi2c->State = HAL_I2C_STATE_READY;
 80033bc:	f883 4041 	strb.w	r4, [r3, #65]	@ 0x41
    __HAL_UNLOCK(hi2c);
 80033c0:	f883 0040 	strb.w	r0, [r3, #64]	@ 0x40
  }
  else
  {
    return HAL_BUSY;
  }
}
 80033c4:	bd10      	pop	{r4, pc}
    __HAL_LOCK(hi2c);
 80033c6:	2002      	movs	r0, #2
 80033c8:	e7fc      	b.n	80033c4 <HAL_I2CEx_ConfigDigitalFilter+0x44>

080033ca <HAL_PCD_Init>:
  *         parameters in the PCD_InitTypeDef and initialize the associated handle.
  * @param  hpcd PCD handle
  * @retval HAL status
  */
HAL_StatusTypeDef HAL_PCD_Init(PCD_HandleTypeDef *hpcd)
{
 80033ca:	b570      	push	{r4, r5, r6, lr}
  uint8_t i;

  /* Check the PCD handle allocation */
  if (hpcd == NULL)
 80033cc:	4604      	mov	r4, r0
 80033ce:	2800      	cmp	r0, #0
 80033d0:	d04d      	beq.n	800346e <HAL_PCD_Init+0xa4>
  }

  /* Check the parameters */
  assert_param(IS_PCD_ALL_INSTANCE(hpcd->Instance));

  if (hpcd->State == HAL_PCD_STATE_RESET)
 80033d2:	f890 3291 	ldrb.w	r3, [r0, #657]	@ 0x291
 80033d6:	f003 02ff 	and.w	r2, r3, #255	@ 0xff
 80033da:	b91b      	cbnz	r3, 80033e4 <HAL_PCD_Init+0x1a>
  {
    /* Allocate lock resource and initialize it */
    hpcd->Lock = HAL_UNLOCKED;
 80033dc:	f880 2290 	strb.w	r2, [r0, #656]	@ 0x290

    /* Init the low level hardware */
    hpcd->MspInitCallback(hpcd);
#else
    /* Init the low level hardware : GPIO, CLOCK, NVIC... */
    HAL_PCD_MspInit(hpcd);
 80033e0:	f004 f880 	bl	80074e4 <HAL_PCD_MspInit>
#endif /* (USE_HAL_PCD_REGISTER_CALLBACKS) */
  }

  hpcd->State = HAL_PCD_STATE_BUSY;
 80033e4:	2303      	movs	r3, #3
 80033e6:	f884 3291 	strb.w	r3, [r4, #657]	@ 0x291

  /* Disable the Interrupts */
  __HAL_PCD_DISABLE(hpcd);
 80033ea:	6820      	ldr	r0, [r4, #0]
 80033ec:	f002 fd45 	bl	8005e7a <USB_DisableGlobalInt>

  /* Init endpoints structures */
  for (i = 0U; i < hpcd->Init.dev_endpoints; i++)
 80033f0:	2200      	movs	r2, #0
 80033f2:	7925      	ldrb	r5, [r4, #4]
 80033f4:	f104 0310 	add.w	r3, r4, #16
 80033f8:	4611      	mov	r1, r2
  {
    /* Init ep structure */
    hpcd->IN_ep[i].is_in = 1U;
 80033fa:	2601      	movs	r6, #1
 80033fc:	b2d0      	uxtb	r0, r2
  for (i = 0U; i < hpcd->Init.dev_endpoints; i++)
 80033fe:	4285      	cmp	r5, r0
 8003400:	f103 0328 	add.w	r3, r3, #40	@ 0x28
 8003404:	d817      	bhi.n	8003436 <HAL_PCD_Init+0x6c>
 8003406:	2100      	movs	r1, #0
 8003408:	f504 73a8 	add.w	r3, r4, #336	@ 0x150
    hpcd->IN_ep[i].xfer_len = 0U;
  }

  for (i = 0U; i < hpcd->Init.dev_endpoints; i++)
  {
    hpcd->OUT_ep[i].is_in = 0U;
 800340c:	460a      	mov	r2, r1
 800340e:	b2c8      	uxtb	r0, r1
  for (i = 0U; i < hpcd->Init.dev_endpoints; i++)
 8003410:	4285      	cmp	r5, r0
 8003412:	f103 0328 	add.w	r3, r3, #40	@ 0x28
 8003416:	d81a      	bhi.n	800344e <HAL_PCD_Init+0x84>
    hpcd->OUT_ep[i].xfer_buff = 0U;
    hpcd->OUT_ep[i].xfer_len = 0U;
  }

  /* Init Device */
  (void)USB_DevInit(hpcd->Instance, hpcd->Init);
 8003418:	e9d4 1201 	ldrd	r1, r2, [r4, #4]
 800341c:	6820      	ldr	r0, [r4, #0]
 800341e:	f002 fd36 	bl	8005e8e <USB_DevInit>

  hpcd->USB_Address = 0U;
 8003422:	2300      	movs	r3, #0
 8003424:	7323      	strb	r3, [r4, #12]
  hpcd->State = HAL_PCD_STATE_READY;
 8003426:	2301      	movs	r3, #1
 8003428:	f884 3291 	strb.w	r3, [r4, #657]	@ 0x291

  /* Activate LPM */
  if (hpcd->Init.lpm_enable == 1U)
 800342c:	7aa3      	ldrb	r3, [r4, #10]
 800342e:	2b01      	cmp	r3, #1
 8003430:	d019      	beq.n	8003466 <HAL_PCD_Init+0x9c>
  {
    (void)HAL_PCDEx_ActivateLPM(hpcd);
  }

  return HAL_OK;
 8003432:	2000      	movs	r0, #0
}
 8003434:	bd70      	pop	{r4, r5, r6, pc}
    hpcd->IN_ep[i].xfer_buff = 0U;
 8003436:	e943 1106 	strd	r1, r1, [r3, #-24]
    hpcd->IN_ep[i].is_in = 1U;
 800343a:	f803 6c27 	strb.w	r6, [r3, #-39]
    hpcd->IN_ep[i].num = i;
 800343e:	f803 0c28 	strb.w	r0, [r3, #-40]
    hpcd->IN_ep[i].type = EP_TYPE_CTRL;
 8003442:	f803 1c25 	strb.w	r1, [r3, #-37]
    hpcd->IN_ep[i].xfer_len = 0U;
 8003446:	f843 1c10 	str.w	r1, [r3, #-16]
  for (i = 0U; i < hpcd->Init.dev_endpoints; i++)
 800344a:	3201      	adds	r2, #1
 800344c:	e7d6      	b.n	80033fc <HAL_PCD_Init+0x32>
    hpcd->OUT_ep[i].xfer_buff = 0U;
 800344e:	e943 2206 	strd	r2, r2, [r3, #-24]
    hpcd->OUT_ep[i].is_in = 0U;
 8003452:	f803 2c27 	strb.w	r2, [r3, #-39]
    hpcd->OUT_ep[i].num = i;
 8003456:	f803 0c28 	strb.w	r0, [r3, #-40]
    hpcd->OUT_ep[i].type = EP_TYPE_CTRL;
 800345a:	f803 2c25 	strb.w	r2, [r3, #-37]
    hpcd->OUT_ep[i].xfer_len = 0U;
 800345e:	f843 2c10 	str.w	r2, [r3, #-16]
  for (i = 0U; i < hpcd->Init.dev_endpoints; i++)
 8003462:	3101      	adds	r1, #1
 8003464:	e7d3      	b.n	800340e <HAL_PCD_Init+0x44>
    (void)HAL_PCDEx_ActivateLPM(hpcd);
 8003466:	4620      	mov	r0, r4
 8003468:	f000 fe2a 	bl	80040c0 <HAL_PCDEx_ActivateLPM>
 800346c:	e7e1      	b.n	8003432 <HAL_PCD_Init+0x68>
    return HAL_ERROR;
 800346e:	2001      	movs	r0, #1
 8003470:	e7e0      	b.n	8003434 <HAL_PCD_Init+0x6a>

08003472 <HAL_PCD_Start>:
  * @brief  Start the USB device
  * @param  hpcd PCD handle
  * @retval HAL status
  */
HAL_StatusTypeDef HAL_PCD_Start(PCD_HandleTypeDef *hpcd)
{
 8003472:	b510      	push	{r4, lr}
  __HAL_LOCK(hpcd);
 8003474:	f890 3290 	ldrb.w	r3, [r0, #656]	@ 0x290
 8003478:	2b01      	cmp	r3, #1
{
 800347a:	4604      	mov	r4, r0
  __HAL_LOCK(hpcd);
 800347c:	d00c      	beq.n	8003498 <HAL_PCD_Start+0x26>
 800347e:	2301      	movs	r3, #1
 8003480:	f880 3290 	strb.w	r3, [r0, #656]	@ 0x290
  __HAL_PCD_ENABLE(hpcd);
 8003484:	6800      	ldr	r0, [r0, #0]
 8003486:	f002 fcef 	bl	8005e68 <USB_EnableGlobalInt>
  (void)USB_DevConnect(hpcd->Instance);
 800348a:	6820      	ldr	r0, [r4, #0]
 800348c:	f003 f80e 	bl	80064ac <USB_DevConnect>
  __HAL_UNLOCK(hpcd);
 8003490:	2000      	movs	r0, #0
 8003492:	f884 0290 	strb.w	r0, [r4, #656]	@ 0x290

  return HAL_OK;
}
 8003496:	bd10      	pop	{r4, pc}
  __HAL_LOCK(hpcd);
 8003498:	2002      	movs	r0, #2
 800349a:	e7fc      	b.n	8003496 <HAL_PCD_Start+0x24>

0800349c <HAL_PCD_SetAddress>:
  * @param  hpcd PCD handle
  * @param  address new device address
  * @retval HAL status
  */
HAL_StatusTypeDef HAL_PCD_SetAddress(PCD_HandleTypeDef *hpcd, uint8_t address)
{
 800349c:	b510      	push	{r4, lr}
  __HAL_LOCK(hpcd);
 800349e:	f890 2290 	ldrb.w	r2, [r0, #656]	@ 0x290
 80034a2:	2a01      	cmp	r2, #1
{
 80034a4:	4604      	mov	r4, r0
  __HAL_LOCK(hpcd);
 80034a6:	d00a      	beq.n	80034be <HAL_PCD_SetAddress+0x22>
 80034a8:	2201      	movs	r2, #1
 80034aa:	f880 2290 	strb.w	r2, [r0, #656]	@ 0x290
  hpcd->USB_Address = address;
 80034ae:	7301      	strb	r1, [r0, #12]
  (void)USB_SetDevAddress(hpcd->Instance, address);
 80034b0:	6800      	ldr	r0, [r0, #0]
 80034b2:	f002 fff5 	bl	80064a0 <USB_SetDevAddress>
  __HAL_UNLOCK(hpcd);
 80034b6:	2000      	movs	r0, #0
 80034b8:	f884 0290 	strb.w	r0, [r4, #656]	@ 0x290

  return HAL_OK;
}
 80034bc:	bd10      	pop	{r4, pc}
  __HAL_LOCK(hpcd);
 80034be:	2002      	movs	r0, #2
 80034c0:	e7fc      	b.n	80034bc <HAL_PCD_SetAddress+0x20>
	...

080034c4 <HAL_PCD_IRQHandler>:
{
 80034c4:	e92d 4ff8 	stmdb	sp!, {r3, r4, r5, r6, r7, r8, r9, sl, fp, lr}
 80034c8:	4604      	mov	r4, r0
  uint32_t wIstr = USB_ReadInterrupts(hpcd->Instance);
 80034ca:	6800      	ldr	r0, [r0, #0]
 80034cc:	f002 fff9 	bl	80064c2 <USB_ReadInterrupts>
  if ((wIstr & USB_ISTR_CTR) == USB_ISTR_CTR)
 80034d0:	f410 4500 	ands.w	r5, r0, #32768	@ 0x8000
 80034d4:	f000 8421 	beq.w	8003d1a <HAL_PCD_IRQHandler+0x856>
      if ((wEPVal & USB_EP_CTR_TX) != 0U)
      {
        ep = &hpcd->IN_ep[epindex];

        /* clear int flag */
        PCD_CLEAR_TX_EP_CTR(hpcd->Instance, epindex);
 80034d8:	f8df 99a4 	ldr.w	r9, [pc, #2468]	@ 8003e80 <HAL_PCD_IRQHandler+0x9bc>

        if (ep->type == EP_TYPE_ISOC)
 80034dc:	f04f 0828 	mov.w	r8, #40	@ 0x28
  while ((hpcd->Instance->ISTR & USB_ISTR_CTR) != 0U)
 80034e0:	6820      	ldr	r0, [r4, #0]
 80034e2:	f8b0 3044 	ldrh.w	r3, [r0, #68]	@ 0x44
 80034e6:	041a      	lsls	r2, r3, #16
 80034e8:	d401      	bmi.n	80034ee <HAL_PCD_IRQHandler+0x2a>
}
 80034ea:	e8bd 8ff8 	ldmia.w	sp!, {r3, r4, r5, r6, r7, r8, r9, sl, fp, pc}
    wIstr = hpcd->Instance->ISTR;
 80034ee:	f8b0 5044 	ldrh.w	r5, [r0, #68]	@ 0x44
 80034f2:	b2a9      	uxth	r1, r5
    if (epindex == 0U)
 80034f4:	f015 050f 	ands.w	r5, r5, #15
 80034f8:	f040 8096 	bne.w	8003628 <HAL_PCD_IRQHandler+0x164>
      if ((wIstr & USB_ISTR_DIR) == 0U)
 80034fc:	f011 0110 	ands.w	r1, r1, #16
 8003500:	d126      	bne.n	8003550 <HAL_PCD_IRQHandler+0x8c>
        PCD_CLEAR_TX_EP_CTR(hpcd->Instance, PCD_ENDP0);
 8003502:	8803      	ldrh	r3, [r0, #0]
 8003504:	b29b      	uxth	r3, r3
 8003506:	ea03 0309 	and.w	r3, r3, r9
 800350a:	f443 4300 	orr.w	r3, r3, #32768	@ 0x8000
 800350e:	8003      	strh	r3, [r0, #0]
        ep->xfer_count = PCD_GET_EP_TX_CNT(hpcd->Instance, ep->num);
 8003510:	f8b0 3050 	ldrh.w	r3, [r0, #80]	@ 0x50
 8003514:	7c22      	ldrb	r2, [r4, #16]
 8003516:	f200 4002 	addw	r0, r0, #1026	@ 0x402
 800351a:	fa10 f383 	uxtah	r3, r0, r3
        HAL_PCD_DataInStageCallback(hpcd, 0U);
 800351e:	4620      	mov	r0, r4
        ep->xfer_count = PCD_GET_EP_TX_CNT(hpcd->Instance, ep->num);
 8003520:	f833 3032 	ldrh.w	r3, [r3, r2, lsl #3]
        ep->xfer_buff += ep->xfer_count;
 8003524:	6a62      	ldr	r2, [r4, #36]	@ 0x24
        ep->xfer_count = PCD_GET_EP_TX_CNT(hpcd->Instance, ep->num);
 8003526:	f3c3 0309 	ubfx	r3, r3, #0, #10
        ep->xfer_buff += ep->xfer_count;
 800352a:	441a      	add	r2, r3
        ep->xfer_count = PCD_GET_EP_TX_CNT(hpcd->Instance, ep->num);
 800352c:	62e3      	str	r3, [r4, #44]	@ 0x2c
        ep->xfer_buff += ep->xfer_count;
 800352e:	6262      	str	r2, [r4, #36]	@ 0x24
        HAL_PCD_DataInStageCallback(hpcd, 0U);
 8003530:	f004 f817 	bl	8007562 <HAL_PCD_DataInStageCallback>
        if ((hpcd->USB_Address > 0U) && (ep->xfer_len == 0U))
 8003534:	7b23      	ldrb	r3, [r4, #12]
 8003536:	2b00      	cmp	r3, #0
 8003538:	d0d2      	beq.n	80034e0 <HAL_PCD_IRQHandler+0x1c>
 800353a:	6aa2      	ldr	r2, [r4, #40]	@ 0x28
          hpcd->Instance->DADDR = ((uint16_t)hpcd->USB_Address | USB_DADDR_EF);
 800353c:	6821      	ldr	r1, [r4, #0]
        if ((hpcd->USB_Address > 0U) && (ep->xfer_len == 0U))
 800353e:	2a00      	cmp	r2, #0
 8003540:	d1ce      	bne.n	80034e0 <HAL_PCD_IRQHandler+0x1c>
          hpcd->Instance->DADDR = ((uint16_t)hpcd->USB_Address | USB_DADDR_EF);
 8003542:	7b23      	ldrb	r3, [r4, #12]
 8003544:	f043 0380 	orr.w	r3, r3, #128	@ 0x80
 8003548:	f8a1 304c 	strh.w	r3, [r1, #76]	@ 0x4c
          hpcd->USB_Address = 0U;
 800354c:	7322      	strb	r2, [r4, #12]
 800354e:	e7c7      	b.n	80034e0 <HAL_PCD_IRQHandler+0x1c>
        wEPVal = PCD_GET_ENDPOINT(hpcd->Instance, PCD_ENDP0);
 8003550:	8805      	ldrh	r5, [r0, #0]
 8003552:	b2ab      	uxth	r3, r5
        if ((wEPVal & USB_EP_SETUP) != 0U)
 8003554:	f415 6500 	ands.w	r5, r5, #2048	@ 0x800
 8003558:	d020      	beq.n	800359c <HAL_PCD_IRQHandler+0xd8>
          ep->xfer_count = PCD_GET_EP_RX_CNT(hpcd->Instance, ep->num);
 800355a:	f8b0 3050 	ldrh.w	r3, [r0, #80]	@ 0x50
 800355e:	f894 2150 	ldrb.w	r2, [r4, #336]	@ 0x150
 8003562:	f200 4106 	addw	r1, r0, #1030	@ 0x406
 8003566:	fa11 f383 	uxtah	r3, r1, r3
          USB_ReadPMA(hpcd->Instance, (uint8_t *)hpcd->Setup,
 800356a:	f504 7126 	add.w	r1, r4, #664	@ 0x298
 800356e:	f833 3032 	ldrh.w	r3, [r3, r2, lsl #3]
 8003572:	f8b4 2156 	ldrh.w	r2, [r4, #342]	@ 0x156
 8003576:	f3c3 0309 	ubfx	r3, r3, #0, #10
          ep->xfer_count = PCD_GET_EP_RX_CNT(hpcd->Instance, ep->num);
 800357a:	f8c4 316c 	str.w	r3, [r4, #364]	@ 0x16c
          USB_ReadPMA(hpcd->Instance, (uint8_t *)hpcd->Setup,
 800357e:	f003 f933 	bl	80067e8 <USB_ReadPMA>
          PCD_CLEAR_RX_EP_CTR(hpcd->Instance, PCD_ENDP0);
 8003582:	6822      	ldr	r2, [r4, #0]
 8003584:	8813      	ldrh	r3, [r2, #0]
 8003586:	f023 0370 	bic.w	r3, r3, #112	@ 0x70
 800358a:	051b      	lsls	r3, r3, #20
 800358c:	0d1b      	lsrs	r3, r3, #20
 800358e:	f043 0380 	orr.w	r3, r3, #128	@ 0x80
 8003592:	8013      	strh	r3, [r2, #0]
          HAL_PCD_SetupStageCallback(hpcd);
 8003594:	4620      	mov	r0, r4
 8003596:	f003 ffd5 	bl	8007544 <HAL_PCD_SetupStageCallback>
 800359a:	e7a1      	b.n	80034e0 <HAL_PCD_IRQHandler+0x1c>
        else if ((wEPVal & USB_EP_CTR_RX) != 0U)
 800359c:	041e      	lsls	r6, r3, #16
 800359e:	d59f      	bpl.n	80034e0 <HAL_PCD_IRQHandler+0x1c>
          PCD_CLEAR_RX_EP_CTR(hpcd->Instance, PCD_ENDP0);
 80035a0:	8803      	ldrh	r3, [r0, #0]
 80035a2:	f023 0370 	bic.w	r3, r3, #112	@ 0x70
 80035a6:	051b      	lsls	r3, r3, #20
 80035a8:	0d1b      	lsrs	r3, r3, #20
 80035aa:	f043 0380 	orr.w	r3, r3, #128	@ 0x80
 80035ae:	8003      	strh	r3, [r0, #0]
          ep->xfer_count = PCD_GET_EP_RX_CNT(hpcd->Instance, ep->num);
 80035b0:	f8b0 3050 	ldrh.w	r3, [r0, #80]	@ 0x50
 80035b4:	f894 2150 	ldrb.w	r2, [r4, #336]	@ 0x150
 80035b8:	f200 4106 	addw	r1, r0, #1030	@ 0x406
 80035bc:	fa11 f383 	uxtah	r3, r1, r3
 80035c0:	f833 3032 	ldrh.w	r3, [r3, r2, lsl #3]
 80035c4:	f3c3 0309 	ubfx	r3, r3, #0, #10
 80035c8:	f8c4 316c 	str.w	r3, [r4, #364]	@ 0x16c
          if ((ep->xfer_count != 0U) && (ep->xfer_buff != 0U))
 80035cc:	b18b      	cbz	r3, 80035f2 <HAL_PCD_IRQHandler+0x12e>
 80035ce:	f8d4 1164 	ldr.w	r1, [r4, #356]	@ 0x164
 80035d2:	b171      	cbz	r1, 80035f2 <HAL_PCD_IRQHandler+0x12e>
            USB_ReadPMA(hpcd->Instance, ep->xfer_buff,
 80035d4:	f8b4 2156 	ldrh.w	r2, [r4, #342]	@ 0x156
 80035d8:	f003 f906 	bl	80067e8 <USB_ReadPMA>
            ep->xfer_buff += ep->xfer_count;
 80035dc:	f8d4 3164 	ldr.w	r3, [r4, #356]	@ 0x164
 80035e0:	f8d4 216c 	ldr.w	r2, [r4, #364]	@ 0x16c
 80035e4:	4413      	add	r3, r2
 80035e6:	f8c4 3164 	str.w	r3, [r4, #356]	@ 0x164
            HAL_PCD_DataOutStageCallback(hpcd, 0U);
 80035ea:	4629      	mov	r1, r5
 80035ec:	4620      	mov	r0, r4
 80035ee:	f003 ffaf 	bl	8007550 <HAL_PCD_DataOutStageCallback>
          wEPVal = (uint16_t)PCD_GET_ENDPOINT(hpcd->Instance, PCD_ENDP0);
 80035f2:	6822      	ldr	r2, [r4, #0]
 80035f4:	8811      	ldrh	r1, [r2, #0]
 80035f6:	b28b      	uxth	r3, r1
          if (((wEPVal & USB_EP_SETUP) == 0U) && ((wEPVal & USB_EP_RX_STRX) != USB_EP_RX_VALID))
 80035f8:	0509      	lsls	r1, r1, #20
 80035fa:	f53f af71 	bmi.w	80034e0 <HAL_PCD_IRQHandler+0x1c>
 80035fe:	f403 5340 	and.w	r3, r3, #12288	@ 0x3000
 8003602:	f5b3 5f40 	cmp.w	r3, #12288	@ 0x3000
 8003606:	f43f af6b 	beq.w	80034e0 <HAL_PCD_IRQHandler+0x1c>
            PCD_SET_EP_RX_STATUS(hpcd->Instance, PCD_ENDP0, USB_EP_RX_VALID);
 800360a:	8813      	ldrh	r3, [r2, #0]
 800360c:	f423 4380 	bic.w	r3, r3, #16384	@ 0x4000
 8003610:	f023 0370 	bic.w	r3, r3, #112	@ 0x70
 8003614:	041b      	lsls	r3, r3, #16
 8003616:	0c1b      	lsrs	r3, r3, #16
 8003618:	f483 5340 	eor.w	r3, r3, #12288	@ 0x3000
 800361c:	f443 4300 	orr.w	r3, r3, #32768	@ 0x8000
 8003620:	f043 0380 	orr.w	r3, r3, #128	@ 0x80
 8003624:	8013      	strh	r3, [r2, #0]
 8003626:	e75b      	b.n	80034e0 <HAL_PCD_IRQHandler+0x1c>
      wEPVal = PCD_GET_ENDPOINT(hpcd->Instance, epindex);
 8003628:	b22e      	sxth	r6, r5
 800362a:	f830 3026 	ldrh.w	r3, [r0, r6, lsl #2]
      if ((wEPVal & USB_EP_CTR_RX) != 0U)
 800362e:	041a      	lsls	r2, r3, #16
      wEPVal = PCD_GET_ENDPOINT(hpcd->Instance, epindex);
 8003630:	b29f      	uxth	r7, r3
      if ((wEPVal & USB_EP_CTR_RX) != 0U)
 8003632:	f140 80ed 	bpl.w	8003810 <HAL_PCD_IRQHandler+0x34c>
        PCD_CLEAR_RX_EP_CTR(hpcd->Instance, epindex);
 8003636:	f830 3026 	ldrh.w	r3, [r0, r6, lsl #2]
 800363a:	f023 0370 	bic.w	r3, r3, #112	@ 0x70
 800363e:	051b      	lsls	r3, r3, #20
 8003640:	0d1b      	lsrs	r3, r3, #20
 8003642:	f043 0380 	orr.w	r3, r3, #128	@ 0x80
 8003646:	f820 3026 	strh.w	r3, [r0, r6, lsl #2]
        if (ep->doublebuffer == 0U)
 800364a:	fb08 4105 	mla	r1, r8, r5, r4
 800364e:	f891 315c 	ldrb.w	r3, [r1, #348]	@ 0x15c
 8003652:	b9bb      	cbnz	r3, 8003684 <HAL_PCD_IRQHandler+0x1c0>
          count = (uint16_t)PCD_GET_EP_RX_CNT(hpcd->Instance, ep->num);
 8003654:	f8b0 3050 	ldrh.w	r3, [r0, #80]	@ 0x50
 8003658:	f891 2150 	ldrb.w	r2, [r1, #336]	@ 0x150
 800365c:	f200 4c06 	addw	ip, r0, #1030	@ 0x406
 8003660:	fa1c f383 	uxtah	r3, ip, r3
 8003664:	f833 a032 	ldrh.w	sl, [r3, r2, lsl #3]
 8003668:	f3ca 0a09 	ubfx	sl, sl, #0, #10
          if (count != 0U)
 800366c:	f1ba 0f00 	cmp.w	sl, #0
 8003670:	f000 80b4 	beq.w	80037dc <HAL_PCD_IRQHandler+0x318>
            USB_ReadPMA(hpcd->Instance, ep->xfer_buff, ep->pmaadress, count);
 8003674:	f8b1 2156 	ldrh.w	r2, [r1, #342]	@ 0x156
 8003678:	4653      	mov	r3, sl
                USB_ReadPMA(hpcd->Instance, ep->xfer_buff, ep->pmaaddr1, count);
 800367a:	f8d1 1164 	ldr.w	r1, [r1, #356]	@ 0x164
 800367e:	f003 f8b3 	bl	80067e8 <USB_ReadPMA>
 8003682:	e0ab      	b.n	80037dc <HAL_PCD_IRQHandler+0x318>
          if (ep->type == EP_TYPE_BULK)
 8003684:	f891 3153 	ldrb.w	r3, [r1, #339]	@ 0x153
 8003688:	f891 2150 	ldrb.w	r2, [r1, #336]	@ 0x150
 800368c:	2b02      	cmp	r3, #2
 800368e:	f040 8083 	bne.w	8003798 <HAL_PCD_IRQHandler+0x2d4>

  /* Manage Buffer0 OUT */
  if ((wEPVal & USB_EP_DTOG_RX) != 0U)
  {
    /* Get count of received Data on buffer0 */
    count = (uint16_t)PCD_GET_EP_DBUF0_CNT(hpcd->Instance, ep->num);
 8003692:	f8b0 e050 	ldrh.w	lr, [r0, #80]	@ 0x50

    if (ep->xfer_len >= count)
 8003696:	f8d1 3168 	ldr.w	r3, [r1, #360]	@ 0x168
    count = (uint16_t)PCD_GET_EP_DBUF0_CNT(hpcd->Instance, ep->num);
 800369a:	ea4f 0ac2 	mov.w	sl, r2, lsl #3
 800369e:	fa1a fe8e 	uxtah	lr, sl, lr
  if ((wEPVal & USB_EP_DTOG_RX) != 0U)
 80036a2:	f417 4b80 	ands.w	fp, r7, #16384	@ 0x4000
    count = (uint16_t)PCD_GET_EP_DBUF0_CNT(hpcd->Instance, ep->num);
 80036a6:	4486      	add	lr, r0
 80036a8:	f007 0c40 	and.w	ip, r7, #64	@ 0x40
  if ((wEPVal & USB_EP_DTOG_RX) != 0U)
 80036ac:	d03a      	beq.n	8003724 <HAL_PCD_IRQHandler+0x260>
    count = (uint16_t)PCD_GET_EP_DBUF0_CNT(hpcd->Instance, ep->num);
 80036ae:	f8be a402 	ldrh.w	sl, [lr, #1026]	@ 0x402
 80036b2:	f3ca 0a09 	ubfx	sl, sl, #0, #10
    if (ep->xfer_len >= count)
 80036b6:	459a      	cmp	sl, r3
 80036b8:	d913      	bls.n	80036e2 <HAL_PCD_IRQHandler+0x21e>
 80036ba:	2300      	movs	r3, #0
 80036bc:	f8c1 3168 	str.w	r3, [r1, #360]	@ 0x168
    }

    if (ep->xfer_len == 0U)
    {
      /* Set NAK to OUT endpoint since double buffer is enabled */
      PCD_SET_EP_RX_STATUS(hpcd->Instance, ep->num, USB_EP_RX_NAK);
 80036c0:	f830 3022 	ldrh.w	r3, [r0, r2, lsl #2]
 80036c4:	f423 4380 	bic.w	r3, r3, #16384	@ 0x4000
 80036c8:	f023 0370 	bic.w	r3, r3, #112	@ 0x70
 80036cc:	041b      	lsls	r3, r3, #16
 80036ce:	0c1b      	lsrs	r3, r3, #16
 80036d0:	f483 5300 	eor.w	r3, r3, #8192	@ 0x2000
 80036d4:	f443 4300 	orr.w	r3, r3, #32768	@ 0x8000
 80036d8:	f043 0380 	orr.w	r3, r3, #128	@ 0x80
 80036dc:	f820 3022 	strh.w	r3, [r0, r2, lsl #2]
 80036e0:	e005      	b.n	80036ee <HAL_PCD_IRQHandler+0x22a>
      ep->xfer_len -= count;
 80036e2:	eba3 030a 	sub.w	r3, r3, sl
 80036e6:	f8c1 3168 	str.w	r3, [r1, #360]	@ 0x168
    if (ep->xfer_len == 0U)
 80036ea:	2b00      	cmp	r3, #0
 80036ec:	d0e8      	beq.n	80036c0 <HAL_PCD_IRQHandler+0x1fc>
    }

    /* Check if Buffer1 is in blocked state which requires to toggle */
    if ((wEPVal & USB_EP_DTOG_TX) != 0U)
 80036ee:	f1bc 0f00 	cmp.w	ip, #0
 80036f2:	d00d      	beq.n	8003710 <HAL_PCD_IRQHandler+0x24c>
    {
      PCD_FREE_USER_BUFFER(hpcd->Instance, ep->num, 0U);
 80036f4:	f830 3022 	ldrh.w	r3, [r0, r2, lsl #2]
 80036f8:	f423 43e0 	bic.w	r3, r3, #28672	@ 0x7000
 80036fc:	f023 0370 	bic.w	r3, r3, #112	@ 0x70
 8003700:	041b      	lsls	r3, r3, #16
 8003702:	0c1b      	lsrs	r3, r3, #16
 8003704:	f443 4300 	orr.w	r3, r3, #32768	@ 0x8000
 8003708:	f043 03c0 	orr.w	r3, r3, #192	@ 0xc0
 800370c:	f820 3022 	strh.w	r3, [r0, r2, lsl #2]
    }

    if (count != 0U)
 8003710:	f1ba 0f00 	cmp.w	sl, #0
 8003714:	d062      	beq.n	80037dc <HAL_PCD_IRQHandler+0x318>
    {
      USB_ReadPMA(hpcd->Instance, ep->xfer_buff, ep->pmaaddr0, count);
 8003716:	2128      	movs	r1, #40	@ 0x28
 8003718:	fb01 4105 	mla	r1, r1, r5, r4
                USB_ReadPMA(hpcd->Instance, ep->xfer_buff, ep->pmaaddr0, count);
 800371c:	f8b1 2158 	ldrh.w	r2, [r1, #344]	@ 0x158
 8003720:	4653      	mov	r3, sl
 8003722:	e7aa      	b.n	800367a <HAL_PCD_IRQHandler+0x1b6>
  }
  /* Manage Buffer 1 DTOG_RX=0 */
  else
  {
    /* Get count of received data */
    count = (uint16_t)PCD_GET_EP_DBUF1_CNT(hpcd->Instance, ep->num);
 8003724:	f8be a406 	ldrh.w	sl, [lr, #1030]	@ 0x406
 8003728:	f3ca 0a09 	ubfx	sl, sl, #0, #10

    if (ep->xfer_len >= count)
 800372c:	459a      	cmp	sl, r3
 800372e:	d912      	bls.n	8003756 <HAL_PCD_IRQHandler+0x292>
 8003730:	f8c1 b168 	str.w	fp, [r1, #360]	@ 0x168
    }

    if (ep->xfer_len == 0U)
    {
      /* Set NAK on the current endpoint */
      PCD_SET_EP_RX_STATUS(hpcd->Instance, ep->num, USB_EP_RX_NAK);
 8003734:	f830 3022 	ldrh.w	r3, [r0, r2, lsl #2]
 8003738:	f423 4380 	bic.w	r3, r3, #16384	@ 0x4000
 800373c:	f023 0370 	bic.w	r3, r3, #112	@ 0x70
 8003740:	041b      	lsls	r3, r3, #16
 8003742:	0c1b      	lsrs	r3, r3, #16
 8003744:	f483 5300 	eor.w	r3, r3, #8192	@ 0x2000
 8003748:	f443 4300 	orr.w	r3, r3, #32768	@ 0x8000
 800374c:	f043 0380 	orr.w	r3, r3, #128	@ 0x80
 8003750:	f820 3022 	strh.w	r3, [r0, r2, lsl #2]
 8003754:	e005      	b.n	8003762 <HAL_PCD_IRQHandler+0x29e>
      ep->xfer_len -= count;
 8003756:	eba3 030a 	sub.w	r3, r3, sl
 800375a:	f8c1 3168 	str.w	r3, [r1, #360]	@ 0x168
    if (ep->xfer_len == 0U)
 800375e:	2b00      	cmp	r3, #0
 8003760:	d0e8      	beq.n	8003734 <HAL_PCD_IRQHandler+0x270>
    }

    /* Need to FreeUser Buffer */
    if ((wEPVal & USB_EP_DTOG_TX) == 0U)
 8003762:	f1bc 0f00 	cmp.w	ip, #0
 8003766:	d10d      	bne.n	8003784 <HAL_PCD_IRQHandler+0x2c0>
    {
      PCD_FREE_USER_BUFFER(hpcd->Instance, ep->num, 0U);
 8003768:	f830 3022 	ldrh.w	r3, [r0, r2, lsl #2]
 800376c:	f423 43e0 	bic.w	r3, r3, #28672	@ 0x7000
 8003770:	f023 0370 	bic.w	r3, r3, #112	@ 0x70
 8003774:	041b      	lsls	r3, r3, #16
 8003776:	0c1b      	lsrs	r3, r3, #16
 8003778:	f443 4300 	orr.w	r3, r3, #32768	@ 0x8000
 800377c:	f043 03c0 	orr.w	r3, r3, #192	@ 0xc0
 8003780:	f820 3022 	strh.w	r3, [r0, r2, lsl #2]
    }

    if (count != 0U)
 8003784:	f1ba 0f00 	cmp.w	sl, #0
 8003788:	d028      	beq.n	80037dc <HAL_PCD_IRQHandler+0x318>
    {
      USB_ReadPMA(hpcd->Instance, ep->xfer_buff, ep->pmaaddr1, count);
 800378a:	2128      	movs	r1, #40	@ 0x28
 800378c:	fb01 4105 	mla	r1, r1, r5, r4
                USB_ReadPMA(hpcd->Instance, ep->xfer_buff, ep->pmaaddr1, count);
 8003790:	f8b1 215a 	ldrh.w	r2, [r1, #346]	@ 0x15a
 8003794:	4653      	mov	r3, sl
 8003796:	e770      	b.n	800367a <HAL_PCD_IRQHandler+0x1b6>
            PCD_FREE_USER_BUFFER(hpcd->Instance, ep->num, 0U);
 8003798:	f830 3022 	ldrh.w	r3, [r0, r2, lsl #2]
 800379c:	f423 43e0 	bic.w	r3, r3, #28672	@ 0x7000
 80037a0:	f023 0370 	bic.w	r3, r3, #112	@ 0x70
 80037a4:	041b      	lsls	r3, r3, #16
 80037a6:	0c1b      	lsrs	r3, r3, #16
 80037a8:	f443 4300 	orr.w	r3, r3, #32768	@ 0x8000
 80037ac:	f043 03c0 	orr.w	r3, r3, #192	@ 0xc0
 80037b0:	f820 3022 	strh.w	r3, [r0, r2, lsl #2]
            if ((PCD_GET_ENDPOINT(hpcd->Instance, ep->num) & USB_EP_DTOG_RX) != 0U)
 80037b4:	f891 2150 	ldrb.w	r2, [r1, #336]	@ 0x150
 80037b8:	f830 3022 	ldrh.w	r3, [r0, r2, lsl #2]
 80037bc:	f413 4f80 	tst.w	r3, #16384	@ 0x4000
              count = (uint16_t)PCD_GET_EP_DBUF0_CNT(hpcd->Instance, ep->num);
 80037c0:	f8b0 3050 	ldrh.w	r3, [r0, #80]	@ 0x50
            if ((PCD_GET_ENDPOINT(hpcd->Instance, ep->num) & USB_EP_DTOG_RX) != 0U)
 80037c4:	d058      	beq.n	8003878 <HAL_PCD_IRQHandler+0x3b4>
              count = (uint16_t)PCD_GET_EP_DBUF0_CNT(hpcd->Instance, ep->num);
 80037c6:	f200 4c02 	addw	ip, r0, #1026	@ 0x402
 80037ca:	fa1c f383 	uxtah	r3, ip, r3
 80037ce:	f833 a032 	ldrh.w	sl, [r3, r2, lsl #3]
 80037d2:	f3ca 0a09 	ubfx	sl, sl, #0, #10
              if (count != 0U)
 80037d6:	f1ba 0f00 	cmp.w	sl, #0
 80037da:	d19f      	bne.n	800371c <HAL_PCD_IRQHandler+0x258>
        ep->xfer_count += count;
 80037dc:	fb08 4305 	mla	r3, r8, r5, r4
 80037e0:	f8d3 216c 	ldr.w	r2, [r3, #364]	@ 0x16c
 80037e4:	4452      	add	r2, sl
 80037e6:	f8c3 216c 	str.w	r2, [r3, #364]	@ 0x16c
        ep->xfer_buff += count;
 80037ea:	f8d3 2164 	ldr.w	r2, [r3, #356]	@ 0x164
 80037ee:	4452      	add	r2, sl
 80037f0:	f8c3 2164 	str.w	r2, [r3, #356]	@ 0x164
        if ((ep->xfer_len == 0U) || (count < ep->maxpacket))
 80037f4:	f8d3 2168 	ldr.w	r2, [r3, #360]	@ 0x168
 80037f8:	b11a      	cbz	r2, 8003802 <HAL_PCD_IRQHandler+0x33e>
 80037fa:	f8d3 3160 	ldr.w	r3, [r3, #352]	@ 0x160
 80037fe:	459a      	cmp	sl, r3
 8003800:	d246      	bcs.n	8003890 <HAL_PCD_IRQHandler+0x3cc>
          HAL_PCD_DataOutStageCallback(hpcd, ep->num);
 8003802:	fb08 4305 	mla	r3, r8, r5, r4
 8003806:	4620      	mov	r0, r4
 8003808:	f893 1150 	ldrb.w	r1, [r3, #336]	@ 0x150
 800380c:	f003 fea0 	bl	8007550 <HAL_PCD_DataOutStageCallback>
      if ((wEPVal & USB_EP_CTR_TX) != 0U)
 8003810:	063b      	lsls	r3, r7, #24
        PCD_CLEAR_TX_EP_CTR(hpcd->Instance, epindex);
 8003812:	6820      	ldr	r0, [r4, #0]
      if ((wEPVal & USB_EP_CTR_TX) != 0U)
 8003814:	f57f ae64 	bpl.w	80034e0 <HAL_PCD_IRQHandler+0x1c>
        PCD_CLEAR_TX_EP_CTR(hpcd->Instance, epindex);
 8003818:	f830 3026 	ldrh.w	r3, [r0, r6, lsl #2]
 800381c:	b29b      	uxth	r3, r3
 800381e:	ea03 0309 	and.w	r3, r3, r9
 8003822:	f443 4300 	orr.w	r3, r3, #32768	@ 0x8000
 8003826:	f820 3026 	strh.w	r3, [r0, r6, lsl #2]
        if (ep->type == EP_TYPE_ISOC)
 800382a:	fb08 4c05 	mla	ip, r8, r5, r4
 800382e:	f89c 3013 	ldrb.w	r3, [ip, #19]
 8003832:	2b01      	cmp	r3, #1
 8003834:	d15f      	bne.n	80038f6 <HAL_PCD_IRQHandler+0x432>
          ep->xfer_len = 0U;
 8003836:	fb05 8308 	mla	r3, r5, r8, r8
 800383a:	2200      	movs	r2, #0
 800383c:	50e2      	str	r2, [r4, r3]
          if (ep->doublebuffer != 0U)
 800383e:	f89c 301c 	ldrb.w	r3, [ip, #28]
 8003842:	2b00      	cmp	r3, #0
 8003844:	d039      	beq.n	80038ba <HAL_PCD_IRQHandler+0x3f6>
            if ((wEPVal & USB_EP_DTOG_TX) != 0U)
 8003846:	f017 0740 	ands.w	r7, r7, #64	@ 0x40
              PCD_SET_EP_DBUF0_CNT(hpcd->Instance, ep->num, ep->is_in, 0U);
 800384a:	f89c 3011 	ldrb.w	r3, [ip, #17]
            if ((wEPVal & USB_EP_DTOG_TX) != 0U)
 800384e:	d03c      	beq.n	80038ca <HAL_PCD_IRQHandler+0x406>
              PCD_SET_EP_DBUF0_CNT(hpcd->Instance, ep->num, ep->is_in, 0U);
 8003850:	bb33      	cbnz	r3, 80038a0 <HAL_PCD_IRQHandler+0x3dc>
 8003852:	f89c 2010 	ldrb.w	r2, [ip, #16]
 8003856:	f8b0 3050 	ldrh.w	r3, [r0, #80]	@ 0x50
 800385a:	f200 4002 	addw	r0, r0, #1026	@ 0x402
              PCD_SET_EP_DBUF1_CNT(hpcd->Instance, ep->num, ep->is_in, 0U);
 800385e:	fa10 f383 	uxtah	r3, r0, r3
 8003862:	eb03 03c2 	add.w	r3, r3, r2, lsl #3
 8003866:	881a      	ldrh	r2, [r3, #0]
 8003868:	f3c2 0209 	ubfx	r2, r2, #0, #10
 800386c:	801a      	strh	r2, [r3, #0]
 800386e:	881a      	ldrh	r2, [r3, #0]
 8003870:	b292      	uxth	r2, r2
 8003872:	f442 4200 	orr.w	r2, r2, #32768	@ 0x8000
 8003876:	e01f      	b.n	80038b8 <HAL_PCD_IRQHandler+0x3f4>
              count = (uint16_t)PCD_GET_EP_DBUF1_CNT(hpcd->Instance, ep->num);
 8003878:	f200 4c06 	addw	ip, r0, #1030	@ 0x406
 800387c:	fa1c f383 	uxtah	r3, ip, r3
 8003880:	f833 a032 	ldrh.w	sl, [r3, r2, lsl #3]
 8003884:	f3ca 0a09 	ubfx	sl, sl, #0, #10
              if (count != 0U)
 8003888:	f1ba 0f00 	cmp.w	sl, #0
 800388c:	d0a6      	beq.n	80037dc <HAL_PCD_IRQHandler+0x318>
 800388e:	e77f      	b.n	8003790 <HAL_PCD_IRQHandler+0x2cc>
        ep = &hpcd->OUT_ep[epindex];
 8003890:	fb08 4105 	mla	r1, r8, r5, r4
          (void)USB_EPStartXfer(hpcd->Instance, ep);
 8003894:	6820      	ldr	r0, [r4, #0]
 8003896:	f501 71a8 	add.w	r1, r1, #336	@ 0x150
 800389a:	f002 fe25 	bl	80064e8 <USB_EPStartXfer>
 800389e:	e7b7      	b.n	8003810 <HAL_PCD_IRQHandler+0x34c>
              PCD_SET_EP_DBUF0_CNT(hpcd->Instance, ep->num, ep->is_in, 0U);
 80038a0:	2b01      	cmp	r3, #1
 80038a2:	d10a      	bne.n	80038ba <HAL_PCD_IRQHandler+0x3f6>
 80038a4:	f8b0 3050 	ldrh.w	r3, [r0, #80]	@ 0x50
 80038a8:	f89c 1010 	ldrb.w	r1, [ip, #16]
 80038ac:	f200 4002 	addw	r0, r0, #1026	@ 0x402
 80038b0:	fa10 f383 	uxtah	r3, r0, r3
 80038b4:	eb03 03c1 	add.w	r3, r3, r1, lsl #3
 80038b8:	801a      	strh	r2, [r3, #0]
          HAL_PCD_DataInStageCallback(hpcd, ep->num);
 80038ba:	2328      	movs	r3, #40	@ 0x28
 80038bc:	fb03 4305 	mla	r3, r3, r5, r4
 80038c0:	7c19      	ldrb	r1, [r3, #16]
              HAL_PCD_DataInStageCallback(hpcd, ep->num);
 80038c2:	4620      	mov	r0, r4
 80038c4:	f003 fe4d 	bl	8007562 <HAL_PCD_DataInStageCallback>
 80038c8:	e60a      	b.n	80034e0 <HAL_PCD_IRQHandler+0x1c>
              PCD_SET_EP_DBUF1_CNT(hpcd->Instance, ep->num, ep->is_in, 0U);
 80038ca:	b933      	cbnz	r3, 80038da <HAL_PCD_IRQHandler+0x416>
 80038cc:	f8b0 3050 	ldrh.w	r3, [r0, #80]	@ 0x50
 80038d0:	f89c 2010 	ldrb.w	r2, [ip, #16]
 80038d4:	f200 4006 	addw	r0, r0, #1030	@ 0x406
 80038d8:	e7c1      	b.n	800385e <HAL_PCD_IRQHandler+0x39a>
 80038da:	2b01      	cmp	r3, #1
 80038dc:	d1ed      	bne.n	80038ba <HAL_PCD_IRQHandler+0x3f6>
 80038de:	f8b0 3050 	ldrh.w	r3, [r0, #80]	@ 0x50
 80038e2:	f89c 2010 	ldrb.w	r2, [ip, #16]
 80038e6:	f200 4006 	addw	r0, r0, #1030	@ 0x406
 80038ea:	fa10 f383 	uxtah	r3, r0, r3
 80038ee:	eb03 03c2 	add.w	r3, r3, r2, lsl #3
 80038f2:	801f      	strh	r7, [r3, #0]
 80038f4:	e7e1      	b.n	80038ba <HAL_PCD_IRQHandler+0x3f6>
          if ((wEPVal & USB_EP_KIND) == 0U)
 80038f6:	eb06 0686 	add.w	r6, r6, r6, lsl #2
            TxPctSize = (uint16_t)PCD_GET_EP_TX_CNT(hpcd->Instance, ep->num);
 80038fa:	f89c 1010 	ldrb.w	r1, [ip, #16]
 80038fe:	ea4f 0ac6 	mov.w	sl, r6, lsl #3
 8003902:	eb04 06c6 	add.w	r6, r4, r6, lsl #3
          if ((wEPVal & USB_EP_KIND) == 0U)
 8003906:	f417 7b80 	ands.w	fp, r7, #256	@ 0x100
            if (ep->xfer_len > TxPctSize)
 800390a:	6ab3      	ldr	r3, [r6, #40]	@ 0x28
            TxPctSize = (uint16_t)PCD_GET_EP_TX_CNT(hpcd->Instance, ep->num);
 800390c:	460a      	mov	r2, r1
 800390e:	ea4f 0ec1 	mov.w	lr, r1, lsl #3
          if ((wEPVal & USB_EP_KIND) == 0U)
 8003912:	d11d      	bne.n	8003950 <HAL_PCD_IRQHandler+0x48c>
            TxPctSize = (uint16_t)PCD_GET_EP_TX_CNT(hpcd->Instance, ep->num);
 8003914:	f8b0 2050 	ldrh.w	r2, [r0, #80]	@ 0x50
 8003918:	fa1e f282 	uxtah	r2, lr, r2
 800391c:	4402      	add	r2, r0
 800391e:	f8b2 2402 	ldrh.w	r2, [r2, #1026]	@ 0x402
            if (ep->xfer_len > TxPctSize)
 8003922:	f3c2 0209 	ubfx	r2, r2, #0, #10
 8003926:	429a      	cmp	r2, r3
 8003928:	d302      	bcc.n	8003930 <HAL_PCD_IRQHandler+0x46c>
 800392a:	f8c6 b028 	str.w	fp, [r6, #40]	@ 0x28
 800392e:	e7c8      	b.n	80038c2 <HAL_PCD_IRQHandler+0x3fe>
              ep->xfer_len -= TxPctSize;
 8003930:	1a9b      	subs	r3, r3, r2
 8003932:	62b3      	str	r3, [r6, #40]	@ 0x28
              ep->xfer_buff += TxPctSize;
 8003934:	f8dc 3024 	ldr.w	r3, [ip, #36]	@ 0x24
 8003938:	4413      	add	r3, r2
 800393a:	f8cc 3024 	str.w	r3, [ip, #36]	@ 0x24
              ep->xfer_count += TxPctSize;
 800393e:	6af3      	ldr	r3, [r6, #44]	@ 0x2c
        ep = &hpcd->IN_ep[epindex];
 8003940:	f10a 0110 	add.w	r1, sl, #16
              ep->xfer_count += TxPctSize;
 8003944:	4413      	add	r3, r2
 8003946:	62f3      	str	r3, [r6, #44]	@ 0x2c
              (void)USB_EPStartXfer(hpcd->Instance, ep);
 8003948:	4421      	add	r1, r4
 800394a:	f002 fdcd 	bl	80064e8 <USB_EPStartXfer>
 800394e:	e5c7      	b.n	80034e0 <HAL_PCD_IRQHandler+0x1c>
{
  uint32_t len;
  uint16_t TxPctSize;

  /* Data Buffer0 ACK received */
  if ((wEPVal & USB_EP_DTOG_TX) != 0U)
 8003950:	f017 0a40 	ands.w	sl, r7, #64	@ 0x40
  {
    /* multi-packet on the NON control IN endpoint */
    TxPctSize = (uint16_t)PCD_GET_EP_DBUF0_CNT(hpcd->Instance, ep->num);
 8003954:	f8b0 c050 	ldrh.w	ip, [r0, #80]	@ 0x50
 8003958:	f407 4780 	and.w	r7, r7, #16384	@ 0x4000
  if ((wEPVal & USB_EP_DTOG_TX) != 0U)
 800395c:	f000 8101 	beq.w	8003b62 <HAL_PCD_IRQHandler+0x69e>
    TxPctSize = (uint16_t)PCD_GET_EP_DBUF0_CNT(hpcd->Instance, ep->num);
 8003960:	f200 4e02 	addw	lr, r0, #1026	@ 0x402
 8003964:	fa1e fc8c 	uxtah	ip, lr, ip
 8003968:	b2bf      	uxth	r7, r7
 800396a:	f83c c031 	ldrh.w	ip, [ip, r1, lsl #3]

    if (ep->xfer_len > TxPctSize)
 800396e:	f3cc 0c09 	ubfx	ip, ip, #0, #10
 8003972:	459c      	cmp	ip, r3
    {
      ep->xfer_len -= TxPctSize;
 8003974:	bf34      	ite	cc
 8003976:	eba3 030c 	subcc.w	r3, r3, ip
    }
    else
    {
      ep->xfer_len = 0U;
 800397a:	2300      	movcs	r3, #0
 800397c:	62b3      	str	r3, [r6, #40]	@ 0x28
    }

    /* Transfer is completed */
    if (ep->xfer_len == 0U)
 800397e:	2b00      	cmp	r3, #0
 8003980:	d16c      	bne.n	8003a5c <HAL_PCD_IRQHandler+0x598>
    {
      PCD_SET_EP_DBUF0_CNT(hpcd->Instance, ep->num, ep->is_in, 0U);
 8003982:	2628      	movs	r6, #40	@ 0x28
 8003984:	fb06 4605 	mla	r6, r6, r5, r4
 8003988:	7c76      	ldrb	r6, [r6, #17]
 800398a:	2e00      	cmp	r6, #0
 800398c:	d157      	bne.n	8003a3e <HAL_PCD_IRQHandler+0x57a>
 800398e:	f8b0 6050 	ldrh.w	r6, [r0, #80]	@ 0x50
 8003992:	fa1e f686 	uxtah	r6, lr, r6
 8003996:	f836 3031 	ldrh.w	r3, [r6, r1, lsl #3]
 800399a:	f3c3 0309 	ubfx	r3, r3, #0, #10
 800399e:	f826 3031 	strh.w	r3, [r6, r1, lsl #3]
 80039a2:	f836 3031 	ldrh.w	r3, [r6, r1, lsl #3]
 80039a6:	ea6f 4343 	mvn.w	r3, r3, lsl #17
 80039aa:	ea6f 4353 	mvn.w	r3, r3, lsr #17
 80039ae:	b29b      	uxth	r3, r3
 80039b0:	f826 3031 	strh.w	r3, [r6, r1, lsl #3]
      PCD_SET_EP_DBUF1_CNT(hpcd->Instance, ep->num, ep->is_in, 0U);
 80039b4:	f8b0 6050 	ldrh.w	r6, [r0, #80]	@ 0x50
 80039b8:	f200 4306 	addw	r3, r0, #1030	@ 0x406
 80039bc:	fa13 f686 	uxtah	r6, r3, r6
 80039c0:	f836 3031 	ldrh.w	r3, [r6, r1, lsl #3]
 80039c4:	f3c3 0309 	ubfx	r3, r3, #0, #10
 80039c8:	f826 3031 	strh.w	r3, [r6, r1, lsl #3]
 80039cc:	f836 3031 	ldrh.w	r3, [r6, r1, lsl #3]
 80039d0:	ea6f 4343 	mvn.w	r3, r3, lsl #17
 80039d4:	ea6f 4353 	mvn.w	r3, r3, lsr #17
 80039d8:	b29b      	uxth	r3, r3
 80039da:	f826 3032 	strh.w	r3, [r6, r2, lsl #3]

      if (ep->type == EP_TYPE_BULK)
 80039de:	2328      	movs	r3, #40	@ 0x28
 80039e0:	fb03 4305 	mla	r3, r3, r5, r4
 80039e4:	7cdb      	ldrb	r3, [r3, #19]
 80039e6:	2b02      	cmp	r3, #2
 80039e8:	d10f      	bne.n	8003a0a <HAL_PCD_IRQHandler+0x546>
      {
        /* Set Bulk endpoint in NAK state */
        PCD_SET_EP_TX_STATUS(hpcd->Instance, ep->num, USB_EP_TX_NAK);
 80039ea:	f830 3022 	ldrh.w	r3, [r0, r2, lsl #2]
 80039ee:	f423 43e0 	bic.w	r3, r3, #28672	@ 0x7000
 80039f2:	f023 0340 	bic.w	r3, r3, #64	@ 0x40
 80039f6:	041b      	lsls	r3, r3, #16
 80039f8:	0c1b      	lsrs	r3, r3, #16
 80039fa:	f083 0320 	eor.w	r3, r3, #32
 80039fe:	f443 4300 	orr.w	r3, r3, #32768	@ 0x8000
 8003a02:	f043 0380 	orr.w	r3, r3, #128	@ 0x80
 8003a06:	f820 3022 	strh.w	r3, [r0, r2, lsl #2]

      /* TX COMPLETE */
#if (USE_HAL_PCD_REGISTER_CALLBACKS == 1U)
      hpcd->DataInStageCallback(hpcd, ep->num);
#else
      HAL_PCD_DataInStageCallback(hpcd, ep->num);
 8003a0a:	4620      	mov	r0, r4
 8003a0c:	f003 fda9 	bl	8007562 <HAL_PCD_DataInStageCallback>
#endif /* USE_HAL_PCD_REGISTER_CALLBACKS */

      if ((wEPVal & USB_EP_DTOG_RX) != 0U)
 8003a10:	2f00      	cmp	r7, #0
 8003a12:	f43f ad65 	beq.w	80034e0 <HAL_PCD_IRQHandler+0x1c>
#endif /* USE_HAL_PCD_REGISTER_CALLBACKS */

      /* need to Free USB Buff */
      if ((wEPVal & USB_EP_DTOG_RX) == 0U)
      {
        PCD_FREE_USER_BUFFER(hpcd->Instance, ep->num, 1U);
 8003a16:	2328      	movs	r3, #40	@ 0x28
 8003a18:	fb03 4305 	mla	r3, r3, r5, r4
 8003a1c:	6822      	ldr	r2, [r4, #0]
 8003a1e:	7c19      	ldrb	r1, [r3, #16]
 8003a20:	f832 3021 	ldrh.w	r3, [r2, r1, lsl #2]
 8003a24:	f423 43e0 	bic.w	r3, r3, #28672	@ 0x7000
 8003a28:	f023 0370 	bic.w	r3, r3, #112	@ 0x70
 8003a2c:	041b      	lsls	r3, r3, #16
 8003a2e:	0c1b      	lsrs	r3, r3, #16
 8003a30:	f443 4340 	orr.w	r3, r3, #49152	@ 0xc000
      }
    }
  }

  /* Enable endpoint IN */
  PCD_SET_EP_TX_STATUS(hpcd->Instance, ep->num, USB_EP_TX_VALID);
 8003a34:	f043 0380 	orr.w	r3, r3, #128	@ 0x80
 8003a38:	f822 3021 	strh.w	r3, [r2, r1, lsl #2]

  return HAL_OK;
 8003a3c:	e550      	b.n	80034e0 <HAL_PCD_IRQHandler+0x1c>
      PCD_SET_EP_DBUF0_CNT(hpcd->Instance, ep->num, ep->is_in, 0U);
 8003a3e:	2e01      	cmp	r6, #1
 8003a40:	d1cd      	bne.n	80039de <HAL_PCD_IRQHandler+0x51a>
 8003a42:	f8b0 6050 	ldrh.w	r6, [r0, #80]	@ 0x50
 8003a46:	fa1e f686 	uxtah	r6, lr, r6
      PCD_SET_EP_DBUF1_CNT(hpcd->Instance, ep->num, ep->is_in, 0U);
 8003a4a:	f200 4c06 	addw	ip, r0, #1030	@ 0x406
      PCD_SET_EP_DBUF0_CNT(hpcd->Instance, ep->num, ep->is_in, 0U);
 8003a4e:	f826 3031 	strh.w	r3, [r6, r1, lsl #3]
      PCD_SET_EP_DBUF1_CNT(hpcd->Instance, ep->num, ep->is_in, 0U);
 8003a52:	f8b0 6050 	ldrh.w	r6, [r0, #80]	@ 0x50
 8003a56:	fa1c f686 	uxtah	r6, ip, r6
 8003a5a:	e7be      	b.n	80039da <HAL_PCD_IRQHandler+0x516>
      if ((wEPVal & USB_EP_DTOG_RX) != 0U)
 8003a5c:	b16f      	cbz	r7, 8003a7a <HAL_PCD_IRQHandler+0x5b6>
        PCD_FREE_USER_BUFFER(hpcd->Instance, ep->num, 1U);
 8003a5e:	f830 3021 	ldrh.w	r3, [r0, r1, lsl #2]
 8003a62:	f423 43e0 	bic.w	r3, r3, #28672	@ 0x7000
 8003a66:	f023 0370 	bic.w	r3, r3, #112	@ 0x70
 8003a6a:	041b      	lsls	r3, r3, #16
 8003a6c:	0c1b      	lsrs	r3, r3, #16
 8003a6e:	f443 4340 	orr.w	r3, r3, #49152	@ 0xc000
 8003a72:	f043 0380 	orr.w	r3, r3, #128	@ 0x80
 8003a76:	f820 3021 	strh.w	r3, [r0, r1, lsl #2]
      if (ep->xfer_fill_db == 1U)
 8003a7a:	2728      	movs	r7, #40	@ 0x28
 8003a7c:	fb07 4705 	mla	r7, r7, r5, r4
 8003a80:	f897 3034 	ldrb.w	r3, [r7, #52]	@ 0x34
 8003a84:	2b01      	cmp	r3, #1
 8003a86:	d145      	bne.n	8003b14 <HAL_PCD_IRQHandler+0x650>
        ep->xfer_buff += TxPctSize;
 8003a88:	6a79      	ldr	r1, [r7, #36]	@ 0x24
 8003a8a:	4461      	add	r1, ip
 8003a8c:	6279      	str	r1, [r7, #36]	@ 0x24
        ep->xfer_count += TxPctSize;
 8003a8e:	6af3      	ldr	r3, [r6, #44]	@ 0x2c
 8003a90:	4463      	add	r3, ip
 8003a92:	62f3      	str	r3, [r6, #44]	@ 0x2c
        if (ep->xfer_len_db >= ep->maxpacket)
 8003a94:	6b3b      	ldr	r3, [r7, #48]	@ 0x30
 8003a96:	6a3e      	ldr	r6, [r7, #32]
 8003a98:	42b3      	cmp	r3, r6
 8003a9a:	d31a      	bcc.n	8003ad2 <HAL_PCD_IRQHandler+0x60e>
          ep->xfer_len_db -= len;
 8003a9c:	1b9b      	subs	r3, r3, r6
 8003a9e:	633b      	str	r3, [r7, #48]	@ 0x30
        PCD_SET_EP_DBUF0_CNT(hpcd->Instance, ep->num, ep->is_in, len);
 8003aa0:	2328      	movs	r3, #40	@ 0x28
 8003aa2:	fb03 4305 	mla	r3, r3, r5, r4
 8003aa6:	7c5f      	ldrb	r7, [r3, #17]
 8003aa8:	b2b3      	uxth	r3, r6
 8003aaa:	2f00      	cmp	r7, #0
 8003aac:	d150      	bne.n	8003b50 <HAL_PCD_IRQHandler+0x68c>
 8003aae:	f8b0 7050 	ldrh.w	r7, [r0, #80]	@ 0x50
 8003ab2:	fa1e f787 	uxtah	r7, lr, r7
 8003ab6:	f837 c032 	ldrh.w	ip, [r7, r2, lsl #3]
 8003aba:	f3cc 0c09 	ubfx	ip, ip, #0, #10
 8003abe:	f827 c032 	strh.w	ip, [r7, r2, lsl #3]
 8003ac2:	b98e      	cbnz	r6, 8003ae8 <HAL_PCD_IRQHandler+0x624>
 8003ac4:	f837 6032 	ldrh.w	r6, [r7, r2, lsl #3]
 8003ac8:	ea6f 4646 	mvn.w	r6, r6, lsl #17
 8003acc:	ea6f 4656 	mvn.w	r6, r6, lsr #17
 8003ad0:	e017      	b.n	8003b02 <HAL_PCD_IRQHandler+0x63e>
        else if (ep->xfer_len_db == 0U)
 8003ad2:	b91b      	cbnz	r3, 8003adc <HAL_PCD_IRQHandler+0x618>
          ep->xfer_fill_db = 0U;
 8003ad4:	f887 3034 	strb.w	r3, [r7, #52]	@ 0x34
          len = TxPctSize;
 8003ad8:	4666      	mov	r6, ip
 8003ada:	e7e1      	b.n	8003aa0 <HAL_PCD_IRQHandler+0x5dc>
          ep->xfer_fill_db = 0U;
 8003adc:	2600      	movs	r6, #0
 8003ade:	f887 6034 	strb.w	r6, [r7, #52]	@ 0x34
          ep->xfer_len_db = 0U;
 8003ae2:	633e      	str	r6, [r7, #48]	@ 0x30
          len = ep->xfer_len_db;
 8003ae4:	461e      	mov	r6, r3
 8003ae6:	e7db      	b.n	8003aa0 <HAL_PCD_IRQHandler+0x5dc>
        PCD_SET_EP_DBUF0_CNT(hpcd->Instance, ep->num, ep->is_in, len);
 8003ae8:	2e3e      	cmp	r6, #62	@ 0x3e
 8003aea:	d825      	bhi.n	8003b38 <HAL_PCD_IRQHandler+0x674>
 8003aec:	ea4f 0c56 	mov.w	ip, r6, lsr #1
 8003af0:	07f6      	lsls	r6, r6, #31
 8003af2:	f837 6032 	ldrh.w	r6, [r7, r2, lsl #3]
 8003af6:	bf48      	it	mi
 8003af8:	f10c 0c01 	addmi.w	ip, ip, #1
 8003afc:	b2b6      	uxth	r6, r6
 8003afe:	ea46 268c 	orr.w	r6, r6, ip, lsl #10
 8003b02:	b2b6      	uxth	r6, r6
 8003b04:	f827 6032 	strh.w	r6, [r7, r2, lsl #3]
        USB_WritePMA(hpcd->Instance, ep->xfer_buff,  ep->pmaaddr0, (uint16_t)len);
 8003b08:	2228      	movs	r2, #40	@ 0x28
 8003b0a:	fb02 4205 	mla	r2, r2, r5, r4
 8003b0e:	8b12      	ldrh	r2, [r2, #24]
        USB_WritePMA(hpcd->Instance, ep->xfer_buff,  ep->pmaaddr1, (uint16_t)len);
 8003b10:	f002 fcdb 	bl	80064ca <USB_WritePMA>
  PCD_SET_EP_TX_STATUS(hpcd->Instance, ep->num, USB_EP_TX_VALID);
 8003b14:	2328      	movs	r3, #40	@ 0x28
 8003b16:	fb03 4505 	mla	r5, r3, r5, r4
 8003b1a:	6822      	ldr	r2, [r4, #0]
 8003b1c:	7c29      	ldrb	r1, [r5, #16]
 8003b1e:	f832 3021 	ldrh.w	r3, [r2, r1, lsl #2]
 8003b22:	f423 43e0 	bic.w	r3, r3, #28672	@ 0x7000
 8003b26:	f023 0340 	bic.w	r3, r3, #64	@ 0x40
 8003b2a:	041b      	lsls	r3, r3, #16
 8003b2c:	0c1b      	lsrs	r3, r3, #16
 8003b2e:	f083 0330 	eor.w	r3, r3, #48	@ 0x30
 8003b32:	f443 4300 	orr.w	r3, r3, #32768	@ 0x8000
 8003b36:	e77d      	b.n	8003a34 <HAL_PCD_IRQHandler+0x570>
        PCD_SET_EP_DBUF0_CNT(hpcd->Instance, ep->num, ep->is_in, len);
 8003b38:	ea4f 1c56 	mov.w	ip, r6, lsr #5
 8003b3c:	06f6      	lsls	r6, r6, #27
 8003b3e:	f837 6032 	ldrh.w	r6, [r7, r2, lsl #3]
 8003b42:	bf08      	it	eq
 8003b44:	f10c 3cff 	addeq.w	ip, ip, #4294967295	@ 0xffffffff
 8003b48:	b2b6      	uxth	r6, r6
 8003b4a:	ea46 268c 	orr.w	r6, r6, ip, lsl #10
 8003b4e:	e7bb      	b.n	8003ac8 <HAL_PCD_IRQHandler+0x604>
 8003b50:	2f01      	cmp	r7, #1
 8003b52:	bf02      	ittt	eq
 8003b54:	f8b0 6050 	ldrheq.w	r6, [r0, #80]	@ 0x50
 8003b58:	fa1e f686 	uxtaheq	r6, lr, r6
 8003b5c:	f826 3032 	strheq.w	r3, [r6, r2, lsl #3]
 8003b60:	e7d2      	b.n	8003b08 <HAL_PCD_IRQHandler+0x644>
    TxPctSize = (uint16_t)PCD_GET_EP_DBUF1_CNT(hpcd->Instance, ep->num);
 8003b62:	f200 4e06 	addw	lr, r0, #1030	@ 0x406
 8003b66:	fa1e fc8c 	uxtah	ip, lr, ip
 8003b6a:	b2bf      	uxth	r7, r7
 8003b6c:	f83c c031 	ldrh.w	ip, [ip, r1, lsl #3]
    if (ep->xfer_len >= TxPctSize)
 8003b70:	f3cc 0c09 	ubfx	ip, ip, #0, #10
 8003b74:	459c      	cmp	ip, r3
      ep->xfer_len -= TxPctSize;
 8003b76:	bf94      	ite	ls
 8003b78:	eba3 030c 	subls.w	r3, r3, ip
      ep->xfer_len = 0U;
 8003b7c:	4653      	movhi	r3, sl
 8003b7e:	62b3      	str	r3, [r6, #40]	@ 0x28
    if (ep->xfer_len == 0U)
 8003b80:	2b00      	cmp	r3, #0
 8003b82:	d159      	bne.n	8003c38 <HAL_PCD_IRQHandler+0x774>
      PCD_SET_EP_DBUF0_CNT(hpcd->Instance, ep->num, ep->is_in, 0U);
 8003b84:	2628      	movs	r6, #40	@ 0x28
 8003b86:	fb06 4605 	mla	r6, r6, r5, r4
 8003b8a:	7c76      	ldrb	r6, [r6, #17]
 8003b8c:	2e00      	cmp	r6, #0
 8003b8e:	d144      	bne.n	8003c1a <HAL_PCD_IRQHandler+0x756>
 8003b90:	f8b0 6050 	ldrh.w	r6, [r0, #80]	@ 0x50
 8003b94:	f200 4302 	addw	r3, r0, #1026	@ 0x402
 8003b98:	fa13 f686 	uxtah	r6, r3, r6
 8003b9c:	f836 3031 	ldrh.w	r3, [r6, r1, lsl #3]
 8003ba0:	f3c3 0309 	ubfx	r3, r3, #0, #10
 8003ba4:	f826 3031 	strh.w	r3, [r6, r1, lsl #3]
 8003ba8:	f836 3031 	ldrh.w	r3, [r6, r1, lsl #3]
 8003bac:	ea6f 4343 	mvn.w	r3, r3, lsl #17
 8003bb0:	ea6f 4353 	mvn.w	r3, r3, lsr #17
 8003bb4:	b29b      	uxth	r3, r3
 8003bb6:	f826 3031 	strh.w	r3, [r6, r1, lsl #3]
      PCD_SET_EP_DBUF1_CNT(hpcd->Instance, ep->num, ep->is_in, 0U);
 8003bba:	f8b0 6050 	ldrh.w	r6, [r0, #80]	@ 0x50
 8003bbe:	fa1e f686 	uxtah	r6, lr, r6
 8003bc2:	f836 3031 	ldrh.w	r3, [r6, r1, lsl #3]
 8003bc6:	f3c3 0309 	ubfx	r3, r3, #0, #10
 8003bca:	f826 3031 	strh.w	r3, [r6, r1, lsl #3]
 8003bce:	f836 3031 	ldrh.w	r3, [r6, r1, lsl #3]
 8003bd2:	ea6f 4343 	mvn.w	r3, r3, lsl #17
 8003bd6:	ea6f 4353 	mvn.w	r3, r3, lsr #17
 8003bda:	b29b      	uxth	r3, r3
 8003bdc:	f826 3032 	strh.w	r3, [r6, r2, lsl #3]
      if (ep->type == EP_TYPE_BULK)
 8003be0:	2328      	movs	r3, #40	@ 0x28
 8003be2:	fb03 4305 	mla	r3, r3, r5, r4
 8003be6:	7cdb      	ldrb	r3, [r3, #19]
 8003be8:	2b02      	cmp	r3, #2
 8003bea:	d10f      	bne.n	8003c0c <HAL_PCD_IRQHandler+0x748>
        PCD_SET_EP_TX_STATUS(hpcd->Instance, ep->num, USB_EP_TX_NAK);
 8003bec:	f830 3022 	ldrh.w	r3, [r0, r2, lsl #2]
 8003bf0:	f423 43e0 	bic.w	r3, r3, #28672	@ 0x7000
 8003bf4:	f023 0340 	bic.w	r3, r3, #64	@ 0x40
 8003bf8:	041b      	lsls	r3, r3, #16
 8003bfa:	0c1b      	lsrs	r3, r3, #16
 8003bfc:	f083 0320 	eor.w	r3, r3, #32
 8003c00:	f443 4300 	orr.w	r3, r3, #32768	@ 0x8000
 8003c04:	f043 0380 	orr.w	r3, r3, #128	@ 0x80
 8003c08:	f820 3022 	strh.w	r3, [r0, r2, lsl #2]
      HAL_PCD_DataInStageCallback(hpcd, ep->num);
 8003c0c:	4620      	mov	r0, r4
 8003c0e:	f003 fca8 	bl	8007562 <HAL_PCD_DataInStageCallback>
      if ((wEPVal & USB_EP_DTOG_RX) == 0U)
 8003c12:	2f00      	cmp	r7, #0
 8003c14:	f47f ac64 	bne.w	80034e0 <HAL_PCD_IRQHandler+0x1c>
 8003c18:	e6fd      	b.n	8003a16 <HAL_PCD_IRQHandler+0x552>
      PCD_SET_EP_DBUF0_CNT(hpcd->Instance, ep->num, ep->is_in, 0U);
 8003c1a:	2e01      	cmp	r6, #1
 8003c1c:	d1e0      	bne.n	8003be0 <HAL_PCD_IRQHandler+0x71c>
 8003c1e:	f8b0 6050 	ldrh.w	r6, [r0, #80]	@ 0x50
 8003c22:	f200 4c02 	addw	ip, r0, #1026	@ 0x402
 8003c26:	fa1c f686 	uxtah	r6, ip, r6
 8003c2a:	f826 3031 	strh.w	r3, [r6, r1, lsl #3]
      PCD_SET_EP_DBUF1_CNT(hpcd->Instance, ep->num, ep->is_in, 0U);
 8003c2e:	f8b0 6050 	ldrh.w	r6, [r0, #80]	@ 0x50
 8003c32:	fa1e f686 	uxtah	r6, lr, r6
 8003c36:	e7d1      	b.n	8003bdc <HAL_PCD_IRQHandler+0x718>
      if ((wEPVal & USB_EP_DTOG_RX) == 0U)
 8003c38:	b96f      	cbnz	r7, 8003c56 <HAL_PCD_IRQHandler+0x792>
        PCD_FREE_USER_BUFFER(hpcd->Instance, ep->num, 1U);
 8003c3a:	f830 3021 	ldrh.w	r3, [r0, r1, lsl #2]
 8003c3e:	f423 43e0 	bic.w	r3, r3, #28672	@ 0x7000
 8003c42:	f023 0370 	bic.w	r3, r3, #112	@ 0x70
 8003c46:	041b      	lsls	r3, r3, #16
 8003c48:	0c1b      	lsrs	r3, r3, #16
 8003c4a:	f443 4340 	orr.w	r3, r3, #49152	@ 0xc000
 8003c4e:	f043 0380 	orr.w	r3, r3, #128	@ 0x80
 8003c52:	f820 3021 	strh.w	r3, [r0, r1, lsl #2]
      if (ep->xfer_fill_db == 1U)
 8003c56:	2728      	movs	r7, #40	@ 0x28
 8003c58:	fb07 4705 	mla	r7, r7, r5, r4
 8003c5c:	f897 3034 	ldrb.w	r3, [r7, #52]	@ 0x34
 8003c60:	2b01      	cmp	r3, #1
 8003c62:	f47f af57 	bne.w	8003b14 <HAL_PCD_IRQHandler+0x650>
        ep->xfer_buff += TxPctSize;
 8003c66:	6a79      	ldr	r1, [r7, #36]	@ 0x24
 8003c68:	4461      	add	r1, ip
 8003c6a:	6279      	str	r1, [r7, #36]	@ 0x24
        ep->xfer_count += TxPctSize;
 8003c6c:	6af3      	ldr	r3, [r6, #44]	@ 0x2c
 8003c6e:	4463      	add	r3, ip
 8003c70:	62f3      	str	r3, [r6, #44]	@ 0x2c
        if (ep->xfer_len_db >= ep->maxpacket)
 8003c72:	6b3b      	ldr	r3, [r7, #48]	@ 0x30
 8003c74:	6a3e      	ldr	r6, [r7, #32]
 8003c76:	42b3      	cmp	r3, r6
 8003c78:	d31a      	bcc.n	8003cb0 <HAL_PCD_IRQHandler+0x7ec>
          ep->xfer_len_db -= len;
 8003c7a:	1b9b      	subs	r3, r3, r6
 8003c7c:	633b      	str	r3, [r7, #48]	@ 0x30
        PCD_SET_EP_DBUF1_CNT(hpcd->Instance, ep->num, ep->is_in, len);
 8003c7e:	2328      	movs	r3, #40	@ 0x28
 8003c80:	fb03 4305 	mla	r3, r3, r5, r4
 8003c84:	7c5f      	ldrb	r7, [r3, #17]
 8003c86:	b2b3      	uxth	r3, r6
 8003c88:	2f00      	cmp	r7, #0
 8003c8a:	d13d      	bne.n	8003d08 <HAL_PCD_IRQHandler+0x844>
 8003c8c:	f8b0 7050 	ldrh.w	r7, [r0, #80]	@ 0x50
 8003c90:	fa1e f787 	uxtah	r7, lr, r7
 8003c94:	f837 c032 	ldrh.w	ip, [r7, r2, lsl #3]
 8003c98:	f3cc 0c09 	ubfx	ip, ip, #0, #10
 8003c9c:	f827 c032 	strh.w	ip, [r7, r2, lsl #3]
 8003ca0:	b98e      	cbnz	r6, 8003cc6 <HAL_PCD_IRQHandler+0x802>
 8003ca2:	f837 6032 	ldrh.w	r6, [r7, r2, lsl #3]
 8003ca6:	ea6f 4646 	mvn.w	r6, r6, lsl #17
 8003caa:	ea6f 4656 	mvn.w	r6, r6, lsr #17
 8003cae:	e017      	b.n	8003ce0 <HAL_PCD_IRQHandler+0x81c>
        else if (ep->xfer_len_db == 0U)
 8003cb0:	b91b      	cbnz	r3, 8003cba <HAL_PCD_IRQHandler+0x7f6>
          ep->xfer_fill_db = 0U;
 8003cb2:	f887 3034 	strb.w	r3, [r7, #52]	@ 0x34
          len = TxPctSize;
 8003cb6:	4666      	mov	r6, ip
 8003cb8:	e7e1      	b.n	8003c7e <HAL_PCD_IRQHandler+0x7ba>
          ep->xfer_len_db = 0U;
 8003cba:	2600      	movs	r6, #0
 8003cbc:	633e      	str	r6, [r7, #48]	@ 0x30
          ep->xfer_fill_db = 0;
 8003cbe:	f887 6034 	strb.w	r6, [r7, #52]	@ 0x34
          len = ep->xfer_len_db;
 8003cc2:	461e      	mov	r6, r3
 8003cc4:	e7db      	b.n	8003c7e <HAL_PCD_IRQHandler+0x7ba>
        PCD_SET_EP_DBUF1_CNT(hpcd->Instance, ep->num, ep->is_in, len);
 8003cc6:	2e3e      	cmp	r6, #62	@ 0x3e
 8003cc8:	d812      	bhi.n	8003cf0 <HAL_PCD_IRQHandler+0x82c>
 8003cca:	ea4f 0c56 	mov.w	ip, r6, lsr #1
 8003cce:	07f6      	lsls	r6, r6, #31
 8003cd0:	f837 6032 	ldrh.w	r6, [r7, r2, lsl #3]
 8003cd4:	bf48      	it	mi
 8003cd6:	f10c 0c01 	addmi.w	ip, ip, #1
 8003cda:	b2b6      	uxth	r6, r6
 8003cdc:	ea46 268c 	orr.w	r6, r6, ip, lsl #10
 8003ce0:	b2b6      	uxth	r6, r6
 8003ce2:	f827 6032 	strh.w	r6, [r7, r2, lsl #3]
        USB_WritePMA(hpcd->Instance, ep->xfer_buff,  ep->pmaaddr1, (uint16_t)len);
 8003ce6:	2228      	movs	r2, #40	@ 0x28
 8003ce8:	fb02 4205 	mla	r2, r2, r5, r4
 8003cec:	8b52      	ldrh	r2, [r2, #26]
 8003cee:	e70f      	b.n	8003b10 <HAL_PCD_IRQHandler+0x64c>
        PCD_SET_EP_DBUF1_CNT(hpcd->Instance, ep->num, ep->is_in, len);
 8003cf0:	ea4f 1c56 	mov.w	ip, r6, lsr #5
 8003cf4:	06f6      	lsls	r6, r6, #27
 8003cf6:	f837 6032 	ldrh.w	r6, [r7, r2, lsl #3]
 8003cfa:	bf08      	it	eq
 8003cfc:	f10c 3cff 	addeq.w	ip, ip, #4294967295	@ 0xffffffff
 8003d00:	b2b6      	uxth	r6, r6
 8003d02:	ea46 268c 	orr.w	r6, r6, ip, lsl #10
 8003d06:	e7ce      	b.n	8003ca6 <HAL_PCD_IRQHandler+0x7e2>
 8003d08:	2f01      	cmp	r7, #1
 8003d0a:	bf02      	ittt	eq
 8003d0c:	f8b0 6050 	ldrheq.w	r6, [r0, #80]	@ 0x50
 8003d10:	fa1e f686 	uxtaheq	r6, lr, r6
 8003d14:	f826 3032 	strheq.w	r3, [r6, r2, lsl #3]
 8003d18:	e7e5      	b.n	8003ce6 <HAL_PCD_IRQHandler+0x822>
  if ((wIstr & USB_ISTR_RESET) == USB_ISTR_RESET)
 8003d1a:	0543      	lsls	r3, r0, #21
 8003d1c:	d511      	bpl.n	8003d42 <HAL_PCD_IRQHandler+0x87e>
    __HAL_PCD_CLEAR_FLAG(hpcd, USB_ISTR_RESET);
 8003d1e:	6822      	ldr	r2, [r4, #0]
 8003d20:	f8b2 3044 	ldrh.w	r3, [r2, #68]	@ 0x44
 8003d24:	f423 6380 	bic.w	r3, r3, #1024	@ 0x400
 8003d28:	041b      	lsls	r3, r3, #16
 8003d2a:	0c1b      	lsrs	r3, r3, #16
    HAL_PCD_ResetCallback(hpcd);
 8003d2c:	4620      	mov	r0, r4
    __HAL_PCD_CLEAR_FLAG(hpcd, USB_ISTR_RESET);
 8003d2e:	f8a2 3044 	strh.w	r3, [r2, #68]	@ 0x44
    HAL_PCD_ResetCallback(hpcd);
 8003d32:	f003 fc22 	bl	800757a <HAL_PCD_ResetCallback>
    (void)HAL_PCD_SetAddress(hpcd, 0U);
 8003d36:	4629      	mov	r1, r5
 8003d38:	4620      	mov	r0, r4
}
 8003d3a:	e8bd 4ff8 	ldmia.w	sp!, {r3, r4, r5, r6, r7, r8, r9, sl, fp, lr}
    (void)HAL_PCD_SetAddress(hpcd, 0U);
 8003d3e:	f7ff bbad 	b.w	800349c <HAL_PCD_SetAddress>
  if ((wIstr & USB_ISTR_PMAOVR) == USB_ISTR_PMAOVR)
 8003d42:	0447      	lsls	r7, r0, #17
 8003d44:	d50a      	bpl.n	8003d5c <HAL_PCD_IRQHandler+0x898>
    __HAL_PCD_CLEAR_FLAG(hpcd, USB_ISTR_PMAOVR);
 8003d46:	6822      	ldr	r2, [r4, #0]
 8003d48:	f8b2 3044 	ldrh.w	r3, [r2, #68]	@ 0x44
 8003d4c:	f423 4380 	bic.w	r3, r3, #16384	@ 0x4000
    __HAL_PCD_CLEAR_FLAG(hpcd, USB_ISTR_ESOF);
 8003d50:	041b      	lsls	r3, r3, #16
 8003d52:	0c1b      	lsrs	r3, r3, #16
 8003d54:	f8a2 3044 	strh.w	r3, [r2, #68]	@ 0x44
    return;
 8003d58:	f7ff bbc7 	b.w	80034ea <HAL_PCD_IRQHandler+0x26>
  if ((wIstr & USB_ISTR_ERR) == USB_ISTR_ERR)
 8003d5c:	f410 5100 	ands.w	r1, r0, #8192	@ 0x2000
 8003d60:	d005      	beq.n	8003d6e <HAL_PCD_IRQHandler+0x8aa>
    __HAL_PCD_CLEAR_FLAG(hpcd, USB_ISTR_ERR);
 8003d62:	6822      	ldr	r2, [r4, #0]
 8003d64:	f8b2 3044 	ldrh.w	r3, [r2, #68]	@ 0x44
 8003d68:	f423 5300 	bic.w	r3, r3, #8192	@ 0x2000
 8003d6c:	e7f0      	b.n	8003d50 <HAL_PCD_IRQHandler+0x88c>
  if ((wIstr & USB_ISTR_WKUP) == USB_ISTR_WKUP)
 8003d6e:	04c6      	lsls	r6, r0, #19
 8003d70:	d522      	bpl.n	8003db8 <HAL_PCD_IRQHandler+0x8f4>
    hpcd->Instance->CNTR &= (uint16_t) ~(USB_CNTR_LPMODE);
 8003d72:	6822      	ldr	r2, [r4, #0]
 8003d74:	f8b2 3040 	ldrh.w	r3, [r2, #64]	@ 0x40
 8003d78:	f023 0304 	bic.w	r3, r3, #4
 8003d7c:	041b      	lsls	r3, r3, #16
 8003d7e:	0c1b      	lsrs	r3, r3, #16
 8003d80:	f8a2 3040 	strh.w	r3, [r2, #64]	@ 0x40
    hpcd->Instance->CNTR &= (uint16_t) ~(USB_CNTR_FSUSP);
 8003d84:	f8b2 3040 	ldrh.w	r3, [r2, #64]	@ 0x40
 8003d88:	f023 0308 	bic.w	r3, r3, #8
 8003d8c:	041b      	lsls	r3, r3, #16
 8003d8e:	0c1b      	lsrs	r3, r3, #16
 8003d90:	f8a2 3040 	strh.w	r3, [r2, #64]	@ 0x40
    if (hpcd->LPM_State == LPM_L1)
 8003d94:	f894 32c8 	ldrb.w	r3, [r4, #712]	@ 0x2c8
 8003d98:	2b01      	cmp	r3, #1
 8003d9a:	d104      	bne.n	8003da6 <HAL_PCD_IRQHandler+0x8e2>
      hpcd->LPM_State = LPM_L0;
 8003d9c:	f884 12c8 	strb.w	r1, [r4, #712]	@ 0x2c8
      HAL_PCDEx_LPM_Callback(hpcd, PCD_LPM_L0_ACTIVE);
 8003da0:	4620      	mov	r0, r4
 8003da2:	f003 fcc3 	bl	800772c <HAL_PCDEx_LPM_Callback>
    HAL_PCD_ResumeCallback(hpcd);
 8003da6:	4620      	mov	r0, r4
 8003da8:	f003 fc0a 	bl	80075c0 <HAL_PCD_ResumeCallback>
    __HAL_PCD_CLEAR_FLAG(hpcd, USB_ISTR_WKUP);
 8003dac:	6822      	ldr	r2, [r4, #0]
 8003dae:	f8b2 3044 	ldrh.w	r3, [r2, #68]	@ 0x44
 8003db2:	f423 5380 	bic.w	r3, r3, #4096	@ 0x1000
 8003db6:	e7cb      	b.n	8003d50 <HAL_PCD_IRQHandler+0x88c>
  if ((wIstr & USB_ISTR_SUSP) == USB_ISTR_SUSP)
 8003db8:	0505      	lsls	r5, r0, #20
 8003dba:	d51b      	bpl.n	8003df4 <HAL_PCD_IRQHandler+0x930>
    hpcd->Instance->CNTR |= (uint16_t)USB_CNTR_FSUSP;
 8003dbc:	6822      	ldr	r2, [r4, #0]
 8003dbe:	f8b2 3040 	ldrh.w	r3, [r2, #64]	@ 0x40
 8003dc2:	b29b      	uxth	r3, r3
 8003dc4:	f043 0308 	orr.w	r3, r3, #8
 8003dc8:	f8a2 3040 	strh.w	r3, [r2, #64]	@ 0x40
    __HAL_PCD_CLEAR_FLAG(hpcd, USB_ISTR_SUSP);
 8003dcc:	f8b2 3044 	ldrh.w	r3, [r2, #68]	@ 0x44
 8003dd0:	f423 6300 	bic.w	r3, r3, #2048	@ 0x800
 8003dd4:	041b      	lsls	r3, r3, #16
 8003dd6:	0c1b      	lsrs	r3, r3, #16
 8003dd8:	f8a2 3044 	strh.w	r3, [r2, #68]	@ 0x44
    hpcd->Instance->CNTR |= (uint16_t)USB_CNTR_LPMODE;
 8003ddc:	f8b2 3040 	ldrh.w	r3, [r2, #64]	@ 0x40
 8003de0:	b29b      	uxth	r3, r3
 8003de2:	f043 0304 	orr.w	r3, r3, #4
 8003de6:	f8a2 3040 	strh.w	r3, [r2, #64]	@ 0x40
      HAL_PCD_SuspendCallback(hpcd);
 8003dea:	4620      	mov	r0, r4
 8003dec:	f003 fbd8 	bl	80075a0 <HAL_PCD_SuspendCallback>
 8003df0:	f7ff bb7b 	b.w	80034ea <HAL_PCD_IRQHandler+0x26>
  if ((wIstr & USB_ISTR_L1REQ) == USB_ISTR_L1REQ)
 8003df4:	0601      	lsls	r1, r0, #24
 8003df6:	d52a      	bpl.n	8003e4e <HAL_PCD_IRQHandler+0x98a>
    __HAL_PCD_CLEAR_FLAG(hpcd, USB_ISTR_L1REQ);
 8003df8:	6823      	ldr	r3, [r4, #0]
 8003dfa:	f8b3 2044 	ldrh.w	r2, [r3, #68]	@ 0x44
 8003dfe:	f022 0280 	bic.w	r2, r2, #128	@ 0x80
 8003e02:	0412      	lsls	r2, r2, #16
 8003e04:	0c12      	lsrs	r2, r2, #16
 8003e06:	f8a3 2044 	strh.w	r2, [r3, #68]	@ 0x44
    if (hpcd->LPM_State == LPM_L0)
 8003e0a:	f894 22c8 	ldrb.w	r2, [r4, #712]	@ 0x2c8
 8003e0e:	2a00      	cmp	r2, #0
 8003e10:	d1eb      	bne.n	8003dea <HAL_PCD_IRQHandler+0x926>
      hpcd->Instance->CNTR |= (uint16_t)USB_CNTR_LPMODE;
 8003e12:	f8b3 2040 	ldrh.w	r2, [r3, #64]	@ 0x40
 8003e16:	b292      	uxth	r2, r2
 8003e18:	f042 0204 	orr.w	r2, r2, #4
 8003e1c:	f8a3 2040 	strh.w	r2, [r3, #64]	@ 0x40
      hpcd->Instance->CNTR |= (uint16_t)USB_CNTR_FSUSP;
 8003e20:	f8b3 2040 	ldrh.w	r2, [r3, #64]	@ 0x40
 8003e24:	b292      	uxth	r2, r2
 8003e26:	f042 0208 	orr.w	r2, r2, #8
      hpcd->LPM_State = LPM_L1;
 8003e2a:	2101      	movs	r1, #1
      hpcd->Instance->CNTR |= (uint16_t)USB_CNTR_FSUSP;
 8003e2c:	f8a3 2040 	strh.w	r2, [r3, #64]	@ 0x40
      hpcd->LPM_State = LPM_L1;
 8003e30:	f884 12c8 	strb.w	r1, [r4, #712]	@ 0x2c8
      hpcd->BESL = ((uint32_t)hpcd->Instance->LPMCSR & USB_LPMCSR_BESL) >> 2;
 8003e34:	f8b3 3054 	ldrh.w	r3, [r3, #84]	@ 0x54
 8003e38:	f3c3 038d 	ubfx	r3, r3, #2, #14
 8003e3c:	f003 033c 	and.w	r3, r3, #60	@ 0x3c
 8003e40:	f8c4 32cc 	str.w	r3, [r4, #716]	@ 0x2cc
      HAL_PCDEx_LPM_Callback(hpcd, PCD_LPM_L1_ACTIVE);
 8003e44:	4620      	mov	r0, r4
}
 8003e46:	e8bd 4ff8 	ldmia.w	sp!, {r3, r4, r5, r6, r7, r8, r9, sl, fp, lr}
      HAL_PCDEx_LPM_Callback(hpcd, PCD_LPM_L1_ACTIVE);
 8003e4a:	f003 bc6f 	b.w	800772c <HAL_PCDEx_LPM_Callback>
  if ((wIstr & USB_ISTR_SOF) == USB_ISTR_SOF)
 8003e4e:	0582      	lsls	r2, r0, #22
 8003e50:	d50d      	bpl.n	8003e6e <HAL_PCD_IRQHandler+0x9aa>
    __HAL_PCD_CLEAR_FLAG(hpcd, USB_ISTR_SOF);
 8003e52:	6822      	ldr	r2, [r4, #0]
 8003e54:	f8b2 3044 	ldrh.w	r3, [r2, #68]	@ 0x44
 8003e58:	f423 7300 	bic.w	r3, r3, #512	@ 0x200
 8003e5c:	041b      	lsls	r3, r3, #16
 8003e5e:	0c1b      	lsrs	r3, r3, #16
 8003e60:	f8a2 3044 	strh.w	r3, [r2, #68]	@ 0x44
    HAL_PCD_SOFCallback(hpcd);
 8003e64:	4620      	mov	r0, r4
 8003e66:	f003 fb84 	bl	8007572 <HAL_PCD_SOFCallback>
    return;
 8003e6a:	f7ff bb3e 	b.w	80034ea <HAL_PCD_IRQHandler+0x26>
  if ((wIstr & USB_ISTR_ESOF) == USB_ISTR_ESOF)
 8003e6e:	05c3      	lsls	r3, r0, #23
 8003e70:	f57f ab3b 	bpl.w	80034ea <HAL_PCD_IRQHandler+0x26>
    __HAL_PCD_CLEAR_FLAG(hpcd, USB_ISTR_ESOF);
 8003e74:	6822      	ldr	r2, [r4, #0]
 8003e76:	f8b2 3044 	ldrh.w	r3, [r2, #68]	@ 0x44
 8003e7a:	f423 7380 	bic.w	r3, r3, #256	@ 0x100
 8003e7e:	e767      	b.n	8003d50 <HAL_PCD_IRQHandler+0x88c>
 8003e80:	ffff8f0f 	.word	0xffff8f0f

08003e84 <HAL_PCD_EP_Open>:
{
 8003e84:	b570      	push	{r4, r5, r6, lr}
 8003e86:	f001 0607 	and.w	r6, r1, #7
 8003e8a:	eb06 0486 	add.w	r4, r6, r6, lsl #2
  if ((ep_addr & 0x80U) == 0x80U)
 8003e8e:	f011 0f80 	tst.w	r1, #128	@ 0x80
{
 8003e92:	4605      	mov	r5, r0
 8003e94:	ea4f 04c4 	mov.w	r4, r4, lsl #3
 8003e98:	f04f 0028 	mov.w	r0, #40	@ 0x28
  if ((ep_addr & 0x80U) == 0x80U)
 8003e9c:	d01d      	beq.n	8003eda <HAL_PCD_EP_Open+0x56>
    ep->is_in = 1U;
 8003e9e:	fb00 5006 	mla	r0, r0, r6, r5
    ep = &hpcd->IN_ep[ep_addr & EP_ADDR_MSK];
 8003ea2:	f104 0110 	add.w	r1, r4, #16
    ep->is_in = 1U;
 8003ea6:	2401      	movs	r4, #1
    ep = &hpcd->IN_ep[ep_addr & EP_ADDR_MSK];
 8003ea8:	4429      	add	r1, r5
    ep->is_in = 1U;
 8003eaa:	7444      	strb	r4, [r0, #17]
  if (ep_type == EP_TYPE_BULK)
 8003eac:	2b02      	cmp	r3, #2
  ep->type = ep_type;
 8003eae:	70cb      	strb	r3, [r1, #3]
  ep->maxpacket = (uint32_t)ep_mps & 0x7FFU;
 8003eb0:	f3c2 020a 	ubfx	r2, r2, #0, #11
    ep->data_pid_start = 0U;
 8003eb4:	bf04      	itt	eq
 8003eb6:	2300      	moveq	r3, #0
 8003eb8:	710b      	strbeq	r3, [r1, #4]
  ep->num = ep_addr & EP_ADDR_MSK;
 8003eba:	700e      	strb	r6, [r1, #0]
  ep->maxpacket = (uint32_t)ep_mps & 0x7FFU;
 8003ebc:	610a      	str	r2, [r1, #16]
  __HAL_LOCK(hpcd);
 8003ebe:	f895 3290 	ldrb.w	r3, [r5, #656]	@ 0x290
 8003ec2:	2b01      	cmp	r3, #1
 8003ec4:	d012      	beq.n	8003eec <HAL_PCD_EP_Open+0x68>
 8003ec6:	2301      	movs	r3, #1
  (void)USB_ActivateEndpoint(hpcd->Instance, ep);
 8003ec8:	6828      	ldr	r0, [r5, #0]
  __HAL_LOCK(hpcd);
 8003eca:	f885 3290 	strb.w	r3, [r5, #656]	@ 0x290
  (void)USB_ActivateEndpoint(hpcd->Instance, ep);
 8003ece:	f001 ffef 	bl	8005eb0 <USB_ActivateEndpoint>
  __HAL_UNLOCK(hpcd);
 8003ed2:	2000      	movs	r0, #0
 8003ed4:	f885 0290 	strb.w	r0, [r5, #656]	@ 0x290
}
 8003ed8:	bd70      	pop	{r4, r5, r6, pc}
    ep->is_in = 0U;
 8003eda:	fb00 5006 	mla	r0, r0, r6, r5
    ep = &hpcd->OUT_ep[ep_addr & EP_ADDR_MSK];
 8003ede:	f504 71a8 	add.w	r1, r4, #336	@ 0x150
    ep->is_in = 0U;
 8003ee2:	2400      	movs	r4, #0
    ep = &hpcd->OUT_ep[ep_addr & EP_ADDR_MSK];
 8003ee4:	4429      	add	r1, r5
    ep->is_in = 0U;
 8003ee6:	f880 4151 	strb.w	r4, [r0, #337]	@ 0x151
 8003eea:	e7df      	b.n	8003eac <HAL_PCD_EP_Open+0x28>
  __HAL_LOCK(hpcd);
 8003eec:	2002      	movs	r0, #2
 8003eee:	e7f3      	b.n	8003ed8 <HAL_PCD_EP_Open+0x54>

08003ef0 <HAL_PCD_EP_Close>:
{
 8003ef0:	b510      	push	{r4, lr}
 8003ef2:	4604      	mov	r4, r0
 8003ef4:	f001 0007 	and.w	r0, r1, #7
 8003ef8:	eb00 0380 	add.w	r3, r0, r0, lsl #2
  if ((ep_addr & 0x80U) == 0x80U)
 8003efc:	f011 0f80 	tst.w	r1, #128	@ 0x80
 8003f00:	ea4f 03c3 	mov.w	r3, r3, lsl #3
 8003f04:	f04f 0228 	mov.w	r2, #40	@ 0x28
 8003f08:	d015      	beq.n	8003f36 <HAL_PCD_EP_Close+0x46>
    ep->is_in = 1U;
 8003f0a:	fb02 4200 	mla	r2, r2, r0, r4
    ep = &hpcd->IN_ep[ep_addr & EP_ADDR_MSK];
 8003f0e:	f103 0110 	add.w	r1, r3, #16
    ep->is_in = 1U;
 8003f12:	2301      	movs	r3, #1
    ep = &hpcd->IN_ep[ep_addr & EP_ADDR_MSK];
 8003f14:	4421      	add	r1, r4
    ep->is_in = 1U;
 8003f16:	7453      	strb	r3, [r2, #17]
  ep->num = ep_addr & EP_ADDR_MSK;
 8003f18:	7008      	strb	r0, [r1, #0]
  __HAL_LOCK(hpcd);
 8003f1a:	f894 3290 	ldrb.w	r3, [r4, #656]	@ 0x290
 8003f1e:	2b01      	cmp	r3, #1
 8003f20:	d012      	beq.n	8003f48 <HAL_PCD_EP_Close+0x58>
 8003f22:	2301      	movs	r3, #1
  (void)USB_DeactivateEndpoint(hpcd->Instance, ep);
 8003f24:	6820      	ldr	r0, [r4, #0]
  __HAL_LOCK(hpcd);
 8003f26:	f884 3290 	strb.w	r3, [r4, #656]	@ 0x290
  (void)USB_DeactivateEndpoint(hpcd->Instance, ep);
 8003f2a:	f002 f97f 	bl	800622c <USB_DeactivateEndpoint>
  __HAL_UNLOCK(hpcd);
 8003f2e:	2000      	movs	r0, #0
 8003f30:	f884 0290 	strb.w	r0, [r4, #656]	@ 0x290
}
 8003f34:	bd10      	pop	{r4, pc}
    ep->is_in = 0U;
 8003f36:	fb02 4200 	mla	r2, r2, r0, r4
    ep = &hpcd->OUT_ep[ep_addr & EP_ADDR_MSK];
 8003f3a:	f503 71a8 	add.w	r1, r3, #336	@ 0x150
    ep->is_in = 0U;
 8003f3e:	2300      	movs	r3, #0
    ep = &hpcd->OUT_ep[ep_addr & EP_ADDR_MSK];
 8003f40:	4421      	add	r1, r4
    ep->is_in = 0U;
 8003f42:	f882 3151 	strb.w	r3, [r2, #337]	@ 0x151
 8003f46:	e7e7      	b.n	8003f18 <HAL_PCD_EP_Close+0x28>
  __HAL_LOCK(hpcd);
 8003f48:	2002      	movs	r0, #2
 8003f4a:	e7f3      	b.n	8003f34 <HAL_PCD_EP_Close+0x44>

08003f4c <HAL_PCD_EP_Receive>:
{
 8003f4c:	b570      	push	{r4, r5, r6, lr}
 8003f4e:	f001 0107 	and.w	r1, r1, #7
  ep->xfer_buff = pBuf;
 8003f52:	2628      	movs	r6, #40	@ 0x28
 8003f54:	fb06 0401 	mla	r4, r6, r1, r0
  ep->xfer_count = 0U;
 8003f58:	2500      	movs	r5, #0
  ep->num = ep_addr & EP_ADDR_MSK;
 8003f5a:	f884 1150 	strb.w	r1, [r4, #336]	@ 0x150
  ep->xfer_len = len;
 8003f5e:	e9c4 2359 	strd	r2, r3, [r4, #356]	@ 0x164
  ep->xfer_count = 0U;
 8003f62:	f8c4 516c 	str.w	r5, [r4, #364]	@ 0x16c
  ep->is_in = 0U;
 8003f66:	f884 5151 	strb.w	r5, [r4, #337]	@ 0x151
  (void)USB_EPStartXfer(hpcd->Instance, ep);
 8003f6a:	f504 71a8 	add.w	r1, r4, #336	@ 0x150
 8003f6e:	6800      	ldr	r0, [r0, #0]
 8003f70:	f002 faba 	bl	80064e8 <USB_EPStartXfer>
}
 8003f74:	4628      	mov	r0, r5
 8003f76:	bd70      	pop	{r4, r5, r6, pc}

08003f78 <HAL_PCD_EP_GetRxCount>:
  return hpcd->OUT_ep[ep_addr & EP_ADDR_MSK].xfer_count;
 8003f78:	f001 0107 	and.w	r1, r1, #7
 8003f7c:	2328      	movs	r3, #40	@ 0x28
 8003f7e:	fb03 0001 	mla	r0, r3, r1, r0
}
 8003f82:	f8d0 016c 	ldr.w	r0, [r0, #364]	@ 0x16c
 8003f86:	4770      	bx	lr

08003f88 <HAL_PCD_EP_Transmit>:
{
 8003f88:	b5f8      	push	{r3, r4, r5, r6, r7, lr}
 8003f8a:	f001 0607 	and.w	r6, r1, #7
  ep->xfer_buff = pBuf;
 8003f8e:	2428      	movs	r4, #40	@ 0x28
 8003f90:	fb04 0406 	mla	r4, r4, r6, r0
 8003f94:	eb06 0186 	add.w	r1, r6, r6, lsl #2
 8003f98:	eb00 07c1 	add.w	r7, r0, r1, lsl #3
 8003f9c:	6262      	str	r2, [r4, #36]	@ 0x24
  ep->xfer_count = 0U;
 8003f9e:	2500      	movs	r5, #0
  ep->xfer_fill_db = 1U;
 8003fa0:	2201      	movs	r2, #1
  ep = &hpcd->IN_ep[ep_addr & EP_ADDR_MSK];
 8003fa2:	4639      	mov	r1, r7
  ep->xfer_len = len;
 8003fa4:	62bb      	str	r3, [r7, #40]	@ 0x28
  (void)USB_EPStartXfer(hpcd->Instance, ep);
 8003fa6:	3110      	adds	r1, #16
  ep->xfer_fill_db = 1U;
 8003fa8:	f884 2034 	strb.w	r2, [r4, #52]	@ 0x34
  ep->xfer_len_db = len;
 8003fac:	6323      	str	r3, [r4, #48]	@ 0x30
  (void)USB_EPStartXfer(hpcd->Instance, ep);
 8003fae:	6800      	ldr	r0, [r0, #0]
  ep->xfer_count = 0U;
 8003fb0:	62fd      	str	r5, [r7, #44]	@ 0x2c
  ep->is_in = 1U;
 8003fb2:	7462      	strb	r2, [r4, #17]
  ep->num = ep_addr & EP_ADDR_MSK;
 8003fb4:	7426      	strb	r6, [r4, #16]
  (void)USB_EPStartXfer(hpcd->Instance, ep);
 8003fb6:	f002 fa97 	bl	80064e8 <USB_EPStartXfer>
}
 8003fba:	4628      	mov	r0, r5
 8003fbc:	bdf8      	pop	{r3, r4, r5, r6, r7, pc}

08003fbe <HAL_PCD_EP_SetStall>:
{
 8003fbe:	b538      	push	{r3, r4, r5, lr}
  if (((uint32_t)ep_addr & EP_ADDR_MSK) > hpcd->Init.dev_endpoints)
 8003fc0:	7903      	ldrb	r3, [r0, #4]
 8003fc2:	f001 0507 	and.w	r5, r1, #7
 8003fc6:	42ab      	cmp	r3, r5
{
 8003fc8:	4604      	mov	r4, r0
  if (((uint32_t)ep_addr & EP_ADDR_MSK) > hpcd->Init.dev_endpoints)
 8003fca:	d324      	bcc.n	8004016 <HAL_PCD_EP_SetStall+0x58>
  if ((0x80U & ep_addr) == 0x80U)
 8003fcc:	f011 0f80 	tst.w	r1, #128	@ 0x80
 8003fd0:	f04f 0028 	mov.w	r0, #40	@ 0x28
 8003fd4:	d016      	beq.n	8004004 <HAL_PCD_EP_SetStall+0x46>
    ep = &hpcd->IN_ep[ep_addr & EP_ADDR_MSK];
 8003fd6:	fb00 4105 	mla	r1, r0, r5, r4
    ep->is_in = 1U;
 8003fda:	fb00 4005 	mla	r0, r0, r5, r4
 8003fde:	2301      	movs	r3, #1
    ep = &hpcd->IN_ep[ep_addr & EP_ADDR_MSK];
 8003fe0:	3110      	adds	r1, #16
    ep->is_in = 1U;
 8003fe2:	7443      	strb	r3, [r0, #17]
  ep->is_stall = 1U;
 8003fe4:	2301      	movs	r3, #1
 8003fe6:	708b      	strb	r3, [r1, #2]
  ep->num = ep_addr & EP_ADDR_MSK;
 8003fe8:	700d      	strb	r5, [r1, #0]
  __HAL_LOCK(hpcd);
 8003fea:	f894 2290 	ldrb.w	r2, [r4, #656]	@ 0x290
 8003fee:	429a      	cmp	r2, r3
 8003ff0:	d013      	beq.n	800401a <HAL_PCD_EP_SetStall+0x5c>
  (void)USB_EPSetStall(hpcd->Instance, ep);
 8003ff2:	6820      	ldr	r0, [r4, #0]
  __HAL_LOCK(hpcd);
 8003ff4:	f884 3290 	strb.w	r3, [r4, #656]	@ 0x290
  (void)USB_EPSetStall(hpcd->Instance, ep);
 8003ff8:	f002 f9eb 	bl	80063d2 <USB_EPSetStall>
  __HAL_UNLOCK(hpcd);
 8003ffc:	2000      	movs	r0, #0
 8003ffe:	f884 0290 	strb.w	r0, [r4, #656]	@ 0x290
}
 8004002:	bd38      	pop	{r3, r4, r5, pc}
    ep = &hpcd->OUT_ep[ep_addr];
 8004004:	fb00 4301 	mla	r3, r0, r1, r4
    ep->is_in = 0U;
 8004008:	461a      	mov	r2, r3
    ep = &hpcd->OUT_ep[ep_addr];
 800400a:	f503 71a8 	add.w	r1, r3, #336	@ 0x150
    ep->is_in = 0U;
 800400e:	2300      	movs	r3, #0
 8004010:	f882 3151 	strb.w	r3, [r2, #337]	@ 0x151
 8004014:	e7e6      	b.n	8003fe4 <HAL_PCD_EP_SetStall+0x26>
    return HAL_ERROR;
 8004016:	2001      	movs	r0, #1
 8004018:	e7f3      	b.n	8004002 <HAL_PCD_EP_SetStall+0x44>
  __HAL_LOCK(hpcd);
 800401a:	2002      	movs	r0, #2
 800401c:	e7f1      	b.n	8004002 <HAL_PCD_EP_SetStall+0x44>

0800401e <HAL_PCD_EP_ClrStall>:
{
 800401e:	b538      	push	{r3, r4, r5, lr}
  if (((uint32_t)ep_addr & 0x0FU) > hpcd->Init.dev_endpoints)
 8004020:	7902      	ldrb	r2, [r0, #4]
 8004022:	f001 030f 	and.w	r3, r1, #15
 8004026:	429a      	cmp	r2, r3
{
 8004028:	4604      	mov	r4, r0
  if (((uint32_t)ep_addr & 0x0FU) > hpcd->Init.dev_endpoints)
 800402a:	d32b      	bcc.n	8004084 <HAL_PCD_EP_ClrStall+0x66>
  if ((0x80U & ep_addr) == 0x80U)
 800402c:	f001 0007 	and.w	r0, r1, #7
 8004030:	eb00 0380 	add.w	r3, r0, r0, lsl #2
 8004034:	f011 0f80 	tst.w	r1, #128	@ 0x80
 8004038:	ea4f 03c3 	mov.w	r3, r3, lsl #3
 800403c:	f04f 0228 	mov.w	r2, #40	@ 0x28
 8004040:	d017      	beq.n	8004072 <HAL_PCD_EP_ClrStall+0x54>
    ep->is_in = 1U;
 8004042:	fb02 4200 	mla	r2, r2, r0, r4
    ep = &hpcd->IN_ep[ep_addr & EP_ADDR_MSK];
 8004046:	f103 0110 	add.w	r1, r3, #16
    ep->is_in = 1U;
 800404a:	2301      	movs	r3, #1
    ep = &hpcd->IN_ep[ep_addr & EP_ADDR_MSK];
 800404c:	4421      	add	r1, r4
    ep->is_in = 1U;
 800404e:	7453      	strb	r3, [r2, #17]
  ep->is_stall = 0U;
 8004050:	2500      	movs	r5, #0
 8004052:	708d      	strb	r5, [r1, #2]
  ep->num = ep_addr & EP_ADDR_MSK;
 8004054:	7008      	strb	r0, [r1, #0]
  __HAL_LOCK(hpcd);
 8004056:	f894 3290 	ldrb.w	r3, [r4, #656]	@ 0x290
 800405a:	2b01      	cmp	r3, #1
 800405c:	d014      	beq.n	8004088 <HAL_PCD_EP_ClrStall+0x6a>
 800405e:	2301      	movs	r3, #1
  (void)USB_EPClearStall(hpcd->Instance, ep);
 8004060:	6820      	ldr	r0, [r4, #0]
  __HAL_LOCK(hpcd);
 8004062:	f884 3290 	strb.w	r3, [r4, #656]	@ 0x290
  (void)USB_EPClearStall(hpcd->Instance, ep);
 8004066:	f002 f9d4 	bl	8006412 <USB_EPClearStall>
  __HAL_UNLOCK(hpcd);
 800406a:	f884 5290 	strb.w	r5, [r4, #656]	@ 0x290
  return HAL_OK;
 800406e:	4628      	mov	r0, r5
}
 8004070:	bd38      	pop	{r3, r4, r5, pc}
    ep->is_in = 0U;
 8004072:	fb02 4200 	mla	r2, r2, r0, r4
    ep = &hpcd->OUT_ep[ep_addr & EP_ADDR_MSK];
 8004076:	f503 71a8 	add.w	r1, r3, #336	@ 0x150
    ep->is_in = 0U;
 800407a:	2300      	movs	r3, #0
    ep = &hpcd->OUT_ep[ep_addr & EP_ADDR_MSK];
 800407c:	4421      	add	r1, r4
    ep->is_in = 0U;
 800407e:	f882 3151 	strb.w	r3, [r2, #337]	@ 0x151
 8004082:	e7e5      	b.n	8004050 <HAL_PCD_EP_ClrStall+0x32>
    return HAL_ERROR;
 8004084:	2001      	movs	r0, #1
 8004086:	e7f3      	b.n	8004070 <HAL_PCD_EP_ClrStall+0x52>
  __HAL_LOCK(hpcd);
 8004088:	2002      	movs	r0, #2
 800408a:	e7f1      	b.n	8004070 <HAL_PCD_EP_ClrStall+0x52>

0800408c <HAL_PCDEx_PMAConfig>:
                                       uint16_t ep_kind, uint32_t pmaadress)
{
  PCD_EPTypeDef *ep;

  /* initialize ep structure*/
  if ((0x80U & ep_addr) == 0x80U)
 800408c:	f011 0f80 	tst.w	r1, #128	@ 0x80
  {
    ep = &hpcd->IN_ep[ep_addr & EP_ADDR_MSK];
 8004090:	bf18      	it	ne
 8004092:	f001 0107 	andne.w	r1, r1, #7
{
 8004096:	b510      	push	{r4, lr}
 8004098:	f04f 0428 	mov.w	r4, #40	@ 0x28
    ep = &hpcd->IN_ep[ep_addr & EP_ADDR_MSK];
 800409c:	bf15      	itete	ne
 800409e:	fb04 0001 	mlane	r0, r4, r1, r0
  }
  else
  {
    ep = &hpcd->OUT_ep[ep_addr];
 80040a2:	fb04 0001 	mlaeq	r0, r4, r1, r0
    ep = &hpcd->IN_ep[ep_addr & EP_ADDR_MSK];
 80040a6:	3010      	addne	r0, #16
    ep = &hpcd->OUT_ep[ep_addr];
 80040a8:	f500 70a8 	addeq.w	r0, r0, #336	@ 0x150
  if (ep_kind == PCD_SNG_BUF)
  {
    /* Single Buffer */
    ep->doublebuffer = 0U;
    /* Configure the PMA */
    ep->pmaadress = (uint16_t)pmaadress;
 80040ac:	b299      	uxth	r1, r3
  if (ep_kind == PCD_SNG_BUF)
 80040ae:	b91a      	cbnz	r2, 80040b8 <HAL_PCDEx_PMAConfig+0x2c>
    ep->doublebuffer = 0U;
 80040b0:	7302      	strb	r2, [r0, #12]
    ep->pmaadress = (uint16_t)pmaadress;
 80040b2:	80c1      	strh	r1, [r0, #6]
    ep->pmaaddr1 = (uint16_t)((pmaadress & 0xFFFF0000U) >> 16);
  }
#endif /* (USE_USB_DOUBLE_BUFFER == 1U) */

  return HAL_OK;
}
 80040b4:	2000      	movs	r0, #0
 80040b6:	bd10      	pop	{r4, pc}
    ep->doublebuffer = 1U;
 80040b8:	2201      	movs	r2, #1
 80040ba:	7302      	strb	r2, [r0, #12]
    ep->pmaaddr0 = (uint16_t)(pmaadress & 0xFFFFU);
 80040bc:	6083      	str	r3, [r0, #8]
 80040be:	e7f9      	b.n	80040b4 <HAL_PCDEx_PMAConfig+0x28>

080040c0 <HAL_PCDEx_ActivateLPM>:
  * @brief  Activate LPM feature.
  * @param  hpcd PCD handle
  * @retval HAL status
  */
HAL_StatusTypeDef HAL_PCDEx_ActivateLPM(PCD_HandleTypeDef *hpcd)
{
 80040c0:	4603      	mov	r3, r0

  USB_TypeDef *USBx = hpcd->Instance;
  hpcd->lpm_active = 1U;
 80040c2:	2101      	movs	r1, #1
  USB_TypeDef *USBx = hpcd->Instance;
 80040c4:	6802      	ldr	r2, [r0, #0]
  hpcd->lpm_active = 1U;
 80040c6:	f8c0 12d0 	str.w	r1, [r0, #720]	@ 0x2d0
  hpcd->LPM_State = LPM_L0;
 80040ca:	2000      	movs	r0, #0
 80040cc:	f883 02c8 	strb.w	r0, [r3, #712]	@ 0x2c8

  USBx->LPMCSR |= USB_LPMCSR_LMPEN;
 80040d0:	f8b2 3054 	ldrh.w	r3, [r2, #84]	@ 0x54
 80040d4:	b29b      	uxth	r3, r3
 80040d6:	430b      	orrs	r3, r1
 80040d8:	f8a2 3054 	strh.w	r3, [r2, #84]	@ 0x54
  USBx->LPMCSR |= USB_LPMCSR_LPMACK;
 80040dc:	f8b2 3054 	ldrh.w	r3, [r2, #84]	@ 0x54
 80040e0:	b29b      	uxth	r3, r3
 80040e2:	f043 0302 	orr.w	r3, r3, #2
 80040e6:	f8a2 3054 	strh.w	r3, [r2, #84]	@ 0x54

  return HAL_OK;
}
 80040ea:	4770      	bx	lr

080040ec <HAL_PWREx_ControlVoltageScaling>:
{
  uint32_t wait_loop_index;

  assert_param(IS_PWR_VOLTAGE_SCALING_RANGE(VoltageScaling));

  if (VoltageScaling == PWR_REGULATOR_VOLTAGE_SCALE1_BOOST)
 80040ec:	4b28      	ldr	r3, [pc, #160]	@ (8004190 <HAL_PWREx_ControlVoltageScaling+0xa4>)
  {
    /* If current range is range 2 */
    if (READ_BIT(PWR->CR1, PWR_CR1_VOS) == PWR_REGULATOR_VOLTAGE_SCALE2)
 80040ee:	681a      	ldr	r2, [r3, #0]
  if (VoltageScaling == PWR_REGULATOR_VOLTAGE_SCALE1_BOOST)
 80040f0:	bb18      	cbnz	r0, 800413a <HAL_PWREx_ControlVoltageScaling+0x4e>
    if (READ_BIT(PWR->CR1, PWR_CR1_VOS) == PWR_REGULATOR_VOLTAGE_SCALE2)
 80040f2:	f402 62c0 	and.w	r2, r2, #1536	@ 0x600
 80040f6:	f5b2 6f80 	cmp.w	r2, #1024	@ 0x400
    {
      /* Make sure Range 1 Boost is enabled */
      CLEAR_BIT(PWR->CR5, PWR_CR5_R1MODE);
 80040fa:	f8d3 2080 	ldr.w	r2, [r3, #128]	@ 0x80
 80040fe:	f422 7280 	bic.w	r2, r2, #256	@ 0x100
 8004102:	f8c3 2080 	str.w	r2, [r3, #128]	@ 0x80
    if (READ_BIT(PWR->CR1, PWR_CR1_VOS) == PWR_REGULATOR_VOLTAGE_SCALE2)
 8004106:	d140      	bne.n	800418a <HAL_PWREx_ControlVoltageScaling+0x9e>

      /* Set Range 1 */
      MODIFY_REG(PWR->CR1, PWR_CR1_VOS, PWR_REGULATOR_VOLTAGE_SCALE1);
 8004108:	681a      	ldr	r2, [r3, #0]
 800410a:	f422 62c0 	bic.w	r2, r2, #1536	@ 0x600
 800410e:	f442 7200 	orr.w	r2, r2, #512	@ 0x200
 8004112:	601a      	str	r2, [r3, #0]

      /* Wait until VOSF is cleared */
      wait_loop_index = ((PWR_FLAG_SETTING_DELAY_US * SystemCoreClock) / 1000000U) + 1U;
 8004114:	4a1f      	ldr	r2, [pc, #124]	@ (8004194 <HAL_PWREx_ControlVoltageScaling+0xa8>)
 8004116:	6812      	ldr	r2, [r2, #0]
 8004118:	2132      	movs	r1, #50	@ 0x32
 800411a:	434a      	muls	r2, r1
 800411c:	491e      	ldr	r1, [pc, #120]	@ (8004198 <HAL_PWREx_ControlVoltageScaling+0xac>)
 800411e:	fbb2 f2f1 	udiv	r2, r2, r1
 8004122:	3201      	adds	r2, #1
      while ((HAL_IS_BIT_SET(PWR->SR2, PWR_SR2_VOSF)) && (wait_loop_index != 0U))
 8004124:	6959      	ldr	r1, [r3, #20]
 8004126:	0549      	lsls	r1, r1, #21
 8004128:	d500      	bpl.n	800412c <HAL_PWREx_ControlVoltageScaling+0x40>
 800412a:	b922      	cbnz	r2, 8004136 <HAL_PWREx_ControlVoltageScaling+0x4a>
      {
        wait_loop_index--;
      }
      if (HAL_IS_BIT_SET(PWR->SR2, PWR_SR2_VOSF))
 800412c:	695b      	ldr	r3, [r3, #20]
 800412e:	0558      	lsls	r0, r3, #21
 8004130:	d52b      	bpl.n	800418a <HAL_PWREx_ControlVoltageScaling+0x9e>
      {
        return HAL_TIMEOUT;
 8004132:	2003      	movs	r0, #3
 8004134:	4770      	bx	lr
        wait_loop_index--;
 8004136:	3a01      	subs	r2, #1
 8004138:	e7f4      	b.n	8004124 <HAL_PWREx_ControlVoltageScaling+0x38>
    {
      /* Enable Range 1 Boost (no issue if bit already reset) */
      CLEAR_BIT(PWR->CR5, PWR_CR5_R1MODE);
    }
  }
  else if (VoltageScaling == PWR_REGULATOR_VOLTAGE_SCALE1)
 800413a:	f5b0 7f00 	cmp.w	r0, #512	@ 0x200
 800413e:	d11f      	bne.n	8004180 <HAL_PWREx_ControlVoltageScaling+0x94>
  {
    /* If current range is range 2 */
    if (READ_BIT(PWR->CR1, PWR_CR1_VOS) == PWR_REGULATOR_VOLTAGE_SCALE2)
 8004140:	f402 62c0 	and.w	r2, r2, #1536	@ 0x600
 8004144:	f5b2 6f80 	cmp.w	r2, #1024	@ 0x400
    {
      /* Make sure Range 1 Boost is disabled */
      SET_BIT(PWR->CR5, PWR_CR5_R1MODE);
 8004148:	f8d3 2080 	ldr.w	r2, [r3, #128]	@ 0x80
 800414c:	f442 7280 	orr.w	r2, r2, #256	@ 0x100
 8004150:	f8c3 2080 	str.w	r2, [r3, #128]	@ 0x80
    if (READ_BIT(PWR->CR1, PWR_CR1_VOS) == PWR_REGULATOR_VOLTAGE_SCALE2)
 8004154:	d119      	bne.n	800418a <HAL_PWREx_ControlVoltageScaling+0x9e>

      /* Set Range 1 */
      MODIFY_REG(PWR->CR1, PWR_CR1_VOS, PWR_REGULATOR_VOLTAGE_SCALE1);
 8004156:	681a      	ldr	r2, [r3, #0]
 8004158:	f422 62c0 	bic.w	r2, r2, #1536	@ 0x600
 800415c:	f442 7200 	orr.w	r2, r2, #512	@ 0x200
 8004160:	601a      	str	r2, [r3, #0]

      /* Wait until VOSF is cleared */
      wait_loop_index = ((PWR_FLAG_SETTING_DELAY_US * SystemCoreClock) / 1000000U) + 1U;
 8004162:	4a0c      	ldr	r2, [pc, #48]	@ (8004194 <HAL_PWREx_ControlVoltageScaling+0xa8>)
 8004164:	6812      	ldr	r2, [r2, #0]
 8004166:	2132      	movs	r1, #50	@ 0x32
 8004168:	434a      	muls	r2, r1
 800416a:	490b      	ldr	r1, [pc, #44]	@ (8004198 <HAL_PWREx_ControlVoltageScaling+0xac>)
 800416c:	fbb2 f2f1 	udiv	r2, r2, r1
 8004170:	3201      	adds	r2, #1
      while ((HAL_IS_BIT_SET(PWR->SR2, PWR_SR2_VOSF)) && (wait_loop_index != 0U))
 8004172:	6959      	ldr	r1, [r3, #20]
 8004174:	0549      	lsls	r1, r1, #21
 8004176:	d5d9      	bpl.n	800412c <HAL_PWREx_ControlVoltageScaling+0x40>
 8004178:	2a00      	cmp	r2, #0
 800417a:	d0d7      	beq.n	800412c <HAL_PWREx_ControlVoltageScaling+0x40>
      {
        wait_loop_index--;
 800417c:	3a01      	subs	r2, #1
 800417e:	e7f8      	b.n	8004172 <HAL_PWREx_ControlVoltageScaling+0x86>
    }
  }
  else
  {
    /* Set Range 2 */
    MODIFY_REG(PWR->CR1, PWR_CR1_VOS, PWR_REGULATOR_VOLTAGE_SCALE2);
 8004180:	f422 62c0 	bic.w	r2, r2, #1536	@ 0x600
 8004184:	f442 6280 	orr.w	r2, r2, #1024	@ 0x400
 8004188:	601a      	str	r2, [r3, #0]
    /* No need to wait for VOSF to be cleared for this transition */
    /* PWR_CR5_R1MODE bit setting has no effect in Range 2        */
  }

  return HAL_OK;
 800418a:	2000      	movs	r0, #0
}
 800418c:	4770      	bx	lr
 800418e:	bf00      	nop
 8004190:	40007000 	.word	0x40007000
 8004194:	20000044 	.word	0x20000044
 8004198:	000f4240 	.word	0x000f4240

0800419c <HAL_PWREx_DisableUCPDDeadBattery>:
  * @retval None
  */
void HAL_PWREx_DisableUCPDDeadBattery(void)
{
  /* Write 1 to disable the USB Type-C dead battery pull-down behavior */
  SET_BIT(PWR->CR3, PWR_CR3_UCPD_DBDIS);
 800419c:	4a02      	ldr	r2, [pc, #8]	@ (80041a8 <HAL_PWREx_DisableUCPDDeadBattery+0xc>)
 800419e:	6893      	ldr	r3, [r2, #8]
 80041a0:	f443 4380 	orr.w	r3, r3, #16384	@ 0x4000
 80041a4:	6093      	str	r3, [r2, #8]
}
 80041a6:	4770      	bx	lr
 80041a8:	40007000 	.word	0x40007000

080041ac <HAL_RCC_OscConfig>:
  *         supported by this macro. User should request a transition to HSE Off
  *         first and then HSE On or HSE Bypass.
  * @retval HAL status
  */
HAL_StatusTypeDef HAL_RCC_OscConfig(RCC_OscInitTypeDef  *RCC_OscInitStruct)
{
 80041ac:	e92d 41f3 	stmdb	sp!, {r0, r1, r4, r5, r6, r7, r8, lr}
  uint32_t tickstart;
  uint32_t temp_sysclksrc;
  uint32_t temp_pllckcfg;

  /* Check Null pointer */
  if (RCC_OscInitStruct == NULL)
 80041b0:	4604      	mov	r4, r0
 80041b2:	b918      	cbnz	r0, 80041bc <HAL_RCC_OscConfig+0x10>
  {
    return HAL_ERROR;
 80041b4:	2001      	movs	r0, #1
    }
  }
  }

  return HAL_OK;
}
 80041b6:	b002      	add	sp, #8
 80041b8:	e8bd 81f0 	ldmia.w	sp!, {r4, r5, r6, r7, r8, pc}
  if (((RCC_OscInitStruct->OscillatorType) & RCC_OSCILLATORTYPE_HSE) == RCC_OSCILLATORTYPE_HSE)
 80041bc:	6803      	ldr	r3, [r0, #0]
 80041be:	07d9      	lsls	r1, r3, #31
 80041c0:	d414      	bmi.n	80041ec <HAL_RCC_OscConfig+0x40>
  if (((RCC_OscInitStruct->OscillatorType) & RCC_OSCILLATORTYPE_HSI) == RCC_OSCILLATORTYPE_HSI)
 80041c2:	6823      	ldr	r3, [r4, #0]
 80041c4:	079a      	lsls	r2, r3, #30
 80041c6:	d458      	bmi.n	800427a <HAL_RCC_OscConfig+0xce>
  if (((RCC_OscInitStruct->OscillatorType) & RCC_OSCILLATORTYPE_LSI) == RCC_OSCILLATORTYPE_LSI)
 80041c8:	6823      	ldr	r3, [r4, #0]
 80041ca:	0719      	lsls	r1, r3, #28
 80041cc:	f100 80a1 	bmi.w	8004312 <HAL_RCC_OscConfig+0x166>
  if (((RCC_OscInitStruct->OscillatorType) & RCC_OSCILLATORTYPE_LSE) == RCC_OSCILLATORTYPE_LSE)
 80041d0:	6823      	ldr	r3, [r4, #0]
 80041d2:	075a      	lsls	r2, r3, #29
 80041d4:	f100 80c8 	bmi.w	8004368 <HAL_RCC_OscConfig+0x1bc>
  if(((RCC_OscInitStruct->OscillatorType) & RCC_OSCILLATORTYPE_HSI48) == RCC_OSCILLATORTYPE_HSI48)
 80041d8:	6823      	ldr	r3, [r4, #0]
 80041da:	069a      	lsls	r2, r3, #26
 80041dc:	f100 812f 	bmi.w	800443e <HAL_RCC_OscConfig+0x292>
  if (RCC_OscInitStruct->PLL.PLLState != RCC_PLL_NONE)
 80041e0:	69e3      	ldr	r3, [r4, #28]
 80041e2:	2b00      	cmp	r3, #0
 80041e4:	f040 815c 	bne.w	80044a0 <HAL_RCC_OscConfig+0x2f4>
  return HAL_OK;
 80041e8:	2000      	movs	r0, #0
 80041ea:	e7e4      	b.n	80041b6 <HAL_RCC_OscConfig+0xa>
    temp_sysclksrc = __HAL_RCC_GET_SYSCLK_SOURCE();
 80041ec:	4d9f      	ldr	r5, [pc, #636]	@ (800446c <HAL_RCC_OscConfig+0x2c0>)
 80041ee:	68ab      	ldr	r3, [r5, #8]
    temp_pllckcfg = __HAL_RCC_GET_PLL_OSCSOURCE();
 80041f0:	68ea      	ldr	r2, [r5, #12]
    temp_sysclksrc = __HAL_RCC_GET_SYSCLK_SOURCE();
 80041f2:	f003 030c 	and.w	r3, r3, #12
    if (((temp_sysclksrc == RCC_CFGR_SWS_PLL) && (temp_pllckcfg == RCC_PLLSOURCE_HSE)) || (temp_sysclksrc == RCC_CFGR_SWS_HSE))
 80041f6:	2b0c      	cmp	r3, #12
 80041f8:	d10a      	bne.n	8004210 <HAL_RCC_OscConfig+0x64>
    temp_pllckcfg = __HAL_RCC_GET_PLL_OSCSOURCE();
 80041fa:	f002 0303 	and.w	r3, r2, #3
    if (((temp_sysclksrc == RCC_CFGR_SWS_PLL) && (temp_pllckcfg == RCC_PLLSOURCE_HSE)) || (temp_sysclksrc == RCC_CFGR_SWS_HSE))
 80041fe:	2b03      	cmp	r3, #3
 8004200:	d108      	bne.n	8004214 <HAL_RCC_OscConfig+0x68>
      if ((READ_BIT(RCC->CR, RCC_CR_HSERDY) != 0U) && (RCC_OscInitStruct->HSEState == RCC_HSE_OFF))
 8004202:	682b      	ldr	r3, [r5, #0]
 8004204:	039b      	lsls	r3, r3, #14
 8004206:	d5dc      	bpl.n	80041c2 <HAL_RCC_OscConfig+0x16>
 8004208:	6863      	ldr	r3, [r4, #4]
 800420a:	2b00      	cmp	r3, #0
 800420c:	d1d9      	bne.n	80041c2 <HAL_RCC_OscConfig+0x16>
 800420e:	e7d1      	b.n	80041b4 <HAL_RCC_OscConfig+0x8>
    if (((temp_sysclksrc == RCC_CFGR_SWS_PLL) && (temp_pllckcfg == RCC_PLLSOURCE_HSE)) || (temp_sysclksrc == RCC_CFGR_SWS_HSE))
 8004210:	2b08      	cmp	r3, #8
 8004212:	e7f5      	b.n	8004200 <HAL_RCC_OscConfig+0x54>
      __HAL_RCC_HSE_CONFIG(RCC_OscInitStruct->HSEState);
 8004214:	6863      	ldr	r3, [r4, #4]
 8004216:	f5b3 3f80 	cmp.w	r3, #65536	@ 0x10000
 800421a:	d110      	bne.n	800423e <HAL_RCC_OscConfig+0x92>
 800421c:	682b      	ldr	r3, [r5, #0]
 800421e:	f443 3380 	orr.w	r3, r3, #65536	@ 0x10000
 8004222:	602b      	str	r3, [r5, #0]
        tickstart = HAL_GetTick();
 8004224:	f7fe fb98 	bl	8002958 <HAL_GetTick>
 8004228:	4606      	mov	r6, r0
        while (READ_BIT(RCC->CR, RCC_CR_HSERDY) == 0U)
 800422a:	682b      	ldr	r3, [r5, #0]
 800422c:	039f      	lsls	r7, r3, #14
 800422e:	d4c8      	bmi.n	80041c2 <HAL_RCC_OscConfig+0x16>
          if ((HAL_GetTick() - tickstart) > HSE_TIMEOUT_VALUE)
 8004230:	f7fe fb92 	bl	8002958 <HAL_GetTick>
 8004234:	1b80      	subs	r0, r0, r6
 8004236:	2864      	cmp	r0, #100	@ 0x64
 8004238:	d9f7      	bls.n	800422a <HAL_RCC_OscConfig+0x7e>
            return HAL_TIMEOUT;
 800423a:	2003      	movs	r0, #3
 800423c:	e7bb      	b.n	80041b6 <HAL_RCC_OscConfig+0xa>
      __HAL_RCC_HSE_CONFIG(RCC_OscInitStruct->HSEState);
 800423e:	f5b3 2fa0 	cmp.w	r3, #327680	@ 0x50000
 8004242:	d104      	bne.n	800424e <HAL_RCC_OscConfig+0xa2>
 8004244:	682b      	ldr	r3, [r5, #0]
 8004246:	f443 2380 	orr.w	r3, r3, #262144	@ 0x40000
 800424a:	602b      	str	r3, [r5, #0]
 800424c:	e7e6      	b.n	800421c <HAL_RCC_OscConfig+0x70>
 800424e:	682a      	ldr	r2, [r5, #0]
 8004250:	f422 3280 	bic.w	r2, r2, #65536	@ 0x10000
 8004254:	602a      	str	r2, [r5, #0]
 8004256:	682a      	ldr	r2, [r5, #0]
 8004258:	f422 2280 	bic.w	r2, r2, #262144	@ 0x40000
 800425c:	602a      	str	r2, [r5, #0]
      if (RCC_OscInitStruct->HSEState != RCC_HSE_OFF)
 800425e:	2b00      	cmp	r3, #0
 8004260:	d1e0      	bne.n	8004224 <HAL_RCC_OscConfig+0x78>
        tickstart = HAL_GetTick();
 8004262:	f7fe fb79 	bl	8002958 <HAL_GetTick>
 8004266:	4606      	mov	r6, r0
        while (READ_BIT(RCC->CR, RCC_CR_HSERDY) != 0U)
 8004268:	682b      	ldr	r3, [r5, #0]
 800426a:	0399      	lsls	r1, r3, #14
 800426c:	d5a9      	bpl.n	80041c2 <HAL_RCC_OscConfig+0x16>
          if ((HAL_GetTick() - tickstart) > HSE_TIMEOUT_VALUE)
 800426e:	f7fe fb73 	bl	8002958 <HAL_GetTick>
 8004272:	1b80      	subs	r0, r0, r6
 8004274:	2864      	cmp	r0, #100	@ 0x64
 8004276:	d9f7      	bls.n	8004268 <HAL_RCC_OscConfig+0xbc>
 8004278:	e7df      	b.n	800423a <HAL_RCC_OscConfig+0x8e>
    temp_sysclksrc = __HAL_RCC_GET_SYSCLK_SOURCE();
 800427a:	4d7c      	ldr	r5, [pc, #496]	@ (800446c <HAL_RCC_OscConfig+0x2c0>)
 800427c:	68ab      	ldr	r3, [r5, #8]
    temp_pllckcfg = __HAL_RCC_GET_PLL_OSCSOURCE();
 800427e:	68ea      	ldr	r2, [r5, #12]
    temp_sysclksrc = __HAL_RCC_GET_SYSCLK_SOURCE();
 8004280:	f003 030c 	and.w	r3, r3, #12
    if (((temp_sysclksrc == RCC_CFGR_SWS_PLL) && (temp_pllckcfg == RCC_PLLSOURCE_HSI)) || (temp_sysclksrc == RCC_CFGR_SWS_HSI))
 8004284:	2b0c      	cmp	r3, #12
 8004286:	d117      	bne.n	80042b8 <HAL_RCC_OscConfig+0x10c>
    temp_pllckcfg = __HAL_RCC_GET_PLL_OSCSOURCE();
 8004288:	f002 0303 	and.w	r3, r2, #3
    if (((temp_sysclksrc == RCC_CFGR_SWS_PLL) && (temp_pllckcfg == RCC_PLLSOURCE_HSI)) || (temp_sysclksrc == RCC_CFGR_SWS_HSI))
 800428c:	2b02      	cmp	r3, #2
 800428e:	d115      	bne.n	80042bc <HAL_RCC_OscConfig+0x110>
      if ((READ_BIT(RCC->CR, RCC_CR_HSIRDY) != 0U) && (RCC_OscInitStruct->HSIState == RCC_HSI_OFF))
 8004290:	682b      	ldr	r3, [r5, #0]
 8004292:	055a      	lsls	r2, r3, #21
 8004294:	d502      	bpl.n	800429c <HAL_RCC_OscConfig+0xf0>
 8004296:	68e3      	ldr	r3, [r4, #12]
 8004298:	2b00      	cmp	r3, #0
 800429a:	d08b      	beq.n	80041b4 <HAL_RCC_OscConfig+0x8>
        __HAL_RCC_HSI_CALIBRATIONVALUE_ADJUST(RCC_OscInitStruct->HSICalibrationValue);
 800429c:	686b      	ldr	r3, [r5, #4]
 800429e:	6922      	ldr	r2, [r4, #16]
 80042a0:	f023 43fe 	bic.w	r3, r3, #2130706432	@ 0x7f000000
 80042a4:	ea43 6302 	orr.w	r3, r3, r2, lsl #24
 80042a8:	606b      	str	r3, [r5, #4]
        if (HAL_InitTick(uwTickPrio) != HAL_OK)
 80042aa:	4b71      	ldr	r3, [pc, #452]	@ (8004470 <HAL_RCC_OscConfig+0x2c4>)
 80042ac:	6818      	ldr	r0, [r3, #0]
 80042ae:	f7fe fb11 	bl	80028d4 <HAL_InitTick>
 80042b2:	2800      	cmp	r0, #0
 80042b4:	d088      	beq.n	80041c8 <HAL_RCC_OscConfig+0x1c>
 80042b6:	e77d      	b.n	80041b4 <HAL_RCC_OscConfig+0x8>
    if (((temp_sysclksrc == RCC_CFGR_SWS_PLL) && (temp_pllckcfg == RCC_PLLSOURCE_HSI)) || (temp_sysclksrc == RCC_CFGR_SWS_HSI))
 80042b8:	2b04      	cmp	r3, #4
 80042ba:	e7e8      	b.n	800428e <HAL_RCC_OscConfig+0xe2>
      if (RCC_OscInitStruct->HSIState != RCC_HSI_OFF)
 80042bc:	68e3      	ldr	r3, [r4, #12]
 80042be:	b1bb      	cbz	r3, 80042f0 <HAL_RCC_OscConfig+0x144>
        __HAL_RCC_HSI_ENABLE();
 80042c0:	682b      	ldr	r3, [r5, #0]
 80042c2:	f443 7380 	orr.w	r3, r3, #256	@ 0x100
 80042c6:	602b      	str	r3, [r5, #0]
        tickstart = HAL_GetTick();
 80042c8:	f7fe fb46 	bl	8002958 <HAL_GetTick>
 80042cc:	4606      	mov	r6, r0
        while (READ_BIT(RCC->CR, RCC_CR_HSIRDY) == 0U)
 80042ce:	682b      	ldr	r3, [r5, #0]
 80042d0:	055b      	lsls	r3, r3, #21
 80042d2:	d507      	bpl.n	80042e4 <HAL_RCC_OscConfig+0x138>
        __HAL_RCC_HSI_CALIBRATIONVALUE_ADJUST(RCC_OscInitStruct->HSICalibrationValue);
 80042d4:	686b      	ldr	r3, [r5, #4]
 80042d6:	6922      	ldr	r2, [r4, #16]
 80042d8:	f023 43fe 	bic.w	r3, r3, #2130706432	@ 0x7f000000
 80042dc:	ea43 6302 	orr.w	r3, r3, r2, lsl #24
 80042e0:	606b      	str	r3, [r5, #4]
 80042e2:	e771      	b.n	80041c8 <HAL_RCC_OscConfig+0x1c>
          if ((HAL_GetTick() - tickstart) > HSI_TIMEOUT_VALUE)
 80042e4:	f7fe fb38 	bl	8002958 <HAL_GetTick>
 80042e8:	1b80      	subs	r0, r0, r6
 80042ea:	2802      	cmp	r0, #2
 80042ec:	d9ef      	bls.n	80042ce <HAL_RCC_OscConfig+0x122>
 80042ee:	e7a4      	b.n	800423a <HAL_RCC_OscConfig+0x8e>
        __HAL_RCC_HSI_DISABLE();
 80042f0:	682b      	ldr	r3, [r5, #0]
 80042f2:	f423 7380 	bic.w	r3, r3, #256	@ 0x100
 80042f6:	602b      	str	r3, [r5, #0]
        tickstart = HAL_GetTick();
 80042f8:	f7fe fb2e 	bl	8002958 <HAL_GetTick>
 80042fc:	4606      	mov	r6, r0
        while (READ_BIT(RCC->CR, RCC_CR_HSIRDY) != 0U)
 80042fe:	682b      	ldr	r3, [r5, #0]
 8004300:	055f      	lsls	r7, r3, #21
 8004302:	f57f af61 	bpl.w	80041c8 <HAL_RCC_OscConfig+0x1c>
          if ((HAL_GetTick() - tickstart) > HSI_TIMEOUT_VALUE)
 8004306:	f7fe fb27 	bl	8002958 <HAL_GetTick>
 800430a:	1b80      	subs	r0, r0, r6
 800430c:	2802      	cmp	r0, #2
 800430e:	d9f6      	bls.n	80042fe <HAL_RCC_OscConfig+0x152>
 8004310:	e793      	b.n	800423a <HAL_RCC_OscConfig+0x8e>
    if(RCC_OscInitStruct->LSIState != RCC_LSI_OFF)
 8004312:	6963      	ldr	r3, [r4, #20]
 8004314:	4d55      	ldr	r5, [pc, #340]	@ (800446c <HAL_RCC_OscConfig+0x2c0>)
 8004316:	b19b      	cbz	r3, 8004340 <HAL_RCC_OscConfig+0x194>
      __HAL_RCC_LSI_ENABLE();
 8004318:	f8d5 3094 	ldr.w	r3, [r5, #148]	@ 0x94
 800431c:	f043 0301 	orr.w	r3, r3, #1
 8004320:	f8c5 3094 	str.w	r3, [r5, #148]	@ 0x94
      tickstart = HAL_GetTick();
 8004324:	f7fe fb18 	bl	8002958 <HAL_GetTick>
 8004328:	4606      	mov	r6, r0
      while (READ_BIT(RCC->CSR, RCC_CSR_LSIRDY) == 0U)
 800432a:	f8d5 3094 	ldr.w	r3, [r5, #148]	@ 0x94
 800432e:	079b      	lsls	r3, r3, #30
 8004330:	f53f af4e 	bmi.w	80041d0 <HAL_RCC_OscConfig+0x24>
        if ((HAL_GetTick() - tickstart) > LSI_TIMEOUT_VALUE)
 8004334:	f7fe fb10 	bl	8002958 <HAL_GetTick>
 8004338:	1b80      	subs	r0, r0, r6
 800433a:	2802      	cmp	r0, #2
 800433c:	d9f5      	bls.n	800432a <HAL_RCC_OscConfig+0x17e>
 800433e:	e77c      	b.n	800423a <HAL_RCC_OscConfig+0x8e>
      __HAL_RCC_LSI_DISABLE();
 8004340:	f8d5 3094 	ldr.w	r3, [r5, #148]	@ 0x94
 8004344:	f023 0301 	bic.w	r3, r3, #1
 8004348:	f8c5 3094 	str.w	r3, [r5, #148]	@ 0x94
      tickstart = HAL_GetTick();
 800434c:	f7fe fb04 	bl	8002958 <HAL_GetTick>
 8004350:	4606      	mov	r6, r0
      while(READ_BIT(RCC->CSR, RCC_CSR_LSIRDY) != 0U)
 8004352:	f8d5 3094 	ldr.w	r3, [r5, #148]	@ 0x94
 8004356:	079f      	lsls	r7, r3, #30
 8004358:	f57f af3a 	bpl.w	80041d0 <HAL_RCC_OscConfig+0x24>
        if((HAL_GetTick() - tickstart) > LSI_TIMEOUT_VALUE)
 800435c:	f7fe fafc 	bl	8002958 <HAL_GetTick>
 8004360:	1b80      	subs	r0, r0, r6
 8004362:	2802      	cmp	r0, #2
 8004364:	d9f5      	bls.n	8004352 <HAL_RCC_OscConfig+0x1a6>
 8004366:	e768      	b.n	800423a <HAL_RCC_OscConfig+0x8e>
    if (__HAL_RCC_PWR_IS_CLK_DISABLED() != 0U)
 8004368:	4d40      	ldr	r5, [pc, #256]	@ (800446c <HAL_RCC_OscConfig+0x2c0>)
 800436a:	6dab      	ldr	r3, [r5, #88]	@ 0x58
 800436c:	00d8      	lsls	r0, r3, #3
 800436e:	d427      	bmi.n	80043c0 <HAL_RCC_OscConfig+0x214>
      __HAL_RCC_PWR_CLK_ENABLE();
 8004370:	6dab      	ldr	r3, [r5, #88]	@ 0x58
 8004372:	f043 5380 	orr.w	r3, r3, #268435456	@ 0x10000000
 8004376:	65ab      	str	r3, [r5, #88]	@ 0x58
 8004378:	6dab      	ldr	r3, [r5, #88]	@ 0x58
 800437a:	f003 5380 	and.w	r3, r3, #268435456	@ 0x10000000
 800437e:	9301      	str	r3, [sp, #4]
 8004380:	9b01      	ldr	r3, [sp, #4]
      pwrclkchanged = SET;
 8004382:	2701      	movs	r7, #1
    if (HAL_IS_BIT_CLR(PWR->CR1, PWR_CR1_DBP))
 8004384:	4e3b      	ldr	r6, [pc, #236]	@ (8004474 <HAL_RCC_OscConfig+0x2c8>)
 8004386:	6833      	ldr	r3, [r6, #0]
 8004388:	05d9      	lsls	r1, r3, #23
 800438a:	d51b      	bpl.n	80043c4 <HAL_RCC_OscConfig+0x218>
    __HAL_RCC_LSE_CONFIG(RCC_OscInitStruct->LSEState);
 800438c:	68a3      	ldr	r3, [r4, #8]
 800438e:	2b01      	cmp	r3, #1
 8004390:	d129      	bne.n	80043e6 <HAL_RCC_OscConfig+0x23a>
 8004392:	f8d5 3090 	ldr.w	r3, [r5, #144]	@ 0x90
 8004396:	f043 0301 	orr.w	r3, r3, #1
 800439a:	f8c5 3090 	str.w	r3, [r5, #144]	@ 0x90
      tickstart = HAL_GetTick();
 800439e:	f7fe fadb 	bl	8002958 <HAL_GetTick>
        if((HAL_GetTick() - tickstart) > RCC_LSE_TIMEOUT_VALUE)
 80043a2:	f241 3888 	movw	r8, #5000	@ 0x1388
      tickstart = HAL_GetTick();
 80043a6:	4606      	mov	r6, r0
      while (READ_BIT(RCC->BDCR, RCC_BDCR_LSERDY) == 0U)
 80043a8:	f8d5 3090 	ldr.w	r3, [r5, #144]	@ 0x90
 80043ac:	079b      	lsls	r3, r3, #30
 80043ae:	d540      	bpl.n	8004432 <HAL_RCC_OscConfig+0x286>
    if (pwrclkchanged == SET)
 80043b0:	2f00      	cmp	r7, #0
 80043b2:	f43f af11 	beq.w	80041d8 <HAL_RCC_OscConfig+0x2c>
      __HAL_RCC_PWR_CLK_DISABLE();
 80043b6:	6dab      	ldr	r3, [r5, #88]	@ 0x58
 80043b8:	f023 5380 	bic.w	r3, r3, #268435456	@ 0x10000000
 80043bc:	65ab      	str	r3, [r5, #88]	@ 0x58
 80043be:	e70b      	b.n	80041d8 <HAL_RCC_OscConfig+0x2c>
    FlagStatus       pwrclkchanged = RESET;
 80043c0:	2700      	movs	r7, #0
 80043c2:	e7df      	b.n	8004384 <HAL_RCC_OscConfig+0x1d8>
      SET_BIT(PWR->CR1, PWR_CR1_DBP);
 80043c4:	6833      	ldr	r3, [r6, #0]
 80043c6:	f443 7380 	orr.w	r3, r3, #256	@ 0x100
 80043ca:	6033      	str	r3, [r6, #0]
      tickstart = HAL_GetTick();
 80043cc:	f7fe fac4 	bl	8002958 <HAL_GetTick>
 80043d0:	4680      	mov	r8, r0
      while (HAL_IS_BIT_CLR(PWR->CR1, PWR_CR1_DBP))
 80043d2:	6833      	ldr	r3, [r6, #0]
 80043d4:	05da      	lsls	r2, r3, #23
 80043d6:	d4d9      	bmi.n	800438c <HAL_RCC_OscConfig+0x1e0>
        if ((HAL_GetTick() - tickstart) > RCC_DBP_TIMEOUT_VALUE)
 80043d8:	f7fe fabe 	bl	8002958 <HAL_GetTick>
 80043dc:	eba0 0008 	sub.w	r0, r0, r8
 80043e0:	2802      	cmp	r0, #2
 80043e2:	d9f6      	bls.n	80043d2 <HAL_RCC_OscConfig+0x226>
 80043e4:	e729      	b.n	800423a <HAL_RCC_OscConfig+0x8e>
    __HAL_RCC_LSE_CONFIG(RCC_OscInitStruct->LSEState);
 80043e6:	2b05      	cmp	r3, #5
 80043e8:	d106      	bne.n	80043f8 <HAL_RCC_OscConfig+0x24c>
 80043ea:	f8d5 3090 	ldr.w	r3, [r5, #144]	@ 0x90
 80043ee:	f043 0304 	orr.w	r3, r3, #4
 80043f2:	f8c5 3090 	str.w	r3, [r5, #144]	@ 0x90
 80043f6:	e7cc      	b.n	8004392 <HAL_RCC_OscConfig+0x1e6>
 80043f8:	f8d5 2090 	ldr.w	r2, [r5, #144]	@ 0x90
 80043fc:	f022 0201 	bic.w	r2, r2, #1
 8004400:	f8c5 2090 	str.w	r2, [r5, #144]	@ 0x90
 8004404:	f8d5 2090 	ldr.w	r2, [r5, #144]	@ 0x90
 8004408:	f022 0204 	bic.w	r2, r2, #4
 800440c:	f8c5 2090 	str.w	r2, [r5, #144]	@ 0x90
    if (RCC_OscInitStruct->LSEState != RCC_LSE_OFF)
 8004410:	2b00      	cmp	r3, #0
 8004412:	d1c4      	bne.n	800439e <HAL_RCC_OscConfig+0x1f2>
      tickstart = HAL_GetTick();
 8004414:	f7fe faa0 	bl	8002958 <HAL_GetTick>
        if((HAL_GetTick() - tickstart) > RCC_LSE_TIMEOUT_VALUE)
 8004418:	f241 3888 	movw	r8, #5000	@ 0x1388
      tickstart = HAL_GetTick();
 800441c:	4606      	mov	r6, r0
      while (READ_BIT(RCC->BDCR, RCC_BDCR_LSERDY) != 0U)
 800441e:	f8d5 3090 	ldr.w	r3, [r5, #144]	@ 0x90
 8004422:	0799      	lsls	r1, r3, #30
 8004424:	d5c4      	bpl.n	80043b0 <HAL_RCC_OscConfig+0x204>
        if((HAL_GetTick() - tickstart) > RCC_LSE_TIMEOUT_VALUE)
 8004426:	f7fe fa97 	bl	8002958 <HAL_GetTick>
 800442a:	1b80      	subs	r0, r0, r6
 800442c:	4540      	cmp	r0, r8
 800442e:	d9f6      	bls.n	800441e <HAL_RCC_OscConfig+0x272>
 8004430:	e703      	b.n	800423a <HAL_RCC_OscConfig+0x8e>
        if((HAL_GetTick() - tickstart) > RCC_LSE_TIMEOUT_VALUE)
 8004432:	f7fe fa91 	bl	8002958 <HAL_GetTick>
 8004436:	1b80      	subs	r0, r0, r6
 8004438:	4540      	cmp	r0, r8
 800443a:	d9b5      	bls.n	80043a8 <HAL_RCC_OscConfig+0x1fc>
 800443c:	e6fd      	b.n	800423a <HAL_RCC_OscConfig+0x8e>
    if(RCC_OscInitStruct->HSI48State != RCC_HSI48_OFF)
 800443e:	69a3      	ldr	r3, [r4, #24]
 8004440:	4d0a      	ldr	r5, [pc, #40]	@ (800446c <HAL_RCC_OscConfig+0x2c0>)
 8004442:	b1cb      	cbz	r3, 8004478 <HAL_RCC_OscConfig+0x2cc>
      __HAL_RCC_HSI48_ENABLE();
 8004444:	f8d5 3098 	ldr.w	r3, [r5, #152]	@ 0x98
 8004448:	f043 0301 	orr.w	r3, r3, #1
 800444c:	f8c5 3098 	str.w	r3, [r5, #152]	@ 0x98
      tickstart = HAL_GetTick();
 8004450:	f7fe fa82 	bl	8002958 <HAL_GetTick>
 8004454:	4606      	mov	r6, r0
      while(READ_BIT(RCC->CRRCR, RCC_CRRCR_HSI48RDY) == 0U)
 8004456:	f8d5 3098 	ldr.w	r3, [r5, #152]	@ 0x98
 800445a:	079b      	lsls	r3, r3, #30
 800445c:	f53f aec0 	bmi.w	80041e0 <HAL_RCC_OscConfig+0x34>
        if((HAL_GetTick() - tickstart) > HSI48_TIMEOUT_VALUE)
 8004460:	f7fe fa7a 	bl	8002958 <HAL_GetTick>
 8004464:	1b80      	subs	r0, r0, r6
 8004466:	2802      	cmp	r0, #2
 8004468:	d9f5      	bls.n	8004456 <HAL_RCC_OscConfig+0x2aa>
 800446a:	e6e6      	b.n	800423a <HAL_RCC_OscConfig+0x8e>
 800446c:	40021000 	.word	0x40021000
 8004470:	2000004c 	.word	0x2000004c
 8004474:	40007000 	.word	0x40007000
      __HAL_RCC_HSI48_DISABLE();
 8004478:	f8d5 3098 	ldr.w	r3, [r5, #152]	@ 0x98
 800447c:	f023 0301 	bic.w	r3, r3, #1
 8004480:	f8c5 3098 	str.w	r3, [r5, #152]	@ 0x98
      tickstart = HAL_GetTick();
 8004484:	f7fe fa68 	bl	8002958 <HAL_GetTick>
 8004488:	4606      	mov	r6, r0
      while(READ_BIT(RCC->CRRCR, RCC_CRRCR_HSI48RDY) != 0U)
 800448a:	f8d5 3098 	ldr.w	r3, [r5, #152]	@ 0x98
 800448e:	079f      	lsls	r7, r3, #30
 8004490:	f57f aea6 	bpl.w	80041e0 <HAL_RCC_OscConfig+0x34>
        if((HAL_GetTick() - tickstart) > HSI48_TIMEOUT_VALUE)
 8004494:	f7fe fa60 	bl	8002958 <HAL_GetTick>
 8004498:	1b80      	subs	r0, r0, r6
 800449a:	2802      	cmp	r0, #2
 800449c:	d9f5      	bls.n	800448a <HAL_RCC_OscConfig+0x2de>
 800449e:	e6cc      	b.n	800423a <HAL_RCC_OscConfig+0x8e>
    if (__HAL_RCC_GET_SYSCLK_SOURCE() != RCC_CFGR_SWS_PLL)
 80044a0:	4d45      	ldr	r5, [pc, #276]	@ (80045b8 <HAL_RCC_OscConfig+0x40c>)
 80044a2:	68aa      	ldr	r2, [r5, #8]
 80044a4:	f002 020c 	and.w	r2, r2, #12
 80044a8:	2a0c      	cmp	r2, #12
 80044aa:	d051      	beq.n	8004550 <HAL_RCC_OscConfig+0x3a4>
      if (RCC_OscInitStruct->PLL.PLLState == RCC_PLL_ON)
 80044ac:	2b02      	cmp	r3, #2
        __HAL_RCC_PLL_DISABLE();
 80044ae:	682b      	ldr	r3, [r5, #0]
 80044b0:	f023 7380 	bic.w	r3, r3, #16777216	@ 0x1000000
 80044b4:	602b      	str	r3, [r5, #0]
      if (RCC_OscInitStruct->PLL.PLLState == RCC_PLL_ON)
 80044b6:	d13a      	bne.n	800452e <HAL_RCC_OscConfig+0x382>
        tickstart = HAL_GetTick();
 80044b8:	f7fe fa4e 	bl	8002958 <HAL_GetTick>
 80044bc:	4606      	mov	r6, r0
        while (READ_BIT(RCC->CR, RCC_CR_PLLRDY) != 0U)
 80044be:	682b      	ldr	r3, [r5, #0]
 80044c0:	0199      	lsls	r1, r3, #6
 80044c2:	d42e      	bmi.n	8004522 <HAL_RCC_OscConfig+0x376>
        __HAL_RCC_PLL_CONFIG(RCC_OscInitStruct->PLL.PLLSource,
 80044c4:	68ea      	ldr	r2, [r5, #12]
 80044c6:	4b3d      	ldr	r3, [pc, #244]	@ (80045bc <HAL_RCC_OscConfig+0x410>)
 80044c8:	4013      	ands	r3, r2
 80044ca:	6a22      	ldr	r2, [r4, #32]
 80044cc:	4313      	orrs	r3, r2
 80044ce:	6aa2      	ldr	r2, [r4, #40]	@ 0x28
 80044d0:	ea43 2302 	orr.w	r3, r3, r2, lsl #8
 80044d4:	6ae2      	ldr	r2, [r4, #44]	@ 0x2c
 80044d6:	ea43 63c2 	orr.w	r3, r3, r2, lsl #27
 80044da:	6a62      	ldr	r2, [r4, #36]	@ 0x24
 80044dc:	3a01      	subs	r2, #1
 80044de:	ea43 1302 	orr.w	r3, r3, r2, lsl #4
 80044e2:	6b22      	ldr	r2, [r4, #48]	@ 0x30
 80044e4:	0852      	lsrs	r2, r2, #1
 80044e6:	3a01      	subs	r2, #1
 80044e8:	ea43 5342 	orr.w	r3, r3, r2, lsl #21
 80044ec:	6b62      	ldr	r2, [r4, #52]	@ 0x34
 80044ee:	0852      	lsrs	r2, r2, #1
 80044f0:	3a01      	subs	r2, #1
 80044f2:	ea43 6342 	orr.w	r3, r3, r2, lsl #25
 80044f6:	60eb      	str	r3, [r5, #12]
        __HAL_RCC_PLL_ENABLE();
 80044f8:	682b      	ldr	r3, [r5, #0]
 80044fa:	f043 7380 	orr.w	r3, r3, #16777216	@ 0x1000000
 80044fe:	602b      	str	r3, [r5, #0]
         __HAL_RCC_PLLCLKOUT_ENABLE(RCC_PLL_SYSCLK);
 8004500:	68eb      	ldr	r3, [r5, #12]
 8004502:	f043 7380 	orr.w	r3, r3, #16777216	@ 0x1000000
 8004506:	60eb      	str	r3, [r5, #12]
        tickstart = HAL_GetTick();
 8004508:	f7fe fa26 	bl	8002958 <HAL_GetTick>
 800450c:	4604      	mov	r4, r0
        while (READ_BIT(RCC->CR, RCC_CR_PLLRDY) == 0U)
 800450e:	682b      	ldr	r3, [r5, #0]
 8004510:	019a      	lsls	r2, r3, #6
 8004512:	f53f ae69 	bmi.w	80041e8 <HAL_RCC_OscConfig+0x3c>
          if ((HAL_GetTick() - tickstart) > PLL_TIMEOUT_VALUE)
 8004516:	f7fe fa1f 	bl	8002958 <HAL_GetTick>
 800451a:	1b00      	subs	r0, r0, r4
 800451c:	2802      	cmp	r0, #2
 800451e:	d9f6      	bls.n	800450e <HAL_RCC_OscConfig+0x362>
 8004520:	e68b      	b.n	800423a <HAL_RCC_OscConfig+0x8e>
          if ((HAL_GetTick() - tickstart) > PLL_TIMEOUT_VALUE)
 8004522:	f7fe fa19 	bl	8002958 <HAL_GetTick>
 8004526:	1b80      	subs	r0, r0, r6
 8004528:	2802      	cmp	r0, #2
 800452a:	d9c8      	bls.n	80044be <HAL_RCC_OscConfig+0x312>
 800452c:	e685      	b.n	800423a <HAL_RCC_OscConfig+0x8e>
        tickstart = HAL_GetTick();
 800452e:	f7fe fa13 	bl	8002958 <HAL_GetTick>
 8004532:	4604      	mov	r4, r0
        while (READ_BIT(RCC->CR, RCC_CR_PLLRDY) != 0U)
 8004534:	682b      	ldr	r3, [r5, #0]
 8004536:	019b      	lsls	r3, r3, #6
 8004538:	d404      	bmi.n	8004544 <HAL_RCC_OscConfig+0x398>
        RCC->PLLCFGR &= ~(RCC_PLLCFGR_PLLSRC | RCC_PLL_SYSCLK | RCC_PLL_48M1CLK | RCC_PLL_ADCCLK);
 800453a:	68ea      	ldr	r2, [r5, #12]
 800453c:	4b20      	ldr	r3, [pc, #128]	@ (80045c0 <HAL_RCC_OscConfig+0x414>)
 800453e:	4013      	ands	r3, r2
 8004540:	60eb      	str	r3, [r5, #12]
 8004542:	e651      	b.n	80041e8 <HAL_RCC_OscConfig+0x3c>
          if ((HAL_GetTick() - tickstart) > PLL_TIMEOUT_VALUE)
 8004544:	f7fe fa08 	bl	8002958 <HAL_GetTick>
 8004548:	1b00      	subs	r0, r0, r4
 800454a:	2802      	cmp	r0, #2
 800454c:	d9f2      	bls.n	8004534 <HAL_RCC_OscConfig+0x388>
 800454e:	e674      	b.n	800423a <HAL_RCC_OscConfig+0x8e>
      if((RCC_OscInitStruct->PLL.PLLState) == RCC_PLL_OFF)
 8004550:	2b01      	cmp	r3, #1
 8004552:	f43f ae2f 	beq.w	80041b4 <HAL_RCC_OscConfig+0x8>
      temp_pllckcfg = RCC->PLLCFGR;
 8004556:	68eb      	ldr	r3, [r5, #12]
      if((READ_BIT(temp_pllckcfg, RCC_PLLCFGR_PLLSRC) != RCC_OscInitStruct->PLL.PLLSource) ||
 8004558:	6a22      	ldr	r2, [r4, #32]
 800455a:	f003 0103 	and.w	r1, r3, #3
 800455e:	4291      	cmp	r1, r2
 8004560:	f47f ae28 	bne.w	80041b4 <HAL_RCC_OscConfig+0x8>
         (READ_BIT(temp_pllckcfg, RCC_PLLCFGR_PLLM) != (((RCC_OscInitStruct->PLL.PLLM) - 1U) << RCC_PLLCFGR_PLLM_Pos)) ||
 8004564:	6a61      	ldr	r1, [r4, #36]	@ 0x24
 8004566:	f003 02f0 	and.w	r2, r3, #240	@ 0xf0
 800456a:	3901      	subs	r1, #1
      if((READ_BIT(temp_pllckcfg, RCC_PLLCFGR_PLLSRC) != RCC_OscInitStruct->PLL.PLLSource) ||
 800456c:	ebb2 1f01 	cmp.w	r2, r1, lsl #4
 8004570:	f47f ae20 	bne.w	80041b4 <HAL_RCC_OscConfig+0x8>
         (READ_BIT(temp_pllckcfg, RCC_PLLCFGR_PLLN) != ((RCC_OscInitStruct->PLL.PLLN) << RCC_PLLCFGR_PLLN_Pos)) ||
 8004574:	6aa1      	ldr	r1, [r4, #40]	@ 0x28
 8004576:	f403 42fe 	and.w	r2, r3, #32512	@ 0x7f00
         (READ_BIT(temp_pllckcfg, RCC_PLLCFGR_PLLM) != (((RCC_OscInitStruct->PLL.PLLM) - 1U) << RCC_PLLCFGR_PLLM_Pos)) ||
 800457a:	ebb2 2f01 	cmp.w	r2, r1, lsl #8
 800457e:	f47f ae19 	bne.w	80041b4 <HAL_RCC_OscConfig+0x8>
         (READ_BIT(temp_pllckcfg, RCC_PLLCFGR_PLLPDIV) != ((RCC_OscInitStruct->PLL.PLLP) << RCC_PLLCFGR_PLLPDIV_Pos)) ||
 8004582:	6ae1      	ldr	r1, [r4, #44]	@ 0x2c
 8004584:	f003 4278 	and.w	r2, r3, #4160749568	@ 0xf8000000
         (READ_BIT(temp_pllckcfg, RCC_PLLCFGR_PLLN) != ((RCC_OscInitStruct->PLL.PLLN) << RCC_PLLCFGR_PLLN_Pos)) ||
 8004588:	ebb2 6fc1 	cmp.w	r2, r1, lsl #27
 800458c:	f47f ae12 	bne.w	80041b4 <HAL_RCC_OscConfig+0x8>
         (READ_BIT(temp_pllckcfg, RCC_PLLCFGR_PLLQ) != ((((RCC_OscInitStruct->PLL.PLLQ) >> 1U) - 1U) << RCC_PLLCFGR_PLLQ_Pos)) ||
 8004590:	6b22      	ldr	r2, [r4, #48]	@ 0x30
 8004592:	0852      	lsrs	r2, r2, #1
 8004594:	f403 01c0 	and.w	r1, r3, #6291456	@ 0x600000
 8004598:	3a01      	subs	r2, #1
         (READ_BIT(temp_pllckcfg, RCC_PLLCFGR_PLLPDIV) != ((RCC_OscInitStruct->PLL.PLLP) << RCC_PLLCFGR_PLLPDIV_Pos)) ||
 800459a:	ebb1 5f42 	cmp.w	r1, r2, lsl #21
 800459e:	f47f ae09 	bne.w	80041b4 <HAL_RCC_OscConfig+0x8>
         (READ_BIT(temp_pllckcfg, RCC_PLLCFGR_PLLR) != ((((RCC_OscInitStruct->PLL.PLLR) >> 1U) - 1U) << RCC_PLLCFGR_PLLR_Pos)))
 80045a2:	6b62      	ldr	r2, [r4, #52]	@ 0x34
 80045a4:	0852      	lsrs	r2, r2, #1
 80045a6:	3a01      	subs	r2, #1
 80045a8:	f003 63c0 	and.w	r3, r3, #100663296	@ 0x6000000
         (READ_BIT(temp_pllckcfg, RCC_PLLCFGR_PLLQ) != ((((RCC_OscInitStruct->PLL.PLLQ) >> 1U) - 1U) << RCC_PLLCFGR_PLLQ_Pos)) ||
 80045ac:	ebb3 6f42 	cmp.w	r3, r2, lsl #25
 80045b0:	bf14      	ite	ne
 80045b2:	2001      	movne	r0, #1
 80045b4:	2000      	moveq	r0, #0
 80045b6:	e5fe      	b.n	80041b6 <HAL_RCC_OscConfig+0xa>
 80045b8:	40021000 	.word	0x40021000
 80045bc:	019f800c 	.word	0x019f800c
 80045c0:	feeefffc 	.word	0xfeeefffc

080045c4 <HAL_RCC_GetSysClockFreq>:
uint32_t HAL_RCC_GetSysClockFreq(void)
{
  uint32_t pllvco, pllsource, pllr, pllm;
  uint32_t sysclockfreq;

  if (__HAL_RCC_GET_SYSCLK_SOURCE() == RCC_CFGR_SWS_HSI)
 80045c4:	4b13      	ldr	r3, [pc, #76]	@ (8004614 <HAL_RCC_GetSysClockFreq+0x50>)
 80045c6:	689a      	ldr	r2, [r3, #8]
 80045c8:	f002 020c 	and.w	r2, r2, #12
 80045cc:	2a04      	cmp	r2, #4
 80045ce:	d01d      	beq.n	800460c <HAL_RCC_GetSysClockFreq+0x48>
  {
    /* HSI used as system clock source */
    sysclockfreq = HSI_VALUE;
  }
  else if (__HAL_RCC_GET_SYSCLK_SOURCE() == RCC_CFGR_SWS_HSE)
 80045d0:	689a      	ldr	r2, [r3, #8]
 80045d2:	f002 020c 	and.w	r2, r2, #12
 80045d6:	2a08      	cmp	r2, #8
 80045d8:	d018      	beq.n	800460c <HAL_RCC_GetSysClockFreq+0x48>
  {
    /* HSE used as system clock source */
    sysclockfreq = HSE_VALUE;
  }
  else if (__HAL_RCC_GET_SYSCLK_SOURCE() == RCC_CFGR_SWS_PLL)
 80045da:	689a      	ldr	r2, [r3, #8]
 80045dc:	f002 020c 	and.w	r2, r2, #12
 80045e0:	2a0c      	cmp	r2, #12
 80045e2:	d115      	bne.n	8004610 <HAL_RCC_GetSysClockFreq+0x4c>
    /* PLL used as system clock  source */

    /* PLL_VCO = ((HSE_VALUE or HSI_VALUE)/ PLLM) * PLLN
    SYSCLK = PLL_VCO / PLLR
    */
    pllsource = READ_BIT(RCC->PLLCFGR, RCC_PLLCFGR_PLLSRC);
 80045e4:	68da      	ldr	r2, [r3, #12]
    pllm = (READ_BIT(RCC->PLLCFGR, RCC_PLLCFGR_PLLM) >> RCC_PLLCFGR_PLLM_Pos) + 1U ;
 80045e6:	68d9      	ldr	r1, [r3, #12]
      pllvco = (HSE_VALUE / pllm) * (READ_BIT(RCC->PLLCFGR, RCC_PLLCFGR_PLLN) >> RCC_PLLCFGR_PLLN_Pos);
      break;

    case RCC_PLLSOURCE_HSI:  /* HSI used as PLL clock source */
    default:
      pllvco = (HSI_VALUE / pllm) * (READ_BIT(RCC->PLLCFGR, RCC_PLLCFGR_PLLN) >> RCC_PLLCFGR_PLLN_Pos);
 80045e8:	68d8      	ldr	r0, [r3, #12]
      break;
    }
    pllr = ((READ_BIT(RCC->PLLCFGR, RCC_PLLCFGR_PLLR) >> RCC_PLLCFGR_PLLR_Pos) + 1U ) * 2U;
 80045ea:	68db      	ldr	r3, [r3, #12]
 80045ec:	4a0a      	ldr	r2, [pc, #40]	@ (8004618 <HAL_RCC_GetSysClockFreq+0x54>)
 80045ee:	f3c3 6341 	ubfx	r3, r3, #25, #2
    pllm = (READ_BIT(RCC->PLLCFGR, RCC_PLLCFGR_PLLM) >> RCC_PLLCFGR_PLLM_Pos) + 1U ;
 80045f2:	f3c1 1103 	ubfx	r1, r1, #4, #4
      pllvco = (HSI_VALUE / pllm) * (READ_BIT(RCC->PLLCFGR, RCC_PLLCFGR_PLLN) >> RCC_PLLCFGR_PLLN_Pos);
 80045f6:	f3c0 2006 	ubfx	r0, r0, #8, #7
    pllr = ((READ_BIT(RCC->PLLCFGR, RCC_PLLCFGR_PLLR) >> RCC_PLLCFGR_PLLR_Pos) + 1U ) * 2U;
 80045fa:	3301      	adds	r3, #1
    pllm = (READ_BIT(RCC->PLLCFGR, RCC_PLLCFGR_PLLM) >> RCC_PLLCFGR_PLLM_Pos) + 1U ;
 80045fc:	3101      	adds	r1, #1
    pllr = ((READ_BIT(RCC->PLLCFGR, RCC_PLLCFGR_PLLR) >> RCC_PLLCFGR_PLLR_Pos) + 1U ) * 2U;
 80045fe:	005b      	lsls	r3, r3, #1
      pllvco = (HSI_VALUE / pllm) * (READ_BIT(RCC->PLLCFGR, RCC_PLLCFGR_PLLN) >> RCC_PLLCFGR_PLLN_Pos);
 8004600:	fbb2 f2f1 	udiv	r2, r2, r1
 8004604:	4350      	muls	r0, r2
    sysclockfreq = pllvco/pllr;
 8004606:	fbb0 f0f3 	udiv	r0, r0, r3
  else
  {
    sysclockfreq = 0U;
  }

  return sysclockfreq;
 800460a:	4770      	bx	lr
    sysclockfreq = HSI_VALUE;
 800460c:	4802      	ldr	r0, [pc, #8]	@ (8004618 <HAL_RCC_GetSysClockFreq+0x54>)
 800460e:	4770      	bx	lr
    sysclockfreq = 0U;
 8004610:	2000      	movs	r0, #0
}
 8004612:	4770      	bx	lr
 8004614:	40021000 	.word	0x40021000
 8004618:	00f42400 	.word	0x00f42400

0800461c <HAL_RCC_ClockConfig>:
{
 800461c:	e92d 43f8 	stmdb	sp!, {r3, r4, r5, r6, r7, r8, r9, lr}
 8004620:	460e      	mov	r6, r1
  if (RCC_ClkInitStruct == NULL)
 8004622:	4605      	mov	r5, r0
 8004624:	b910      	cbnz	r0, 800462c <HAL_RCC_ClockConfig+0x10>
    return HAL_ERROR;
 8004626:	2001      	movs	r0, #1
}
 8004628:	e8bd 83f8 	ldmia.w	sp!, {r3, r4, r5, r6, r7, r8, r9, pc}
  if (FLatency > __HAL_FLASH_GET_LATENCY())
 800462c:	4a6a      	ldr	r2, [pc, #424]	@ (80047d8 <HAL_RCC_ClockConfig+0x1bc>)
 800462e:	6813      	ldr	r3, [r2, #0]
 8004630:	f003 030f 	and.w	r3, r3, #15
 8004634:	428b      	cmp	r3, r1
 8004636:	d345      	bcc.n	80046c4 <HAL_RCC_ClockConfig+0xa8>
  if(((RCC_ClkInitStruct->ClockType) & RCC_CLOCKTYPE_SYSCLK) == RCC_CLOCKTYPE_SYSCLK)
 8004638:	6829      	ldr	r1, [r5, #0]
 800463a:	f011 0801 	ands.w	r8, r1, #1
 800463e:	d14c      	bne.n	80046da <HAL_RCC_ClockConfig+0xbe>
  if (((RCC_ClkInitStruct->ClockType) & RCC_CLOCKTYPE_HCLK) == RCC_CLOCKTYPE_HCLK)
 8004640:	682a      	ldr	r2, [r5, #0]
 8004642:	0791      	lsls	r1, r2, #30
 8004644:	f140 80a1 	bpl.w	800478a <HAL_RCC_ClockConfig+0x16e>
    if (((RCC_ClkInitStruct->ClockType) & RCC_CLOCKTYPE_PCLK1) == RCC_CLOCKTYPE_PCLK1)
 8004648:	4b64      	ldr	r3, [pc, #400]	@ (80047dc <HAL_RCC_ClockConfig+0x1c0>)
 800464a:	f012 0f04 	tst.w	r2, #4
      MODIFY_REG(RCC->CFGR, RCC_CFGR_PPRE1, RCC_HCLK_DIV16);
 800464e:	bf1e      	ittt	ne
 8004650:	6899      	ldrne	r1, [r3, #8]
 8004652:	f441 61e0 	orrne.w	r1, r1, #1792	@ 0x700
 8004656:	6099      	strne	r1, [r3, #8]
    if (((RCC_ClkInitStruct->ClockType) & RCC_CLOCKTYPE_PCLK2) == RCC_CLOCKTYPE_PCLK2)
 8004658:	0712      	lsls	r2, r2, #28
      MODIFY_REG(RCC->CFGR, RCC_CFGR_PPRE2, RCC_HCLK_DIV16);
 800465a:	bf41      	itttt	mi
 800465c:	689a      	ldrmi	r2, [r3, #8]
 800465e:	f422 527c 	bicmi.w	r2, r2, #16128	@ 0x3f00
 8004662:	f442 62e0 	orrmi.w	r2, r2, #1792	@ 0x700
 8004666:	609a      	strmi	r2, [r3, #8]
    MODIFY_REG(RCC->CFGR, RCC_CFGR_HPRE, RCC_ClkInitStruct->AHBCLKDivider);
 8004668:	689a      	ldr	r2, [r3, #8]
 800466a:	68a9      	ldr	r1, [r5, #8]
 800466c:	f022 02f0 	bic.w	r2, r2, #240	@ 0xf0
 8004670:	430a      	orrs	r2, r1
 8004672:	609a      	str	r2, [r3, #8]
  if (FLatency < __HAL_FLASH_GET_LATENCY())
 8004674:	4c58      	ldr	r4, [pc, #352]	@ (80047d8 <HAL_RCC_ClockConfig+0x1bc>)
 8004676:	6823      	ldr	r3, [r4, #0]
 8004678:	f003 030f 	and.w	r3, r3, #15
 800467c:	42b3      	cmp	r3, r6
 800467e:	f200 808d 	bhi.w	800479c <HAL_RCC_ClockConfig+0x180>
  if (((RCC_ClkInitStruct->ClockType) & RCC_CLOCKTYPE_PCLK1) == RCC_CLOCKTYPE_PCLK1)
 8004682:	682a      	ldr	r2, [r5, #0]
 8004684:	4c55      	ldr	r4, [pc, #340]	@ (80047dc <HAL_RCC_ClockConfig+0x1c0>)
 8004686:	f012 0f04 	tst.w	r2, #4
 800468a:	f040 809d 	bne.w	80047c8 <HAL_RCC_ClockConfig+0x1ac>
  if(((RCC_ClkInitStruct->ClockType) & RCC_CLOCKTYPE_PCLK2) == RCC_CLOCKTYPE_PCLK2)
 800468e:	0713      	lsls	r3, r2, #28
 8004690:	d506      	bpl.n	80046a0 <HAL_RCC_ClockConfig+0x84>
    MODIFY_REG(RCC->CFGR, RCC_CFGR_PPRE2, ((RCC_ClkInitStruct->APB2CLKDivider) << 3U));
 8004692:	68a3      	ldr	r3, [r4, #8]
 8004694:	692a      	ldr	r2, [r5, #16]
 8004696:	f423 5360 	bic.w	r3, r3, #14336	@ 0x3800
 800469a:	ea43 03c2 	orr.w	r3, r3, r2, lsl #3
 800469e:	60a3      	str	r3, [r4, #8]
  SystemCoreClock = HAL_RCC_GetSysClockFreq() >> (AHBPrescTable[READ_BIT(RCC->CFGR, RCC_CFGR_HPRE) >> RCC_CFGR_HPRE_Pos] & 0x1FU);
 80046a0:	f7ff ff90 	bl	80045c4 <HAL_RCC_GetSysClockFreq>
 80046a4:	68a3      	ldr	r3, [r4, #8]
 80046a6:	4a4e      	ldr	r2, [pc, #312]	@ (80047e0 <HAL_RCC_ClockConfig+0x1c4>)
 80046a8:	f3c3 1303 	ubfx	r3, r3, #4, #4
 80046ac:	5cd3      	ldrb	r3, [r2, r3]
 80046ae:	f003 031f 	and.w	r3, r3, #31
 80046b2:	40d8      	lsrs	r0, r3
 80046b4:	4b4b      	ldr	r3, [pc, #300]	@ (80047e4 <HAL_RCC_ClockConfig+0x1c8>)
 80046b6:	6018      	str	r0, [r3, #0]
  return HAL_InitTick(uwTickPrio);
 80046b8:	4b4b      	ldr	r3, [pc, #300]	@ (80047e8 <HAL_RCC_ClockConfig+0x1cc>)
 80046ba:	6818      	ldr	r0, [r3, #0]
}
 80046bc:	e8bd 43f8 	ldmia.w	sp!, {r3, r4, r5, r6, r7, r8, r9, lr}
  return HAL_InitTick(uwTickPrio);
 80046c0:	f7fe b908 	b.w	80028d4 <HAL_InitTick>
    __HAL_FLASH_SET_LATENCY(FLatency);
 80046c4:	6813      	ldr	r3, [r2, #0]
 80046c6:	f023 030f 	bic.w	r3, r3, #15
 80046ca:	430b      	orrs	r3, r1
 80046cc:	6013      	str	r3, [r2, #0]
    if (__HAL_FLASH_GET_LATENCY() != FLatency)
 80046ce:	6813      	ldr	r3, [r2, #0]
 80046d0:	f003 030f 	and.w	r3, r3, #15
 80046d4:	428b      	cmp	r3, r1
 80046d6:	d1a6      	bne.n	8004626 <HAL_RCC_ClockConfig+0xa>
 80046d8:	e7ae      	b.n	8004638 <HAL_RCC_ClockConfig+0x1c>
    if (RCC_ClkInitStruct->SYSCLKSource == RCC_SYSCLKSOURCE_PLLCLK)
 80046da:	686f      	ldr	r7, [r5, #4]
 80046dc:	4c3f      	ldr	r4, [pc, #252]	@ (80047dc <HAL_RCC_ClockConfig+0x1c0>)
 80046de:	2f03      	cmp	r7, #3
      if (READ_BIT(RCC->CR, RCC_CR_PLLRDY) == 0U)
 80046e0:	6823      	ldr	r3, [r4, #0]
    if (RCC_ClkInitStruct->SYSCLKSource == RCC_SYSCLKSOURCE_PLLCLK)
 80046e2:	d143      	bne.n	800476c <HAL_RCC_ClockConfig+0x150>
      if (READ_BIT(RCC->CR, RCC_CR_PLLRDY) == 0U)
 80046e4:	019b      	lsls	r3, r3, #6
 80046e6:	d59e      	bpl.n	8004626 <HAL_RCC_ClockConfig+0xa>
  uint32_t sysclockfreq;

  /* PLL_VCO = (HSE_VALUE or HSI_VALUE/ PLLM) * PLLN
     SYSCLK = PLL_VCO / PLLR
   */
  pllsource = READ_BIT(RCC->PLLCFGR, RCC_PLLCFGR_PLLSRC);
 80046e8:	68e3      	ldr	r3, [r4, #12]
  pllm = (READ_BIT(RCC->PLLCFGR, RCC_PLLCFGR_PLLM) >> RCC_PLLCFGR_PLLM_Pos) + 1U ;
 80046ea:	68e0      	ldr	r0, [r4, #12]
    pllvco = (HSE_VALUE / pllm) * (READ_BIT(RCC->PLLCFGR, RCC_PLLCFGR_PLLN) >> RCC_PLLCFGR_PLLN_Pos);
    break;

  case RCC_PLLSOURCE_HSI:  /* HSI used as PLL clock source */
  default:
    pllvco = (HSI_VALUE / pllm) * (READ_BIT(RCC->PLLCFGR, RCC_PLLCFGR_PLLN) >> RCC_PLLCFGR_PLLN_Pos);
 80046ec:	68e3      	ldr	r3, [r4, #12]
 80046ee:	4a3f      	ldr	r2, [pc, #252]	@ (80047ec <HAL_RCC_ClockConfig+0x1d0>)
  pllm = (READ_BIT(RCC->PLLCFGR, RCC_PLLCFGR_PLLM) >> RCC_PLLCFGR_PLLM_Pos) + 1U ;
 80046f0:	f3c0 1003 	ubfx	r0, r0, #4, #4
    pllvco = (HSI_VALUE / pllm) * (READ_BIT(RCC->PLLCFGR, RCC_PLLCFGR_PLLN) >> RCC_PLLCFGR_PLLN_Pos);
 80046f4:	f3c3 2306 	ubfx	r3, r3, #8, #7
  pllm = (READ_BIT(RCC->PLLCFGR, RCC_PLLCFGR_PLLM) >> RCC_PLLCFGR_PLLM_Pos) + 1U ;
 80046f8:	3001      	adds	r0, #1
    pllvco = (HSI_VALUE / pllm) * (READ_BIT(RCC->PLLCFGR, RCC_PLLCFGR_PLLN) >> RCC_PLLCFGR_PLLN_Pos);
 80046fa:	fbb2 f2f0 	udiv	r2, r2, r0
 80046fe:	4353      	muls	r3, r2
    break;
  }

  pllr = ((READ_BIT(RCC->PLLCFGR, RCC_PLLCFGR_PLLR) >> RCC_PLLCFGR_PLLR_Pos) + 1U ) * 2U;
 8004700:	68e2      	ldr	r2, [r4, #12]
 8004702:	f3c2 6241 	ubfx	r2, r2, #25, #2
 8004706:	3201      	adds	r2, #1
 8004708:	0052      	lsls	r2, r2, #1
  sysclockfreq = pllvco/pllr;
 800470a:	fbb3 f3f2 	udiv	r3, r3, r2
      if(pllfreq > 80000000U)
 800470e:	4a38      	ldr	r2, [pc, #224]	@ (80047f0 <HAL_RCC_ClockConfig+0x1d4>)
 8004710:	4293      	cmp	r3, r2
 8004712:	d819      	bhi.n	8004748 <HAL_RCC_ClockConfig+0x12c>
  uint32_t hpre = RCC_SYSCLK_DIV1;
 8004714:	f04f 0800 	mov.w	r8, #0
    MODIFY_REG(RCC->CFGR, RCC_CFGR_SW, RCC_ClkInitStruct->SYSCLKSource);
 8004718:	68a3      	ldr	r3, [r4, #8]
 800471a:	f023 0303 	bic.w	r3, r3, #3
 800471e:	433b      	orrs	r3, r7
 8004720:	60a3      	str	r3, [r4, #8]
    tickstart = HAL_GetTick();
 8004722:	f7fe f919 	bl	8002958 <HAL_GetTick>
      if ((HAL_GetTick() - tickstart) > CLOCKSWITCH_TIMEOUT_VALUE)
 8004726:	f241 3988 	movw	r9, #5000	@ 0x1388
    tickstart = HAL_GetTick();
 800472a:	4607      	mov	r7, r0
    while (__HAL_RCC_GET_SYSCLK_SOURCE() != (RCC_ClkInitStruct->SYSCLKSource << RCC_CFGR_SWS_Pos))
 800472c:	68a3      	ldr	r3, [r4, #8]
 800472e:	686a      	ldr	r2, [r5, #4]
 8004730:	f003 030c 	and.w	r3, r3, #12
 8004734:	ebb3 0f82 	cmp.w	r3, r2, lsl #2
 8004738:	d082      	beq.n	8004640 <HAL_RCC_ClockConfig+0x24>
      if ((HAL_GetTick() - tickstart) > CLOCKSWITCH_TIMEOUT_VALUE)
 800473a:	f7fe f90d 	bl	8002958 <HAL_GetTick>
 800473e:	1bc0      	subs	r0, r0, r7
 8004740:	4548      	cmp	r0, r9
 8004742:	d9f3      	bls.n	800472c <HAL_RCC_ClockConfig+0x110>
        return HAL_TIMEOUT;
 8004744:	2003      	movs	r0, #3
 8004746:	e76f      	b.n	8004628 <HAL_RCC_ClockConfig+0xc>
        if (((READ_BIT(RCC->CFGR, RCC_CFGR_HPRE) == RCC_SYSCLK_DIV1)) ||
 8004748:	68a3      	ldr	r3, [r4, #8]
 800474a:	f013 0ff0 	tst.w	r3, #240	@ 0xf0
 800474e:	d004      	beq.n	800475a <HAL_RCC_ClockConfig+0x13e>
 8004750:	0788      	lsls	r0, r1, #30
 8004752:	d5df      	bpl.n	8004714 <HAL_RCC_ClockConfig+0xf8>
            (((((RCC_ClkInitStruct->ClockType) & RCC_CLOCKTYPE_HCLK) == RCC_CLOCKTYPE_HCLK) &&
 8004754:	68ab      	ldr	r3, [r5, #8]
 8004756:	2b00      	cmp	r3, #0
 8004758:	d1dc      	bne.n	8004714 <HAL_RCC_ClockConfig+0xf8>
          MODIFY_REG(RCC->CFGR, RCC_CFGR_HPRE, RCC_SYSCLK_DIV2);
 800475a:	68a3      	ldr	r3, [r4, #8]
 800475c:	f023 03f0 	bic.w	r3, r3, #240	@ 0xf0
 8004760:	f043 0380 	orr.w	r3, r3, #128	@ 0x80
 8004764:	60a3      	str	r3, [r4, #8]
        hpre = RCC_SYSCLK_DIV2;
 8004766:	f04f 0880 	mov.w	r8, #128	@ 0x80
 800476a:	e7d5      	b.n	8004718 <HAL_RCC_ClockConfig+0xfc>
      if (RCC_ClkInitStruct->SYSCLKSource == RCC_SYSCLKSOURCE_HSE)
 800476c:	2f02      	cmp	r7, #2
 800476e:	d109      	bne.n	8004784 <HAL_RCC_ClockConfig+0x168>
        if(READ_BIT(RCC->CR, RCC_CR_HSERDY) == 0U)
 8004770:	f413 3f00 	tst.w	r3, #131072	@ 0x20000
        if(READ_BIT(RCC->CR, RCC_CR_HSIRDY) == 0U)
 8004774:	f43f af57 	beq.w	8004626 <HAL_RCC_ClockConfig+0xa>
      pllfreq = HAL_RCC_GetSysClockFreq();
 8004778:	f7ff ff24 	bl	80045c4 <HAL_RCC_GetSysClockFreq>
      if(pllfreq > 80000000U)
 800477c:	4b1c      	ldr	r3, [pc, #112]	@ (80047f0 <HAL_RCC_ClockConfig+0x1d4>)
 800477e:	4298      	cmp	r0, r3
 8004780:	d9c8      	bls.n	8004714 <HAL_RCC_ClockConfig+0xf8>
 8004782:	e7ea      	b.n	800475a <HAL_RCC_ClockConfig+0x13e>
        if(READ_BIT(RCC->CR, RCC_CR_HSIRDY) == 0U)
 8004784:	f413 6f80 	tst.w	r3, #1024	@ 0x400
 8004788:	e7f4      	b.n	8004774 <HAL_RCC_ClockConfig+0x158>
    if(hpre == RCC_SYSCLK_DIV2)
 800478a:	f1b8 0f80 	cmp.w	r8, #128	@ 0x80
      MODIFY_REG(RCC->CFGR, RCC_CFGR_HPRE, RCC_SYSCLK_DIV1);
 800478e:	bf01      	itttt	eq
 8004790:	4a12      	ldreq	r2, [pc, #72]	@ (80047dc <HAL_RCC_ClockConfig+0x1c0>)
 8004792:	6893      	ldreq	r3, [r2, #8]
 8004794:	f023 03f0 	biceq.w	r3, r3, #240	@ 0xf0
 8004798:	6093      	streq	r3, [r2, #8]
 800479a:	e76b      	b.n	8004674 <HAL_RCC_ClockConfig+0x58>
    __HAL_FLASH_SET_LATENCY(FLatency);
 800479c:	6823      	ldr	r3, [r4, #0]
 800479e:	f023 030f 	bic.w	r3, r3, #15
 80047a2:	4333      	orrs	r3, r6
 80047a4:	6023      	str	r3, [r4, #0]
    tickstart = HAL_GetTick();
 80047a6:	f7fe f8d7 	bl	8002958 <HAL_GetTick>
      if ((HAL_GetTick() - tickstart) > CLOCKSWITCH_TIMEOUT_VALUE)
 80047aa:	f241 3888 	movw	r8, #5000	@ 0x1388
    tickstart = HAL_GetTick();
 80047ae:	4607      	mov	r7, r0
    while (__HAL_FLASH_GET_LATENCY() != FLatency)
 80047b0:	6823      	ldr	r3, [r4, #0]
 80047b2:	f003 030f 	and.w	r3, r3, #15
 80047b6:	42b3      	cmp	r3, r6
 80047b8:	f43f af63 	beq.w	8004682 <HAL_RCC_ClockConfig+0x66>
      if ((HAL_GetTick() - tickstart) > CLOCKSWITCH_TIMEOUT_VALUE)
 80047bc:	f7fe f8cc 	bl	8002958 <HAL_GetTick>
 80047c0:	1bc0      	subs	r0, r0, r7
 80047c2:	4540      	cmp	r0, r8
 80047c4:	d9f4      	bls.n	80047b0 <HAL_RCC_ClockConfig+0x194>
 80047c6:	e7bd      	b.n	8004744 <HAL_RCC_ClockConfig+0x128>
    MODIFY_REG(RCC->CFGR, RCC_CFGR_PPRE1, RCC_ClkInitStruct->APB1CLKDivider);
 80047c8:	68a3      	ldr	r3, [r4, #8]
 80047ca:	68e9      	ldr	r1, [r5, #12]
 80047cc:	f423 63e0 	bic.w	r3, r3, #1792	@ 0x700
 80047d0:	430b      	orrs	r3, r1
 80047d2:	60a3      	str	r3, [r4, #8]
 80047d4:	e75b      	b.n	800468e <HAL_RCC_ClockConfig+0x72>
 80047d6:	bf00      	nop
 80047d8:	40022000 	.word	0x40022000
 80047dc:	40021000 	.word	0x40021000
 80047e0:	0800a2a0 	.word	0x0800a2a0
 80047e4:	20000044 	.word	0x20000044
 80047e8:	2000004c 	.word	0x2000004c
 80047ec:	00f42400 	.word	0x00f42400
 80047f0:	04c4b400 	.word	0x04c4b400

080047f4 <HAL_RCC_GetPCLK1Freq>:
  return (HAL_RCC_GetHCLKFreq() >> (APBPrescTable[READ_BIT(RCC->CFGR, RCC_CFGR_PPRE1) >> RCC_CFGR_PPRE1_Pos] & 0x1FU));
 80047f4:	4b05      	ldr	r3, [pc, #20]	@ (800480c <HAL_RCC_GetPCLK1Freq+0x18>)
 80047f6:	4a06      	ldr	r2, [pc, #24]	@ (8004810 <HAL_RCC_GetPCLK1Freq+0x1c>)
 80047f8:	689b      	ldr	r3, [r3, #8]
 80047fa:	f3c3 2302 	ubfx	r3, r3, #8, #3
 80047fe:	5cd3      	ldrb	r3, [r2, r3]
 8004800:	4a04      	ldr	r2, [pc, #16]	@ (8004814 <HAL_RCC_GetPCLK1Freq+0x20>)
 8004802:	6810      	ldr	r0, [r2, #0]
 8004804:	f003 031f 	and.w	r3, r3, #31
}
 8004808:	40d8      	lsrs	r0, r3
 800480a:	4770      	bx	lr
 800480c:	40021000 	.word	0x40021000
 8004810:	0800a298 	.word	0x0800a298
 8004814:	20000044 	.word	0x20000044

08004818 <HAL_RCC_GetPCLK2Freq>:
  return (HAL_RCC_GetHCLKFreq()>> (APBPrescTable[READ_BIT(RCC->CFGR, RCC_CFGR_PPRE2) >> RCC_CFGR_PPRE2_Pos] & 0x1FU));
 8004818:	4b05      	ldr	r3, [pc, #20]	@ (8004830 <HAL_RCC_GetPCLK2Freq+0x18>)
 800481a:	4a06      	ldr	r2, [pc, #24]	@ (8004834 <HAL_RCC_GetPCLK2Freq+0x1c>)
 800481c:	689b      	ldr	r3, [r3, #8]
 800481e:	f3c3 23c2 	ubfx	r3, r3, #11, #3
 8004822:	5cd3      	ldrb	r3, [r2, r3]
 8004824:	4a04      	ldr	r2, [pc, #16]	@ (8004838 <HAL_RCC_GetPCLK2Freq+0x20>)
 8004826:	6810      	ldr	r0, [r2, #0]
 8004828:	f003 031f 	and.w	r3, r3, #31
}
 800482c:	40d8      	lsrs	r0, r3
 800482e:	4770      	bx	lr
 8004830:	40021000 	.word	0x40021000
 8004834:	0800a298 	.word	0x0800a298
 8004838:	20000044 	.word	0x20000044

0800483c <HAL_RCCEx_PeriphCLKConfig>:
  *         the RTC clock source: in this case the access to Backup domain is enabled.
  *
  * @retval HAL status
  */
HAL_StatusTypeDef HAL_RCCEx_PeriphCLKConfig(RCC_PeriphCLKInitTypeDef  *PeriphClkInit)
{
 800483c:	e92d 41f3 	stmdb	sp!, {r0, r1, r4, r5, r6, r7, r8, lr}
 8004840:	4604      	mov	r4, r0

  /* Check the parameters */
  assert_param(IS_RCC_PERIPHCLOCK(PeriphClkInit->PeriphClockSelection));

  /*-------------------------- RTC clock source configuration ----------------------*/
  if((PeriphClkInit->PeriphClockSelection & RCC_PERIPHCLK_RTC) == RCC_PERIPHCLK_RTC)
 8004842:	6800      	ldr	r0, [r0, #0]
 8004844:	f410 2000 	ands.w	r0, r0, #524288	@ 0x80000
 8004848:	d05a      	beq.n	8004900 <HAL_RCCEx_PeriphCLKConfig+0xc4>
    
    /* Check for RTC Parameters used to output RTCCLK */
    assert_param(IS_RCC_RTCCLKSOURCE(PeriphClkInit->RTCClockSelection));

    /* Enable Power Clock */
    if(__HAL_RCC_PWR_IS_CLK_DISABLED())
 800484a:	4d25      	ldr	r5, [pc, #148]	@ (80048e0 <HAL_RCCEx_PeriphCLKConfig+0xa4>)
 800484c:	6dab      	ldr	r3, [r5, #88]	@ 0x58
 800484e:	00d8      	lsls	r0, r3, #3
 8004850:	d444      	bmi.n	80048dc <HAL_RCCEx_PeriphCLKConfig+0xa0>
    {
      __HAL_RCC_PWR_CLK_ENABLE();
 8004852:	6dab      	ldr	r3, [r5, #88]	@ 0x58
 8004854:	f043 5380 	orr.w	r3, r3, #268435456	@ 0x10000000
 8004858:	65ab      	str	r3, [r5, #88]	@ 0x58
 800485a:	6dab      	ldr	r3, [r5, #88]	@ 0x58
 800485c:	f003 5380 	and.w	r3, r3, #268435456	@ 0x10000000
 8004860:	9301      	str	r3, [sp, #4]
 8004862:	9b01      	ldr	r3, [sp, #4]
      pwrclkchanged = SET;
 8004864:	2601      	movs	r6, #1
    }
      
    /* Enable write access to Backup domain */
    SET_BIT(PWR->CR1, PWR_CR1_DBP);
 8004866:	4f1f      	ldr	r7, [pc, #124]	@ (80048e4 <HAL_RCCEx_PeriphCLKConfig+0xa8>)
 8004868:	683b      	ldr	r3, [r7, #0]
 800486a:	f443 7380 	orr.w	r3, r3, #256	@ 0x100
 800486e:	603b      	str	r3, [r7, #0]

    /* Wait for Backup domain Write protection disable */
    tickstart = HAL_GetTick();
 8004870:	f7fe f872 	bl	8002958 <HAL_GetTick>
 8004874:	4680      	mov	r8, r0

    while((PWR->CR1 & PWR_CR1_DBP) == 0U)
 8004876:	683b      	ldr	r3, [r7, #0]
 8004878:	05d9      	lsls	r1, r3, #23
 800487a:	d535      	bpl.n	80048e8 <HAL_RCCEx_PeriphCLKConfig+0xac>
    }

    if(ret == HAL_OK)
    { 
      /* Reset the Backup domain only if the RTC Clock source selection is modified from default */
      tmpregister = READ_BIT(RCC->BDCR, RCC_BDCR_RTCSEL);
 800487c:	f8d5 3090 	ldr.w	r3, [r5, #144]	@ 0x90
      
      if((tmpregister != RCC_RTCCLKSOURCE_NONE) && (tmpregister != PeriphClkInit->RTCClockSelection))
 8004880:	6d22      	ldr	r2, [r4, #80]	@ 0x50
 8004882:	f413 7340 	ands.w	r3, r3, #768	@ 0x300
 8004886:	d01f      	beq.n	80048c8 <HAL_RCCEx_PeriphCLKConfig+0x8c>
 8004888:	429a      	cmp	r2, r3
 800488a:	d01d      	beq.n	80048c8 <HAL_RCCEx_PeriphCLKConfig+0x8c>
      {
        /* Store the content of BDCR register before the reset of Backup Domain */
        tmpregister = READ_BIT(RCC->BDCR, ~(RCC_BDCR_RTCSEL));
 800488c:	f8d5 2090 	ldr.w	r2, [r5, #144]	@ 0x90
        /* RTC Clock selection can be changed only if the Backup Domain is reset */
        __HAL_RCC_BACKUPRESET_FORCE();
 8004890:	f8d5 3090 	ldr.w	r3, [r5, #144]	@ 0x90
 8004894:	f443 3380 	orr.w	r3, r3, #65536	@ 0x10000
 8004898:	f8c5 3090 	str.w	r3, [r5, #144]	@ 0x90
        __HAL_RCC_BACKUPRESET_RELEASE();
 800489c:	f8d5 3090 	ldr.w	r3, [r5, #144]	@ 0x90
        tmpregister = READ_BIT(RCC->BDCR, ~(RCC_BDCR_RTCSEL));
 80048a0:	f422 7140 	bic.w	r1, r2, #768	@ 0x300
        __HAL_RCC_BACKUPRESET_RELEASE();
 80048a4:	f423 3380 	bic.w	r3, r3, #65536	@ 0x10000
        /* Restore the Content of BDCR register */
        RCC->BDCR = tmpregister;
      }

      /* Wait for LSE reactivation if LSE was enable prior to Backup Domain reset */
      if (HAL_IS_BIT_SET(tmpregister, RCC_BDCR_LSEON))
 80048a8:	07d2      	lsls	r2, r2, #31
        __HAL_RCC_BACKUPRESET_RELEASE();
 80048aa:	f8c5 3090 	str.w	r3, [r5, #144]	@ 0x90
        RCC->BDCR = tmpregister;
 80048ae:	f8c5 1090 	str.w	r1, [r5, #144]	@ 0x90
      if (HAL_IS_BIT_SET(tmpregister, RCC_BDCR_LSEON))
 80048b2:	d509      	bpl.n	80048c8 <HAL_RCCEx_PeriphCLKConfig+0x8c>
      {
        /* Get Start Tick*/
        tickstart = HAL_GetTick();
 80048b4:	f7fe f850 	bl	8002958 <HAL_GetTick>

        /* Wait till LSE is ready */
        while(READ_BIT(RCC->BDCR, RCC_BDCR_LSERDY) == 0U)
        {
          if((HAL_GetTick() - tickstart) > RCC_LSE_TIMEOUT_VALUE)
 80048b8:	f241 3888 	movw	r8, #5000	@ 0x1388
        tickstart = HAL_GetTick();
 80048bc:	4607      	mov	r7, r0
        while(READ_BIT(RCC->BDCR, RCC_BDCR_LSERDY) == 0U)
 80048be:	f8d5 3090 	ldr.w	r3, [r5, #144]	@ 0x90
 80048c2:	079b      	lsls	r3, r3, #30
 80048c4:	f140 8129 	bpl.w	8004b1a <HAL_RCCEx_PeriphCLKConfig+0x2de>
      }
      
      if(ret == HAL_OK)
      {
        /* Apply new RTC clock source selection */
        __HAL_RCC_RTC_CONFIG(PeriphClkInit->RTCClockSelection);
 80048c8:	f8d5 3090 	ldr.w	r3, [r5, #144]	@ 0x90
 80048cc:	6d22      	ldr	r2, [r4, #80]	@ 0x50
 80048ce:	f423 7340 	bic.w	r3, r3, #768	@ 0x300
 80048d2:	4313      	orrs	r3, r2
 80048d4:	f8c5 3090 	str.w	r3, [r5, #144]	@ 0x90
  HAL_StatusTypeDef status = HAL_OK;   /* Final status */
 80048d8:	2000      	movs	r0, #0
 80048da:	e00c      	b.n	80048f6 <HAL_RCCEx_PeriphCLKConfig+0xba>
    FlagStatus       pwrclkchanged = RESET;
 80048dc:	2600      	movs	r6, #0
 80048de:	e7c2      	b.n	8004866 <HAL_RCCEx_PeriphCLKConfig+0x2a>
 80048e0:	40021000 	.word	0x40021000
 80048e4:	40007000 	.word	0x40007000
      if((HAL_GetTick() - tickstart) > RCC_DBP_TIMEOUT_VALUE)
 80048e8:	f7fe f836 	bl	8002958 <HAL_GetTick>
 80048ec:	eba0 0008 	sub.w	r0, r0, r8
 80048f0:	2802      	cmp	r0, #2
 80048f2:	d9c0      	bls.n	8004876 <HAL_RCCEx_PeriphCLKConfig+0x3a>
      }
      else
      {
        /* set overall return value */
        status = ret;
 80048f4:	2003      	movs	r0, #3
      /* set overall return value */
      status = ret;
    }

    /* Restore clock configuration if changed */
    if(pwrclkchanged == SET)
 80048f6:	b11e      	cbz	r6, 8004900 <HAL_RCCEx_PeriphCLKConfig+0xc4>
    {
      __HAL_RCC_PWR_CLK_DISABLE();
 80048f8:	6dab      	ldr	r3, [r5, #88]	@ 0x58
 80048fa:	f023 5380 	bic.w	r3, r3, #268435456	@ 0x10000000
 80048fe:	65ab      	str	r3, [r5, #88]	@ 0x58
    }
  }

  /*-------------------------- USART1 clock source configuration -------------------*/
  if(((PeriphClkInit->PeriphClockSelection) & RCC_PERIPHCLK_USART1) == RCC_PERIPHCLK_USART1)
 8004900:	6823      	ldr	r3, [r4, #0]
 8004902:	07dd      	lsls	r5, r3, #31
 8004904:	d508      	bpl.n	8004918 <HAL_RCCEx_PeriphCLKConfig+0xdc>
  {
    /* Check the parameters */
    assert_param(IS_RCC_USART1CLKSOURCE(PeriphClkInit->Usart1ClockSelection));

    /* Configure the USART1 clock source */
    __HAL_RCC_USART1_CONFIG(PeriphClkInit->Usart1ClockSelection);
 8004906:	4988      	ldr	r1, [pc, #544]	@ (8004b28 <HAL_RCCEx_PeriphCLKConfig+0x2ec>)
 8004908:	6865      	ldr	r5, [r4, #4]
 800490a:	f8d1 2088 	ldr.w	r2, [r1, #136]	@ 0x88
 800490e:	f022 0203 	bic.w	r2, r2, #3
 8004912:	432a      	orrs	r2, r5
 8004914:	f8c1 2088 	str.w	r2, [r1, #136]	@ 0x88
  }

  /*-------------------------- USART2 clock source configuration -------------------*/
  if(((PeriphClkInit->PeriphClockSelection) & RCC_PERIPHCLK_USART2) == RCC_PERIPHCLK_USART2)
 8004918:	0799      	lsls	r1, r3, #30
 800491a:	d508      	bpl.n	800492e <HAL_RCCEx_PeriphCLKConfig+0xf2>
  {
    /* Check the parameters */
    assert_param(IS_RCC_USART2CLKSOURCE(PeriphClkInit->Usart2ClockSelection));

    /* Configure the USART2 clock source */
    __HAL_RCC_USART2_CONFIG(PeriphClkInit->Usart2ClockSelection);
 800491c:	4982      	ldr	r1, [pc, #520]	@ (8004b28 <HAL_RCCEx_PeriphCLKConfig+0x2ec>)
 800491e:	68a5      	ldr	r5, [r4, #8]
 8004920:	f8d1 2088 	ldr.w	r2, [r1, #136]	@ 0x88
 8004924:	f022 020c 	bic.w	r2, r2, #12
 8004928:	432a      	orrs	r2, r5
 800492a:	f8c1 2088 	str.w	r2, [r1, #136]	@ 0x88
  }

#if defined(USART3)

  /*-------------------------- USART3 clock source configuration -------------------*/
  if(((PeriphClkInit->PeriphClockSelection) & RCC_PERIPHCLK_USART3) == RCC_PERIPHCLK_USART3)
 800492e:	075a      	lsls	r2, r3, #29
 8004930:	d508      	bpl.n	8004944 <HAL_RCCEx_PeriphCLKConfig+0x108>
  {
    /* Check the parameters */
    assert_param(IS_RCC_USART3CLKSOURCE(PeriphClkInit->Usart3ClockSelection));

    /* Configure the USART3 clock source */
    __HAL_RCC_USART3_CONFIG(PeriphClkInit->Usart3ClockSelection);
 8004932:	497d      	ldr	r1, [pc, #500]	@ (8004b28 <HAL_RCCEx_PeriphCLKConfig+0x2ec>)
 8004934:	68e5      	ldr	r5, [r4, #12]
 8004936:	f8d1 2088 	ldr.w	r2, [r1, #136]	@ 0x88
 800493a:	f022 0230 	bic.w	r2, r2, #48	@ 0x30
 800493e:	432a      	orrs	r2, r5
 8004940:	f8c1 2088 	str.w	r2, [r1, #136]	@ 0x88

#endif /* USART3 */

#if defined(UART4)
  /*-------------------------- UART4 clock source configuration --------------------*/
  if(((PeriphClkInit->PeriphClockSelection) & RCC_PERIPHCLK_UART4) == RCC_PERIPHCLK_UART4)
 8004944:	071f      	lsls	r7, r3, #28
 8004946:	d508      	bpl.n	800495a <HAL_RCCEx_PeriphCLKConfig+0x11e>
  {
    /* Check the parameters */
    assert_param(IS_RCC_UART4CLKSOURCE(PeriphClkInit->Uart4ClockSelection));

    /* Configure the UART4 clock source */
    __HAL_RCC_UART4_CONFIG(PeriphClkInit->Uart4ClockSelection);
 8004948:	4977      	ldr	r1, [pc, #476]	@ (8004b28 <HAL_RCCEx_PeriphCLKConfig+0x2ec>)
 800494a:	6925      	ldr	r5, [r4, #16]
 800494c:	f8d1 2088 	ldr.w	r2, [r1, #136]	@ 0x88
 8004950:	f022 02c0 	bic.w	r2, r2, #192	@ 0xc0
 8004954:	432a      	orrs	r2, r5
 8004956:	f8c1 2088 	str.w	r2, [r1, #136]	@ 0x88
#endif /* UART4 */

#if defined(UART5)

  /*-------------------------- UART5 clock source configuration --------------------*/
  if(((PeriphClkInit->PeriphClockSelection) & RCC_PERIPHCLK_UART5) == RCC_PERIPHCLK_UART5)
 800495a:	06de      	lsls	r6, r3, #27
 800495c:	d508      	bpl.n	8004970 <HAL_RCCEx_PeriphCLKConfig+0x134>
  {
    /* Check the parameters */
    assert_param(IS_RCC_UART5CLKSOURCE(PeriphClkInit->Uart5ClockSelection));

    /* Configure the UART5 clock source */
    __HAL_RCC_UART5_CONFIG(PeriphClkInit->Uart5ClockSelection);
 800495e:	4972      	ldr	r1, [pc, #456]	@ (8004b28 <HAL_RCCEx_PeriphCLKConfig+0x2ec>)
 8004960:	6965      	ldr	r5, [r4, #20]
 8004962:	f8d1 2088 	ldr.w	r2, [r1, #136]	@ 0x88
 8004966:	f422 7240 	bic.w	r2, r2, #768	@ 0x300
 800496a:	432a      	orrs	r2, r5
 800496c:	f8c1 2088 	str.w	r2, [r1, #136]	@ 0x88
  }

#endif /* UART5 */

  /*-------------------------- LPUART1 clock source configuration ------------------*/
  if(((PeriphClkInit->PeriphClockSelection) & RCC_PERIPHCLK_LPUART1) == RCC_PERIPHCLK_LPUART1)
 8004970:	069d      	lsls	r5, r3, #26
 8004972:	d508      	bpl.n	8004986 <HAL_RCCEx_PeriphCLKConfig+0x14a>
  {
    /* Check the parameters */
    assert_param(IS_RCC_LPUART1CLKSOURCE(PeriphClkInit->Lpuart1ClockSelection));

    /* Configure the LPUAR1 clock source */
    __HAL_RCC_LPUART1_CONFIG(PeriphClkInit->Lpuart1ClockSelection);
 8004974:	496c      	ldr	r1, [pc, #432]	@ (8004b28 <HAL_RCCEx_PeriphCLKConfig+0x2ec>)
 8004976:	69a5      	ldr	r5, [r4, #24]
 8004978:	f8d1 2088 	ldr.w	r2, [r1, #136]	@ 0x88
 800497c:	f422 6240 	bic.w	r2, r2, #3072	@ 0xc00
 8004980:	432a      	orrs	r2, r5
 8004982:	f8c1 2088 	str.w	r2, [r1, #136]	@ 0x88
  }

  /*-------------------------- I2C1 clock source configuration ---------------------*/
  if(((PeriphClkInit->PeriphClockSelection) & RCC_PERIPHCLK_I2C1) == RCC_PERIPHCLK_I2C1)
 8004986:	0659      	lsls	r1, r3, #25
 8004988:	d508      	bpl.n	800499c <HAL_RCCEx_PeriphCLKConfig+0x160>
  {
    /* Check the parameters */
    assert_param(IS_RCC_I2C1CLKSOURCE(PeriphClkInit->I2c1ClockSelection));

    /* Configure the I2C1 clock source */
    __HAL_RCC_I2C1_CONFIG(PeriphClkInit->I2c1ClockSelection);
 800498a:	4967      	ldr	r1, [pc, #412]	@ (8004b28 <HAL_RCCEx_PeriphCLKConfig+0x2ec>)
 800498c:	69e5      	ldr	r5, [r4, #28]
 800498e:	f8d1 2088 	ldr.w	r2, [r1, #136]	@ 0x88
 8004992:	f422 5240 	bic.w	r2, r2, #12288	@ 0x3000
 8004996:	432a      	orrs	r2, r5
 8004998:	f8c1 2088 	str.w	r2, [r1, #136]	@ 0x88
  }

  /*-------------------------- I2C2 clock source configuration ---------------------*/
  if(((PeriphClkInit->PeriphClockSelection) & RCC_PERIPHCLK_I2C2) == RCC_PERIPHCLK_I2C2)
 800499c:	061a      	lsls	r2, r3, #24
 800499e:	d508      	bpl.n	80049b2 <HAL_RCCEx_PeriphCLKConfig+0x176>
  {
    /* Check the parameters */
    assert_param(IS_RCC_I2C2CLKSOURCE(PeriphClkInit->I2c2ClockSelection));

    /* Configure the I2C2 clock source */
    __HAL_RCC_I2C2_CONFIG(PeriphClkInit->I2c2ClockSelection);
 80049a0:	4961      	ldr	r1, [pc, #388]	@ (8004b28 <HAL_RCCEx_PeriphCLKConfig+0x2ec>)
 80049a2:	6a25      	ldr	r5, [r4, #32]
 80049a4:	f8d1 2088 	ldr.w	r2, [r1, #136]	@ 0x88
 80049a8:	f422 4240 	bic.w	r2, r2, #49152	@ 0xc000
 80049ac:	432a      	orrs	r2, r5
 80049ae:	f8c1 2088 	str.w	r2, [r1, #136]	@ 0x88
  }
#if defined(I2C3)

  /*-------------------------- I2C3 clock source configuration ---------------------*/
  if(((PeriphClkInit->PeriphClockSelection) & RCC_PERIPHCLK_I2C3) == RCC_PERIPHCLK_I2C3)
 80049b2:	05df      	lsls	r7, r3, #23
 80049b4:	d508      	bpl.n	80049c8 <HAL_RCCEx_PeriphCLKConfig+0x18c>
  {
    /* Check the parameters */
    assert_param(IS_RCC_I2C3CLKSOURCE(PeriphClkInit->I2c3ClockSelection));

    /* Configure the I2C3 clock source */
    __HAL_RCC_I2C3_CONFIG(PeriphClkInit->I2c3ClockSelection);
 80049b6:	495c      	ldr	r1, [pc, #368]	@ (8004b28 <HAL_RCCEx_PeriphCLKConfig+0x2ec>)
 80049b8:	6a65      	ldr	r5, [r4, #36]	@ 0x24
 80049ba:	f8d1 2088 	ldr.w	r2, [r1, #136]	@ 0x88
 80049be:	f422 3240 	bic.w	r2, r2, #196608	@ 0x30000
 80049c2:	432a      	orrs	r2, r5
 80049c4:	f8c1 2088 	str.w	r2, [r1, #136]	@ 0x88

#endif /* I2C3 */
#if defined(I2C4)

  /*-------------------------- I2C4 clock source configuration ---------------------*/
  if(((PeriphClkInit->PeriphClockSelection) & RCC_PERIPHCLK_I2C4) == RCC_PERIPHCLK_I2C4)
 80049c8:	039e      	lsls	r6, r3, #14
 80049ca:	d508      	bpl.n	80049de <HAL_RCCEx_PeriphCLKConfig+0x1a2>
  {
    /* Check the parameters */
    assert_param(IS_RCC_I2C4CLKSOURCE(PeriphClkInit->I2c4ClockSelection));

    /* Configure the I2C4 clock source */
    __HAL_RCC_I2C4_CONFIG(PeriphClkInit->I2c4ClockSelection);
 80049cc:	4956      	ldr	r1, [pc, #344]	@ (8004b28 <HAL_RCCEx_PeriphCLKConfig+0x2ec>)
 80049ce:	6aa5      	ldr	r5, [r4, #40]	@ 0x28
 80049d0:	f8d1 209c 	ldr.w	r2, [r1, #156]	@ 0x9c
 80049d4:	f022 0203 	bic.w	r2, r2, #3
 80049d8:	432a      	orrs	r2, r5
 80049da:	f8c1 209c 	str.w	r2, [r1, #156]	@ 0x9c
  }

#endif /* I2C4 */

  /*-------------------------- LPTIM1 clock source configuration ---------------------*/
  if(((PeriphClkInit->PeriphClockSelection) & RCC_PERIPHCLK_LPTIM1) == RCC_PERIPHCLK_LPTIM1)
 80049de:	059d      	lsls	r5, r3, #22
 80049e0:	d508      	bpl.n	80049f4 <HAL_RCCEx_PeriphCLKConfig+0x1b8>
  {
    /* Check the parameters */
    assert_param(IS_RCC_LPTIM1CLKSOURCE(PeriphClkInit->Lptim1ClockSelection));

    /* Configure the LPTIM1 clock source */
    __HAL_RCC_LPTIM1_CONFIG(PeriphClkInit->Lptim1ClockSelection);
 80049e2:	4951      	ldr	r1, [pc, #324]	@ (8004b28 <HAL_RCCEx_PeriphCLKConfig+0x2ec>)
 80049e4:	6ae5      	ldr	r5, [r4, #44]	@ 0x2c
 80049e6:	f8d1 2088 	ldr.w	r2, [r1, #136]	@ 0x88
 80049ea:	f422 2240 	bic.w	r2, r2, #786432	@ 0xc0000
 80049ee:	432a      	orrs	r2, r5
 80049f0:	f8c1 2088 	str.w	r2, [r1, #136]	@ 0x88
  }

#if defined(SAI1) 
  /*-------------------------- SAI1 clock source configuration ---------------------*/
  if(((PeriphClkInit->PeriphClockSelection) & RCC_PERIPHCLK_SAI1) == RCC_PERIPHCLK_SAI1)
 80049f4:	0559      	lsls	r1, r3, #21
 80049f6:	d50f      	bpl.n	8004a18 <HAL_RCCEx_PeriphCLKConfig+0x1dc>
  {
    /* Check the parameters */
    assert_param(IS_RCC_SAI1CLKSOURCE(PeriphClkInit->Sai1ClockSelection));

    /* Configure the SAI1 interface clock source */
    __HAL_RCC_SAI1_CONFIG(PeriphClkInit->Sai1ClockSelection);
 80049f8:	494b      	ldr	r1, [pc, #300]	@ (8004b28 <HAL_RCCEx_PeriphCLKConfig+0x2ec>)
 80049fa:	6b25      	ldr	r5, [r4, #48]	@ 0x30
 80049fc:	f8d1 2088 	ldr.w	r2, [r1, #136]	@ 0x88
 8004a00:	f422 1240 	bic.w	r2, r2, #3145728	@ 0x300000
 8004a04:	432a      	orrs	r2, r5
 8004a06:	f8c1 2088 	str.w	r2, [r1, #136]	@ 0x88
    
    if(PeriphClkInit->Sai1ClockSelection == RCC_SAI1CLKSOURCE_PLL)
 8004a0a:	f5b5 1f80 	cmp.w	r5, #1048576	@ 0x100000
    {
      /* Enable PLL48M1CLK output */
      __HAL_RCC_PLLCLKOUT_ENABLE(RCC_PLL_48M1CLK);
 8004a0e:	bf02      	ittt	eq
 8004a10:	68ca      	ldreq	r2, [r1, #12]
 8004a12:	f442 1280 	orreq.w	r2, r2, #1048576	@ 0x100000
 8004a16:	60ca      	streq	r2, [r1, #12]

#endif /* SAI1 */

#if defined(SPI_I2S_SUPPORT)
  /*-------------------------- I2S clock source configuration ---------------------*/
  if(((PeriphClkInit->PeriphClockSelection) & RCC_PERIPHCLK_I2S) == RCC_PERIPHCLK_I2S)
 8004a18:	051a      	lsls	r2, r3, #20
 8004a1a:	d50f      	bpl.n	8004a3c <HAL_RCCEx_PeriphCLKConfig+0x200>
  {
    /* Check the parameters */
    assert_param(IS_RCC_I2SCLKSOURCE(PeriphClkInit->I2sClockSelection));

    /* Configure the I2S interface clock source */
    __HAL_RCC_I2S_CONFIG(PeriphClkInit->I2sClockSelection);
 8004a1c:	4942      	ldr	r1, [pc, #264]	@ (8004b28 <HAL_RCCEx_PeriphCLKConfig+0x2ec>)
 8004a1e:	6b65      	ldr	r5, [r4, #52]	@ 0x34
 8004a20:	f8d1 2088 	ldr.w	r2, [r1, #136]	@ 0x88
 8004a24:	f422 0240 	bic.w	r2, r2, #12582912	@ 0xc00000
 8004a28:	432a      	orrs	r2, r5
 8004a2a:	f8c1 2088 	str.w	r2, [r1, #136]	@ 0x88
    
    if(PeriphClkInit->I2sClockSelection == RCC_I2SCLKSOURCE_PLL)
 8004a2e:	f5b5 0f80 	cmp.w	r5, #4194304	@ 0x400000
    {
      /* Enable PLL48M1CLK output */
      __HAL_RCC_PLLCLKOUT_ENABLE(RCC_PLL_48M1CLK);
 8004a32:	bf02      	ittt	eq
 8004a34:	68ca      	ldreq	r2, [r1, #12]
 8004a36:	f442 1280 	orreq.w	r2, r2, #1048576	@ 0x100000
 8004a3a:	60ca      	streq	r2, [r1, #12]

#endif /* SPI_I2S_SUPPORT */

#if defined(FDCAN1)
  /*-------------------------- FDCAN clock source configuration ---------------------*/
  if(((PeriphClkInit->PeriphClockSelection) & RCC_PERIPHCLK_FDCAN) == RCC_PERIPHCLK_FDCAN)
 8004a3c:	04df      	lsls	r7, r3, #19
 8004a3e:	d50f      	bpl.n	8004a60 <HAL_RCCEx_PeriphCLKConfig+0x224>
  {
    /* Check the parameters */
    assert_param(IS_RCC_FDCANCLKSOURCE(PeriphClkInit->FdcanClockSelection));

    /* Configure the FDCAN interface clock source */
    __HAL_RCC_FDCAN_CONFIG(PeriphClkInit->FdcanClockSelection);
 8004a40:	4939      	ldr	r1, [pc, #228]	@ (8004b28 <HAL_RCCEx_PeriphCLKConfig+0x2ec>)
 8004a42:	6ba5      	ldr	r5, [r4, #56]	@ 0x38
 8004a44:	f8d1 2088 	ldr.w	r2, [r1, #136]	@ 0x88
 8004a48:	f022 7240 	bic.w	r2, r2, #50331648	@ 0x3000000
 8004a4c:	432a      	orrs	r2, r5
 8004a4e:	f8c1 2088 	str.w	r2, [r1, #136]	@ 0x88
    
    if(PeriphClkInit->FdcanClockSelection == RCC_FDCANCLKSOURCE_PLL)
 8004a52:	f1b5 7f80 	cmp.w	r5, #16777216	@ 0x1000000
    {
      /* Enable PLL48M1CLK output */
      __HAL_RCC_PLLCLKOUT_ENABLE(RCC_PLL_48M1CLK);
 8004a56:	bf02      	ittt	eq
 8004a58:	68ca      	ldreq	r2, [r1, #12]
 8004a5a:	f442 1280 	orreq.w	r2, r2, #1048576	@ 0x100000
 8004a5e:	60ca      	streq	r2, [r1, #12]
#endif /* FDCAN1 */

#if defined(USB)

  /*-------------------------- USB clock source configuration ----------------------*/
  if(((PeriphClkInit->PeriphClockSelection) & RCC_PERIPHCLK_USB) == (RCC_PERIPHCLK_USB))
 8004a60:	049e      	lsls	r6, r3, #18
 8004a62:	d50f      	bpl.n	8004a84 <HAL_RCCEx_PeriphCLKConfig+0x248>
  {
    assert_param(IS_RCC_USBCLKSOURCE(PeriphClkInit->UsbClockSelection));
    __HAL_RCC_USB_CONFIG(PeriphClkInit->UsbClockSelection);
 8004a64:	4930      	ldr	r1, [pc, #192]	@ (8004b28 <HAL_RCCEx_PeriphCLKConfig+0x2ec>)
 8004a66:	6be5      	ldr	r5, [r4, #60]	@ 0x3c
 8004a68:	f8d1 2088 	ldr.w	r2, [r1, #136]	@ 0x88
 8004a6c:	f022 6240 	bic.w	r2, r2, #201326592	@ 0xc000000
 8004a70:	432a      	orrs	r2, r5
 8004a72:	f8c1 2088 	str.w	r2, [r1, #136]	@ 0x88

    if(PeriphClkInit->UsbClockSelection == RCC_USBCLKSOURCE_PLL)
 8004a76:	f1b5 6f00 	cmp.w	r5, #134217728	@ 0x8000000
    {
      /* Enable PLL48M1CLK output */
      __HAL_RCC_PLLCLKOUT_ENABLE(RCC_PLL_48M1CLK);
 8004a7a:	bf02      	ittt	eq
 8004a7c:	68ca      	ldreq	r2, [r1, #12]
 8004a7e:	f442 1280 	orreq.w	r2, r2, #1048576	@ 0x100000
 8004a82:	60ca      	streq	r2, [r1, #12]
  }

#endif /* USB */

  /*-------------------------- RNG clock source configuration ----------------------*/
  if(((PeriphClkInit->PeriphClockSelection) & RCC_PERIPHCLK_RNG) == (RCC_PERIPHCLK_RNG))
 8004a84:	045d      	lsls	r5, r3, #17
 8004a86:	d50f      	bpl.n	8004aa8 <HAL_RCCEx_PeriphCLKConfig+0x26c>
  {
    assert_param(IS_RCC_RNGCLKSOURCE(PeriphClkInit->RngClockSelection));
    __HAL_RCC_RNG_CONFIG(PeriphClkInit->RngClockSelection);
 8004a88:	4927      	ldr	r1, [pc, #156]	@ (8004b28 <HAL_RCCEx_PeriphCLKConfig+0x2ec>)
 8004a8a:	6c25      	ldr	r5, [r4, #64]	@ 0x40
 8004a8c:	f8d1 2088 	ldr.w	r2, [r1, #136]	@ 0x88
 8004a90:	f022 6240 	bic.w	r2, r2, #201326592	@ 0xc000000
 8004a94:	432a      	orrs	r2, r5
 8004a96:	f8c1 2088 	str.w	r2, [r1, #136]	@ 0x88

    if(PeriphClkInit->RngClockSelection == RCC_RNGCLKSOURCE_PLL)
 8004a9a:	f1b5 6f00 	cmp.w	r5, #134217728	@ 0x8000000
    {
      /* Enable PLL48M1CLK output */
      __HAL_RCC_PLLCLKOUT_ENABLE(RCC_PLL_48M1CLK);
 8004a9e:	bf02      	ittt	eq
 8004aa0:	68ca      	ldreq	r2, [r1, #12]
 8004aa2:	f442 1280 	orreq.w	r2, r2, #1048576	@ 0x100000
 8004aa6:	60ca      	streq	r2, [r1, #12]
    }
  }

  /*-------------------------- ADC12 clock source configuration ----------------------*/
  if(((PeriphClkInit->PeriphClockSelection) & RCC_PERIPHCLK_ADC12) == RCC_PERIPHCLK_ADC12)
 8004aa8:	0419      	lsls	r1, r3, #16
 8004aaa:	d50f      	bpl.n	8004acc <HAL_RCCEx_PeriphCLKConfig+0x290>
  {
    /* Check the parameters */
    assert_param(IS_RCC_ADC12CLKSOURCE(PeriphClkInit->Adc12ClockSelection));

    /* Configure the ADC12 interface clock source */
    __HAL_RCC_ADC12_CONFIG(PeriphClkInit->Adc12ClockSelection);
 8004aac:	491e      	ldr	r1, [pc, #120]	@ (8004b28 <HAL_RCCEx_PeriphCLKConfig+0x2ec>)
 8004aae:	6c65      	ldr	r5, [r4, #68]	@ 0x44
 8004ab0:	f8d1 2088 	ldr.w	r2, [r1, #136]	@ 0x88
 8004ab4:	f022 5240 	bic.w	r2, r2, #805306368	@ 0x30000000
 8004ab8:	432a      	orrs	r2, r5
 8004aba:	f8c1 2088 	str.w	r2, [r1, #136]	@ 0x88
    
    if(PeriphClkInit->Adc12ClockSelection == RCC_ADC12CLKSOURCE_PLL)
 8004abe:	f1b5 5f80 	cmp.w	r5, #268435456	@ 0x10000000
    {
      /* Enable PLLADCCLK output */
      __HAL_RCC_PLLCLKOUT_ENABLE(RCC_PLL_ADCCLK);
 8004ac2:	bf02      	ittt	eq
 8004ac4:	68ca      	ldreq	r2, [r1, #12]
 8004ac6:	f442 3280 	orreq.w	r2, r2, #65536	@ 0x10000
 8004aca:	60ca      	streq	r2, [r1, #12]
    }
  }
  
#if defined(ADC345_COMMON)
  /*-------------------------- ADC345 clock source configuration ----------------------*/
  if(((PeriphClkInit->PeriphClockSelection) & RCC_PERIPHCLK_ADC345) == RCC_PERIPHCLK_ADC345)
 8004acc:	03da      	lsls	r2, r3, #15
 8004ace:	d50f      	bpl.n	8004af0 <HAL_RCCEx_PeriphCLKConfig+0x2b4>
  {
    /* Check the parameters */
    assert_param(IS_RCC_ADC345CLKSOURCE(PeriphClkInit->Adc345ClockSelection));

    /* Configure the ADC345 interface clock source */
    __HAL_RCC_ADC345_CONFIG(PeriphClkInit->Adc345ClockSelection);
 8004ad0:	4915      	ldr	r1, [pc, #84]	@ (8004b28 <HAL_RCCEx_PeriphCLKConfig+0x2ec>)
 8004ad2:	6ca5      	ldr	r5, [r4, #72]	@ 0x48
 8004ad4:	f8d1 2088 	ldr.w	r2, [r1, #136]	@ 0x88
 8004ad8:	f022 4240 	bic.w	r2, r2, #3221225472	@ 0xc0000000
 8004adc:	432a      	orrs	r2, r5
 8004ade:	f8c1 2088 	str.w	r2, [r1, #136]	@ 0x88
    
    if(PeriphClkInit->Adc345ClockSelection == RCC_ADC345CLKSOURCE_PLL)
 8004ae2:	f1b5 4f80 	cmp.w	r5, #1073741824	@ 0x40000000
    {
      /* Enable PLLADCCLK output */
      __HAL_RCC_PLLCLKOUT_ENABLE(RCC_PLL_ADCCLK);
 8004ae6:	bf02      	ittt	eq
 8004ae8:	68ca      	ldreq	r2, [r1, #12]
 8004aea:	f442 3280 	orreq.w	r2, r2, #65536	@ 0x10000
 8004aee:	60ca      	streq	r2, [r1, #12]
#endif /* ADC345_COMMON */

#if defined(QUADSPI)

  /*-------------------------- QuadSPIx clock source configuration ----------------*/
  if(((PeriphClkInit->PeriphClockSelection) & RCC_PERIPHCLK_QSPI) == RCC_PERIPHCLK_QSPI)
 8004af0:	035b      	lsls	r3, r3, #13
 8004af2:	d50f      	bpl.n	8004b14 <HAL_RCCEx_PeriphCLKConfig+0x2d8>
  {
    /* Check the parameters */
    assert_param(IS_RCC_QSPICLKSOURCE(PeriphClkInit->QspiClockSelection));

    /* Configure the QuadSPI clock source */
    __HAL_RCC_QSPI_CONFIG(PeriphClkInit->QspiClockSelection);
 8004af4:	4a0c      	ldr	r2, [pc, #48]	@ (8004b28 <HAL_RCCEx_PeriphCLKConfig+0x2ec>)
 8004af6:	6ce1      	ldr	r1, [r4, #76]	@ 0x4c
 8004af8:	f8d2 309c 	ldr.w	r3, [r2, #156]	@ 0x9c
 8004afc:	f423 1340 	bic.w	r3, r3, #3145728	@ 0x300000
 8004b00:	430b      	orrs	r3, r1

    if(PeriphClkInit->QspiClockSelection == RCC_QSPICLKSOURCE_PLL)
 8004b02:	f5b1 1f00 	cmp.w	r1, #2097152	@ 0x200000
    __HAL_RCC_QSPI_CONFIG(PeriphClkInit->QspiClockSelection);
 8004b06:	f8c2 309c 	str.w	r3, [r2, #156]	@ 0x9c
    if(PeriphClkInit->QspiClockSelection == RCC_QSPICLKSOURCE_PLL)
 8004b0a:	d103      	bne.n	8004b14 <HAL_RCCEx_PeriphCLKConfig+0x2d8>
    {
      /* Enable PLL48M1CLK output */
      __HAL_RCC_PLLCLKOUT_ENABLE(RCC_PLL_48M1CLK);
 8004b0c:	68d3      	ldr	r3, [r2, #12]
 8004b0e:	f443 1380 	orr.w	r3, r3, #1048576	@ 0x100000
 8004b12:	60d3      	str	r3, [r2, #12]
  }

#endif /* QUADSPI */

  return status;
}
 8004b14:	b002      	add	sp, #8
 8004b16:	e8bd 81f0 	ldmia.w	sp!, {r4, r5, r6, r7, r8, pc}
          if((HAL_GetTick() - tickstart) > RCC_LSE_TIMEOUT_VALUE)
 8004b1a:	f7fd ff1d 	bl	8002958 <HAL_GetTick>
 8004b1e:	1bc0      	subs	r0, r0, r7
 8004b20:	4540      	cmp	r0, r8
 8004b22:	f67f aecc 	bls.w	80048be <HAL_RCCEx_PeriphCLKConfig+0x82>
 8004b26:	e6e5      	b.n	80048f4 <HAL_RCCEx_PeriphCLKConfig+0xb8>
 8004b28:	40021000 	.word	0x40021000

08004b2c <TIM_OC1_SetConfig>:
  uint32_t tmpccmrx;
  uint32_t tmpccer;
  uint32_t tmpcr2;

  /* Get the TIMx CCER register value */
  tmpccer = TIMx->CCER;
 8004b2c:	6a03      	ldr	r3, [r0, #32]

  /* Disable the Channel 1: Reset the CC1E Bit */
  TIMx->CCER &= ~TIM_CCER_CC1E;
 8004b2e:	6a02      	ldr	r2, [r0, #32]
 8004b30:	f022 0201 	bic.w	r2, r2, #1
{
 8004b34:	b570      	push	{r4, r5, r6, lr}
  TIMx->CCER &= ~TIM_CCER_CC1E;
 8004b36:	6202      	str	r2, [r0, #32]

  /* Get the TIMx CR2 register value */
  tmpcr2 =  TIMx->CR2;
 8004b38:	6844      	ldr	r4, [r0, #4]

  /* Get the TIMx CCMR1 register value */
  tmpccmrx = TIMx->CCMR1;
 8004b3a:	6982      	ldr	r2, [r0, #24]

  /* Reset the Output Compare Mode Bits */
  tmpccmrx &= ~TIM_CCMR1_OC1M;
  tmpccmrx &= ~TIM_CCMR1_CC1S;
  /* Select the Output Compare Mode */
  tmpccmrx |= OC_Config->OCMode;
 8004b3c:	680d      	ldr	r5, [r1, #0]
  tmpccmrx &= ~TIM_CCMR1_CC1S;
 8004b3e:	f422 3280 	bic.w	r2, r2, #65536	@ 0x10000
 8004b42:	f022 0273 	bic.w	r2, r2, #115	@ 0x73
  tmpccmrx |= OC_Config->OCMode;
 8004b46:	432a      	orrs	r2, r5

  /* Reset the Output Polarity level */
  tmpccer &= ~TIM_CCER_CC1P;
  /* Set the Output Compare Polarity */
  tmpccer |= OC_Config->OCPolarity;
 8004b48:	688d      	ldr	r5, [r1, #8]
  tmpccer &= ~TIM_CCER_CC1P;
 8004b4a:	f023 0302 	bic.w	r3, r3, #2
  tmpccer |= OC_Config->OCPolarity;
 8004b4e:	432b      	orrs	r3, r5

  if (IS_TIM_CCXN_INSTANCE(TIMx, TIM_CHANNEL_1))
 8004b50:	4d14      	ldr	r5, [pc, #80]	@ (8004ba4 <TIM_OC1_SetConfig+0x78>)
 8004b52:	42a8      	cmp	r0, r5
 8004b54:	d013      	beq.n	8004b7e <TIM_OC1_SetConfig+0x52>
 8004b56:	f505 6500 	add.w	r5, r5, #2048	@ 0x800
 8004b5a:	42a8      	cmp	r0, r5
 8004b5c:	d00f      	beq.n	8004b7e <TIM_OC1_SetConfig+0x52>
 8004b5e:	f505 6540 	add.w	r5, r5, #3072	@ 0xc00
 8004b62:	42a8      	cmp	r0, r5
 8004b64:	d00b      	beq.n	8004b7e <TIM_OC1_SetConfig+0x52>
 8004b66:	f505 6580 	add.w	r5, r5, #1024	@ 0x400
 8004b6a:	42a8      	cmp	r0, r5
 8004b6c:	d007      	beq.n	8004b7e <TIM_OC1_SetConfig+0x52>
 8004b6e:	f505 6580 	add.w	r5, r5, #1024	@ 0x400
 8004b72:	42a8      	cmp	r0, r5
 8004b74:	d003      	beq.n	8004b7e <TIM_OC1_SetConfig+0x52>
 8004b76:	f505 6500 	add.w	r5, r5, #2048	@ 0x800
 8004b7a:	42a8      	cmp	r0, r5
 8004b7c:	d10b      	bne.n	8004b96 <TIM_OC1_SetConfig+0x6a>
    assert_param(IS_TIM_OCN_POLARITY(OC_Config->OCNPolarity));

    /* Reset the Output N Polarity level */
    tmpccer &= ~TIM_CCER_CC1NP;
    /* Set the Output N Polarity */
    tmpccer |= OC_Config->OCNPolarity;
 8004b7e:	68cd      	ldr	r5, [r1, #12]
    tmpccer &= ~TIM_CCER_CC1NP;
 8004b80:	f023 0308 	bic.w	r3, r3, #8
    tmpccer |= OC_Config->OCNPolarity;
 8004b84:	432b      	orrs	r3, r5
    assert_param(IS_TIM_OCNIDLE_STATE(OC_Config->OCNIdleState));
    assert_param(IS_TIM_OCIDLE_STATE(OC_Config->OCIdleState));

    /* Reset the Output Compare and Output Compare N IDLE State */
    tmpcr2 &= ~TIM_CR2_OIS1;
    tmpcr2 &= ~TIM_CR2_OIS1N;
 8004b86:	f424 7540 	bic.w	r5, r4, #768	@ 0x300
    /* Set the Output Idle state */
    tmpcr2 |= OC_Config->OCIdleState;
    /* Set the Output N Idle state */
    tmpcr2 |= OC_Config->OCNIdleState;
 8004b8a:	e9d1 4605 	ldrd	r4, r6, [r1, #20]
 8004b8e:	4334      	orrs	r4, r6
    tmpccer &= ~TIM_CCER_CC1NE;
 8004b90:	f023 0304 	bic.w	r3, r3, #4
    tmpcr2 |= OC_Config->OCNIdleState;
 8004b94:	432c      	orrs	r4, r5
  }

  /* Write to TIMx CR2 */
  TIMx->CR2 = tmpcr2;
 8004b96:	6044      	str	r4, [r0, #4]

  /* Write to TIMx CCMR1 */
  TIMx->CCMR1 = tmpccmrx;
 8004b98:	6182      	str	r2, [r0, #24]

  /* Set the Capture Compare Register value */
  TIMx->CCR1 = OC_Config->Pulse;
 8004b9a:	684a      	ldr	r2, [r1, #4]
 8004b9c:	6342      	str	r2, [r0, #52]	@ 0x34

  /* Write to TIMx CCER */
  TIMx->CCER = tmpccer;
 8004b9e:	6203      	str	r3, [r0, #32]
}
 8004ba0:	bd70      	pop	{r4, r5, r6, pc}
 8004ba2:	bf00      	nop
 8004ba4:	40012c00 	.word	0x40012c00

08004ba8 <TIM_OC3_SetConfig>:
  uint32_t tmpccmrx;
  uint32_t tmpccer;
  uint32_t tmpcr2;

  /* Get the TIMx CCER register value */
  tmpccer = TIMx->CCER;
 8004ba8:	6a03      	ldr	r3, [r0, #32]

  /* Disable the Channel 3: Reset the CC2E Bit */
  TIMx->CCER &= ~TIM_CCER_CC3E;
 8004baa:	6a02      	ldr	r2, [r0, #32]
 8004bac:	f422 7280 	bic.w	r2, r2, #256	@ 0x100
{
 8004bb0:	b570      	push	{r4, r5, r6, lr}
  TIMx->CCER &= ~TIM_CCER_CC3E;
 8004bb2:	6202      	str	r2, [r0, #32]

  /* Get the TIMx CR2 register value */
  tmpcr2 =  TIMx->CR2;
 8004bb4:	6844      	ldr	r4, [r0, #4]

  /* Get the TIMx CCMR2 register value */
  tmpccmrx = TIMx->CCMR2;
 8004bb6:	69c2      	ldr	r2, [r0, #28]

  /* Reset the Output Compare mode and Capture/Compare selection Bits */
  tmpccmrx &= ~TIM_CCMR2_OC3M;
  tmpccmrx &= ~TIM_CCMR2_CC3S;
  /* Select the Output Compare Mode */
  tmpccmrx |= OC_Config->OCMode;
 8004bb8:	680d      	ldr	r5, [r1, #0]
  tmpccmrx &= ~TIM_CCMR2_CC3S;
 8004bba:	f422 3280 	bic.w	r2, r2, #65536	@ 0x10000
 8004bbe:	f022 0273 	bic.w	r2, r2, #115	@ 0x73
  tmpccmrx |= OC_Config->OCMode;
 8004bc2:	432a      	orrs	r2, r5

  /* Reset the Output Polarity level */
  tmpccer &= ~TIM_CCER_CC3P;
  /* Set the Output Compare Polarity */
  tmpccer |= (OC_Config->OCPolarity << 8U);
 8004bc4:	688d      	ldr	r5, [r1, #8]
  tmpccer &= ~TIM_CCER_CC3P;
 8004bc6:	f423 7300 	bic.w	r3, r3, #512	@ 0x200
  tmpccer |= (OC_Config->OCPolarity << 8U);
 8004bca:	ea43 2305 	orr.w	r3, r3, r5, lsl #8

  if (IS_TIM_CCXN_INSTANCE(TIMx, TIM_CHANNEL_3))
 8004bce:	4d15      	ldr	r5, [pc, #84]	@ (8004c24 <TIM_OC3_SetConfig+0x7c>)
 8004bd0:	42a8      	cmp	r0, r5
 8004bd2:	d007      	beq.n	8004be4 <TIM_OC3_SetConfig+0x3c>
 8004bd4:	f505 6500 	add.w	r5, r5, #2048	@ 0x800
 8004bd8:	42a8      	cmp	r0, r5
 8004bda:	d003      	beq.n	8004be4 <TIM_OC3_SetConfig+0x3c>
 8004bdc:	f505 55e0 	add.w	r5, r5, #7168	@ 0x1c00
 8004be0:	42a8      	cmp	r0, r5
 8004be2:	d10e      	bne.n	8004c02 <TIM_OC3_SetConfig+0x5a>
    assert_param(IS_TIM_OCN_POLARITY(OC_Config->OCNPolarity));

    /* Reset the Output N Polarity level */
    tmpccer &= ~TIM_CCER_CC3NP;
    /* Set the Output N Polarity */
    tmpccer |= (OC_Config->OCNPolarity << 8U);
 8004be4:	68cd      	ldr	r5, [r1, #12]
    tmpccer &= ~TIM_CCER_CC3NP;
 8004be6:	f423 6300 	bic.w	r3, r3, #2048	@ 0x800
    tmpccer |= (OC_Config->OCNPolarity << 8U);
 8004bea:	ea43 2305 	orr.w	r3, r3, r5, lsl #8
    /* Reset the Output N State */
    tmpccer &= ~TIM_CCER_CC3NE;
 8004bee:	f423 6380 	bic.w	r3, r3, #1024	@ 0x400
    assert_param(IS_TIM_OCNIDLE_STATE(OC_Config->OCNIdleState));
    assert_param(IS_TIM_OCIDLE_STATE(OC_Config->OCIdleState));

    /* Reset the Output Compare and Output Compare N IDLE State */
    tmpcr2 &= ~TIM_CR2_OIS3;
    tmpcr2 &= ~TIM_CR2_OIS3N;
 8004bf2:	f424 5540 	bic.w	r5, r4, #12288	@ 0x3000
    /* Set the Output Idle state */
    tmpcr2 |= (OC_Config->OCIdleState << 4U);
    /* Set the Output N Idle state */
    tmpcr2 |= (OC_Config->OCNIdleState << 4U);
 8004bf6:	e9d1 4605 	ldrd	r4, r6, [r1, #20]
 8004bfa:	4334      	orrs	r4, r6
 8004bfc:	ea45 1404 	orr.w	r4, r5, r4, lsl #4
 8004c00:	e009      	b.n	8004c16 <TIM_OC3_SetConfig+0x6e>
  if (IS_TIM_BREAK_INSTANCE(TIMx))
 8004c02:	4d09      	ldr	r5, [pc, #36]	@ (8004c28 <TIM_OC3_SetConfig+0x80>)
 8004c04:	42a8      	cmp	r0, r5
 8004c06:	d0f4      	beq.n	8004bf2 <TIM_OC3_SetConfig+0x4a>
 8004c08:	4d08      	ldr	r5, [pc, #32]	@ (8004c2c <TIM_OC3_SetConfig+0x84>)
 8004c0a:	42a8      	cmp	r0, r5
 8004c0c:	d0f1      	beq.n	8004bf2 <TIM_OC3_SetConfig+0x4a>
 8004c0e:	f505 6580 	add.w	r5, r5, #1024	@ 0x400
 8004c12:	42a8      	cmp	r0, r5
 8004c14:	d0ed      	beq.n	8004bf2 <TIM_OC3_SetConfig+0x4a>
  }

  /* Write to TIMx CR2 */
  TIMx->CR2 = tmpcr2;
 8004c16:	6044      	str	r4, [r0, #4]

  /* Write to TIMx CCMR2 */
  TIMx->CCMR2 = tmpccmrx;
 8004c18:	61c2      	str	r2, [r0, #28]

  /* Set the Capture Compare Register value */
  TIMx->CCR3 = OC_Config->Pulse;
 8004c1a:	684a      	ldr	r2, [r1, #4]
 8004c1c:	63c2      	str	r2, [r0, #60]	@ 0x3c

  /* Write to TIMx CCER */
  TIMx->CCER = tmpccer;
 8004c1e:	6203      	str	r3, [r0, #32]
}
 8004c20:	bd70      	pop	{r4, r5, r6, pc}
 8004c22:	bf00      	nop
 8004c24:	40012c00 	.word	0x40012c00
 8004c28:	40014000 	.word	0x40014000
 8004c2c:	40014400 	.word	0x40014400

08004c30 <TIM_OC4_SetConfig>:
  uint32_t tmpccmrx;
  uint32_t tmpccer;
  uint32_t tmpcr2;

  /* Get the TIMx CCER register value */
  tmpccer = TIMx->CCER;
 8004c30:	6a03      	ldr	r3, [r0, #32]

  /* Disable the Channel 4: Reset the CC4E Bit */
  TIMx->CCER &= ~TIM_CCER_CC4E;
 8004c32:	6a02      	ldr	r2, [r0, #32]
 8004c34:	f422 5280 	bic.w	r2, r2, #4096	@ 0x1000
{
 8004c38:	b570      	push	{r4, r5, r6, lr}
  TIMx->CCER &= ~TIM_CCER_CC4E;
 8004c3a:	6202      	str	r2, [r0, #32]

  /* Get the TIMx CR2 register value */
  tmpcr2 =  TIMx->CR2;
 8004c3c:	6844      	ldr	r4, [r0, #4]

  /* Get the TIMx CCMR2 register value */
  tmpccmrx = TIMx->CCMR2;
 8004c3e:	69c2      	ldr	r2, [r0, #28]
  /* Reset the Output Compare mode and Capture/Compare selection Bits */
  tmpccmrx &= ~TIM_CCMR2_OC4M;
  tmpccmrx &= ~TIM_CCMR2_CC4S;

  /* Select the Output Compare Mode */
  tmpccmrx |= (OC_Config->OCMode << 8U);
 8004c40:	680d      	ldr	r5, [r1, #0]
  tmpccmrx &= ~TIM_CCMR2_CC4S;
 8004c42:	f022 7280 	bic.w	r2, r2, #16777216	@ 0x1000000
 8004c46:	f422 42e6 	bic.w	r2, r2, #29440	@ 0x7300
  tmpccmrx |= (OC_Config->OCMode << 8U);
 8004c4a:	ea42 2205 	orr.w	r2, r2, r5, lsl #8

  /* Reset the Output Polarity level */
  tmpccer &= ~TIM_CCER_CC4P;
  /* Set the Output Compare Polarity */
  tmpccer |= (OC_Config->OCPolarity << 12U);
 8004c4e:	688d      	ldr	r5, [r1, #8]
  tmpccer &= ~TIM_CCER_CC4P;
 8004c50:	f423 5300 	bic.w	r3, r3, #8192	@ 0x2000
  tmpccer |= (OC_Config->OCPolarity << 12U);
 8004c54:	ea43 3305 	orr.w	r3, r3, r5, lsl #12

  if (IS_TIM_CCXN_INSTANCE(TIMx, TIM_CHANNEL_4))
 8004c58:	4d14      	ldr	r5, [pc, #80]	@ (8004cac <TIM_OC4_SetConfig+0x7c>)
 8004c5a:	42a8      	cmp	r0, r5
 8004c5c:	d007      	beq.n	8004c6e <TIM_OC4_SetConfig+0x3e>
 8004c5e:	f505 6500 	add.w	r5, r5, #2048	@ 0x800
 8004c62:	42a8      	cmp	r0, r5
 8004c64:	d003      	beq.n	8004c6e <TIM_OC4_SetConfig+0x3e>
 8004c66:	f505 55e0 	add.w	r5, r5, #7168	@ 0x1c00
 8004c6a:	42a8      	cmp	r0, r5
 8004c6c:	d10e      	bne.n	8004c8c <TIM_OC4_SetConfig+0x5c>
    assert_param(IS_TIM_OCN_POLARITY(OC_Config->OCNPolarity));

    /* Reset the Output N Polarity level */
    tmpccer &= ~TIM_CCER_CC4NP;
    /* Set the Output N Polarity */
    tmpccer |= (OC_Config->OCNPolarity << 12U);
 8004c6e:	68cd      	ldr	r5, [r1, #12]
    tmpccer &= ~TIM_CCER_CC4NP;
 8004c70:	f423 4300 	bic.w	r3, r3, #32768	@ 0x8000
    tmpccer |= (OC_Config->OCNPolarity << 12U);
 8004c74:	ea43 3305 	orr.w	r3, r3, r5, lsl #12
    /* Reset the Output N State */
    tmpccer &= ~TIM_CCER_CC4NE;
 8004c78:	f423 4380 	bic.w	r3, r3, #16384	@ 0x4000
    assert_param(IS_TIM_OCIDLE_STATE(OC_Config->OCIdleState));

    /* Reset the Output Compare IDLE State */
    tmpcr2 &= ~TIM_CR2_OIS4;
    /* Reset the Output Compare N IDLE State */
    tmpcr2 &= ~TIM_CR2_OIS4N;
 8004c7c:	f424 4540 	bic.w	r5, r4, #49152	@ 0xc000

    /* Set the Output Idle state */
    tmpcr2 |= (OC_Config->OCIdleState << 6U);
    /* Set the Output N Idle state */
    tmpcr2 |= (OC_Config->OCNIdleState << 6U);
 8004c80:	e9d1 4605 	ldrd	r4, r6, [r1, #20]
 8004c84:	4334      	orrs	r4, r6
 8004c86:	ea45 1484 	orr.w	r4, r5, r4, lsl #6
 8004c8a:	e009      	b.n	8004ca0 <TIM_OC4_SetConfig+0x70>
  if (IS_TIM_BREAK_INSTANCE(TIMx))
 8004c8c:	4d08      	ldr	r5, [pc, #32]	@ (8004cb0 <TIM_OC4_SetConfig+0x80>)
 8004c8e:	42a8      	cmp	r0, r5
 8004c90:	d0f4      	beq.n	8004c7c <TIM_OC4_SetConfig+0x4c>
 8004c92:	4d08      	ldr	r5, [pc, #32]	@ (8004cb4 <TIM_OC4_SetConfig+0x84>)
 8004c94:	42a8      	cmp	r0, r5
 8004c96:	d0f1      	beq.n	8004c7c <TIM_OC4_SetConfig+0x4c>
 8004c98:	f505 6580 	add.w	r5, r5, #1024	@ 0x400
 8004c9c:	42a8      	cmp	r0, r5
 8004c9e:	d0ed      	beq.n	8004c7c <TIM_OC4_SetConfig+0x4c>
  }

  /* Write to TIMx CR2 */
  TIMx->CR2 = tmpcr2;
 8004ca0:	6044      	str	r4, [r0, #4]

  /* Write to TIMx CCMR2 */
  TIMx->CCMR2 = tmpccmrx;
 8004ca2:	61c2      	str	r2, [r0, #28]

  /* Set the Capture Compare Register value */
  TIMx->CCR4 = OC_Config->Pulse;
 8004ca4:	684a      	ldr	r2, [r1, #4]
 8004ca6:	6402      	str	r2, [r0, #64]	@ 0x40

  /* Write to TIMx CCER */
  TIMx->CCER = tmpccer;
 8004ca8:	6203      	str	r3, [r0, #32]
}
 8004caa:	bd70      	pop	{r4, r5, r6, pc}
 8004cac:	40012c00 	.word	0x40012c00
 8004cb0:	40014000 	.word	0x40014000
 8004cb4:	40014400 	.word	0x40014400

08004cb8 <TIM_OC5_SetConfig>:
  uint32_t tmpccmrx;
  uint32_t tmpccer;
  uint32_t tmpcr2;

  /* Get the TIMx CCER register value */
  tmpccer = TIMx->CCER;
 8004cb8:	6a03      	ldr	r3, [r0, #32]

  /* Disable the output: Reset the CCxE Bit */
  TIMx->CCER &= ~TIM_CCER_CC5E;
 8004cba:	6a02      	ldr	r2, [r0, #32]
 8004cbc:	f422 3280 	bic.w	r2, r2, #65536	@ 0x10000
{
 8004cc0:	b530      	push	{r4, r5, lr}
  TIMx->CCER &= ~TIM_CCER_CC5E;
 8004cc2:	6202      	str	r2, [r0, #32]

  /* Get the TIMx CR2 register value */
  tmpcr2 =  TIMx->CR2;
 8004cc4:	6844      	ldr	r4, [r0, #4]
  /* Get the TIMx CCMR1 register value */
  tmpccmrx = TIMx->CCMR3;
 8004cc6:	6d02      	ldr	r2, [r0, #80]	@ 0x50

  /* Reset the Output Compare Mode Bits */
  tmpccmrx &= ~(TIM_CCMR3_OC5M);
  /* Select the Output Compare Mode */
  tmpccmrx |= OC_Config->OCMode;
 8004cc8:	680d      	ldr	r5, [r1, #0]
  tmpccmrx &= ~(TIM_CCMR3_OC5M);
 8004cca:	f422 3280 	bic.w	r2, r2, #65536	@ 0x10000
 8004cce:	f022 0270 	bic.w	r2, r2, #112	@ 0x70
  tmpccmrx |= OC_Config->OCMode;
 8004cd2:	432a      	orrs	r2, r5

  /* Reset the Output Polarity level */
  tmpccer &= ~TIM_CCER_CC5P;
  /* Set the Output Compare Polarity */
  tmpccer |= (OC_Config->OCPolarity << 16U);
 8004cd4:	688d      	ldr	r5, [r1, #8]
  tmpccer &= ~TIM_CCER_CC5P;
 8004cd6:	f423 3300 	bic.w	r3, r3, #131072	@ 0x20000
  tmpccer |= (OC_Config->OCPolarity << 16U);
 8004cda:	ea43 4305 	orr.w	r3, r3, r5, lsl #16

  if (IS_TIM_BREAK_INSTANCE(TIMx))
 8004cde:	4d11      	ldr	r5, [pc, #68]	@ (8004d24 <TIM_OC5_SetConfig+0x6c>)
 8004ce0:	42a8      	cmp	r0, r5
 8004ce2:	d013      	beq.n	8004d0c <TIM_OC5_SetConfig+0x54>
 8004ce4:	f505 6500 	add.w	r5, r5, #2048	@ 0x800
 8004ce8:	42a8      	cmp	r0, r5
 8004cea:	d00f      	beq.n	8004d0c <TIM_OC5_SetConfig+0x54>
 8004cec:	f505 6540 	add.w	r5, r5, #3072	@ 0xc00
 8004cf0:	42a8      	cmp	r0, r5
 8004cf2:	d00b      	beq.n	8004d0c <TIM_OC5_SetConfig+0x54>
 8004cf4:	f505 6580 	add.w	r5, r5, #1024	@ 0x400
 8004cf8:	42a8      	cmp	r0, r5
 8004cfa:	d007      	beq.n	8004d0c <TIM_OC5_SetConfig+0x54>
 8004cfc:	f505 6580 	add.w	r5, r5, #1024	@ 0x400
 8004d00:	42a8      	cmp	r0, r5
 8004d02:	d003      	beq.n	8004d0c <TIM_OC5_SetConfig+0x54>
 8004d04:	f505 6500 	add.w	r5, r5, #2048	@ 0x800
 8004d08:	42a8      	cmp	r0, r5
 8004d0a:	d104      	bne.n	8004d16 <TIM_OC5_SetConfig+0x5e>
  {
    /* Reset the Output Compare IDLE State */
    tmpcr2 &= ~TIM_CR2_OIS5;
    /* Set the Output Idle state */
    tmpcr2 |= (OC_Config->OCIdleState << 8U);
 8004d0c:	694d      	ldr	r5, [r1, #20]
    tmpcr2 &= ~TIM_CR2_OIS5;
 8004d0e:	f424 3480 	bic.w	r4, r4, #65536	@ 0x10000
    tmpcr2 |= (OC_Config->OCIdleState << 8U);
 8004d12:	ea44 2405 	orr.w	r4, r4, r5, lsl #8
  }
  /* Write to TIMx CR2 */
  TIMx->CR2 = tmpcr2;
 8004d16:	6044      	str	r4, [r0, #4]

  /* Write to TIMx CCMR3 */
  TIMx->CCMR3 = tmpccmrx;
 8004d18:	6502      	str	r2, [r0, #80]	@ 0x50

  /* Set the Capture Compare Register value */
  TIMx->CCR5 = OC_Config->Pulse;
 8004d1a:	684a      	ldr	r2, [r1, #4]
 8004d1c:	6482      	str	r2, [r0, #72]	@ 0x48

  /* Write to TIMx CCER */
  TIMx->CCER = tmpccer;
 8004d1e:	6203      	str	r3, [r0, #32]
}
 8004d20:	bd30      	pop	{r4, r5, pc}
 8004d22:	bf00      	nop
 8004d24:	40012c00 	.word	0x40012c00

08004d28 <TIM_OC6_SetConfig>:
  uint32_t tmpccmrx;
  uint32_t tmpccer;
  uint32_t tmpcr2;

  /* Get the TIMx CCER register value */
  tmpccer = TIMx->CCER;
 8004d28:	6a03      	ldr	r3, [r0, #32]

  /* Disable the output: Reset the CCxE Bit */
  TIMx->CCER &= ~TIM_CCER_CC6E;
 8004d2a:	6a02      	ldr	r2, [r0, #32]
 8004d2c:	f422 1280 	bic.w	r2, r2, #1048576	@ 0x100000
{
 8004d30:	b530      	push	{r4, r5, lr}
  TIMx->CCER &= ~TIM_CCER_CC6E;
 8004d32:	6202      	str	r2, [r0, #32]

  /* Get the TIMx CR2 register value */
  tmpcr2 =  TIMx->CR2;
 8004d34:	6844      	ldr	r4, [r0, #4]
  /* Get the TIMx CCMR1 register value */
  tmpccmrx = TIMx->CCMR3;
 8004d36:	6d02      	ldr	r2, [r0, #80]	@ 0x50

  /* Reset the Output Compare Mode Bits */
  tmpccmrx &= ~(TIM_CCMR3_OC6M);
  /* Select the Output Compare Mode */
  tmpccmrx |= (OC_Config->OCMode << 8U);
 8004d38:	680d      	ldr	r5, [r1, #0]
  tmpccmrx &= ~(TIM_CCMR3_OC6M);
 8004d3a:	f022 7280 	bic.w	r2, r2, #16777216	@ 0x1000000
 8004d3e:	f422 42e0 	bic.w	r2, r2, #28672	@ 0x7000
  tmpccmrx |= (OC_Config->OCMode << 8U);
 8004d42:	ea42 2205 	orr.w	r2, r2, r5, lsl #8

  /* Reset the Output Polarity level */
  tmpccer &= (uint32_t)~TIM_CCER_CC6P;
  /* Set the Output Compare Polarity */
  tmpccer |= (OC_Config->OCPolarity << 20U);
 8004d46:	688d      	ldr	r5, [r1, #8]
  tmpccer &= (uint32_t)~TIM_CCER_CC6P;
 8004d48:	f423 1300 	bic.w	r3, r3, #2097152	@ 0x200000
  tmpccer |= (OC_Config->OCPolarity << 20U);
 8004d4c:	ea43 5305 	orr.w	r3, r3, r5, lsl #20

  if (IS_TIM_BREAK_INSTANCE(TIMx))
 8004d50:	4d10      	ldr	r5, [pc, #64]	@ (8004d94 <TIM_OC6_SetConfig+0x6c>)
 8004d52:	42a8      	cmp	r0, r5
 8004d54:	d013      	beq.n	8004d7e <TIM_OC6_SetConfig+0x56>
 8004d56:	f505 6500 	add.w	r5, r5, #2048	@ 0x800
 8004d5a:	42a8      	cmp	r0, r5
 8004d5c:	d00f      	beq.n	8004d7e <TIM_OC6_SetConfig+0x56>
 8004d5e:	f505 6540 	add.w	r5, r5, #3072	@ 0xc00
 8004d62:	42a8      	cmp	r0, r5
 8004d64:	d00b      	beq.n	8004d7e <TIM_OC6_SetConfig+0x56>
 8004d66:	f505 6580 	add.w	r5, r5, #1024	@ 0x400
 8004d6a:	42a8      	cmp	r0, r5
 8004d6c:	d007      	beq.n	8004d7e <TIM_OC6_SetConfig+0x56>
 8004d6e:	f505 6580 	add.w	r5, r5, #1024	@ 0x400
 8004d72:	42a8      	cmp	r0, r5
 8004d74:	d003      	beq.n	8004d7e <TIM_OC6_SetConfig+0x56>
 8004d76:	f505 6500 	add.w	r5, r5, #2048	@ 0x800
 8004d7a:	42a8      	cmp	r0, r5
 8004d7c:	d104      	bne.n	8004d88 <TIM_OC6_SetConfig+0x60>
  {
    /* Reset the Output Compare IDLE State */
    tmpcr2 &= ~TIM_CR2_OIS6;
    /* Set the Output Idle state */
    tmpcr2 |= (OC_Config->OCIdleState << 10U);
 8004d7e:	694d      	ldr	r5, [r1, #20]
    tmpcr2 &= ~TIM_CR2_OIS6;
 8004d80:	f424 2480 	bic.w	r4, r4, #262144	@ 0x40000
    tmpcr2 |= (OC_Config->OCIdleState << 10U);
 8004d84:	ea44 2485 	orr.w	r4, r4, r5, lsl #10
  }

  /* Write to TIMx CR2 */
  TIMx->CR2 = tmpcr2;
 8004d88:	6044      	str	r4, [r0, #4]

  /* Write to TIMx CCMR3 */
  TIMx->CCMR3 = tmpccmrx;
 8004d8a:	6502      	str	r2, [r0, #80]	@ 0x50

  /* Set the Capture Compare Register value */
  TIMx->CCR6 = OC_Config->Pulse;
 8004d8c:	684a      	ldr	r2, [r1, #4]
 8004d8e:	64c2      	str	r2, [r0, #76]	@ 0x4c

  /* Write to TIMx CCER */
  TIMx->CCER = tmpccer;
 8004d90:	6203      	str	r3, [r0, #32]
}
 8004d92:	bd30      	pop	{r4, r5, pc}
 8004d94:	40012c00 	.word	0x40012c00

08004d98 <HAL_TIM_Base_Start_IT>:
  if (htim->State != HAL_TIM_STATE_READY)
 8004d98:	f890 303d 	ldrb.w	r3, [r0, #61]	@ 0x3d
 8004d9c:	2b01      	cmp	r3, #1
 8004d9e:	d133      	bne.n	8004e08 <HAL_TIM_Base_Start_IT+0x70>
  htim->State = HAL_TIM_STATE_BUSY;
 8004da0:	2302      	movs	r3, #2
 8004da2:	f880 303d 	strb.w	r3, [r0, #61]	@ 0x3d
  __HAL_TIM_ENABLE_IT(htim, TIM_IT_UPDATE);
 8004da6:	6803      	ldr	r3, [r0, #0]
 8004da8:	68da      	ldr	r2, [r3, #12]
 8004daa:	f042 0201 	orr.w	r2, r2, #1
 8004dae:	60da      	str	r2, [r3, #12]
  if (IS_TIM_SLAVE_INSTANCE(htim->Instance))
 8004db0:	4a16      	ldr	r2, [pc, #88]	@ (8004e0c <HAL_TIM_Base_Start_IT+0x74>)
 8004db2:	4293      	cmp	r3, r2
 8004db4:	d01a      	beq.n	8004dec <HAL_TIM_Base_Start_IT+0x54>
 8004db6:	f1b3 4f80 	cmp.w	r3, #1073741824	@ 0x40000000
 8004dba:	d017      	beq.n	8004dec <HAL_TIM_Base_Start_IT+0x54>
 8004dbc:	f5a2 3294 	sub.w	r2, r2, #75776	@ 0x12800
 8004dc0:	4293      	cmp	r3, r2
 8004dc2:	d013      	beq.n	8004dec <HAL_TIM_Base_Start_IT+0x54>
 8004dc4:	f502 6280 	add.w	r2, r2, #1024	@ 0x400
 8004dc8:	4293      	cmp	r3, r2
 8004dca:	d00f      	beq.n	8004dec <HAL_TIM_Base_Start_IT+0x54>
 8004dcc:	f502 6280 	add.w	r2, r2, #1024	@ 0x400
 8004dd0:	4293      	cmp	r3, r2
 8004dd2:	d00b      	beq.n	8004dec <HAL_TIM_Base_Start_IT+0x54>
 8004dd4:	f502 3294 	add.w	r2, r2, #75776	@ 0x12800
 8004dd8:	4293      	cmp	r3, r2
 8004dda:	d007      	beq.n	8004dec <HAL_TIM_Base_Start_IT+0x54>
 8004ddc:	f502 6240 	add.w	r2, r2, #3072	@ 0xc00
 8004de0:	4293      	cmp	r3, r2
 8004de2:	d003      	beq.n	8004dec <HAL_TIM_Base_Start_IT+0x54>
 8004de4:	f502 5280 	add.w	r2, r2, #4096	@ 0x1000
 8004de8:	4293      	cmp	r3, r2
 8004dea:	d107      	bne.n	8004dfc <HAL_TIM_Base_Start_IT+0x64>
    tmpsmcr = htim->Instance->SMCR & TIM_SMCR_SMS;
 8004dec:	6899      	ldr	r1, [r3, #8]
 8004dee:	4a08      	ldr	r2, [pc, #32]	@ (8004e10 <HAL_TIM_Base_Start_IT+0x78>)
 8004df0:	400a      	ands	r2, r1
    if (!IS_TIM_SLAVEMODE_TRIGGER_ENABLED(tmpsmcr))
 8004df2:	2a06      	cmp	r2, #6
 8004df4:	d006      	beq.n	8004e04 <HAL_TIM_Base_Start_IT+0x6c>
 8004df6:	f5b2 3f80 	cmp.w	r2, #65536	@ 0x10000
 8004dfa:	d003      	beq.n	8004e04 <HAL_TIM_Base_Start_IT+0x6c>
      __HAL_TIM_ENABLE(htim);
 8004dfc:	681a      	ldr	r2, [r3, #0]
 8004dfe:	f042 0201 	orr.w	r2, r2, #1
 8004e02:	601a      	str	r2, [r3, #0]
  return HAL_OK;
 8004e04:	2000      	movs	r0, #0
 8004e06:	4770      	bx	lr
    return HAL_ERROR;
 8004e08:	2001      	movs	r0, #1
}
 8004e0a:	4770      	bx	lr
 8004e0c:	40012c00 	.word	0x40012c00
 8004e10:	00010007 	.word	0x00010007

08004e14 <HAL_TIM_OC_DelayElapsedCallback>:
__weak void HAL_TIM_OC_DelayElapsedCallback(TIM_HandleTypeDef *htim)
 8004e14:	4770      	bx	lr

08004e16 <HAL_TIM_IC_CaptureCallback>:
__weak void HAL_TIM_IC_CaptureCallback(TIM_HandleTypeDef *htim)
 8004e16:	4770      	bx	lr

08004e18 <HAL_TIM_PWM_PulseFinishedCallback>:
__weak void HAL_TIM_PWM_PulseFinishedCallback(TIM_HandleTypeDef *htim)
 8004e18:	4770      	bx	lr

08004e1a <HAL_TIM_TriggerCallback>:
__weak void HAL_TIM_TriggerCallback(TIM_HandleTypeDef *htim)
 8004e1a:	4770      	bx	lr

08004e1c <HAL_TIM_IRQHandler>:
  uint32_t itsource = htim->Instance->DIER;
 8004e1c:	6803      	ldr	r3, [r0, #0]
{
 8004e1e:	b570      	push	{r4, r5, r6, lr}
  uint32_t itsource = htim->Instance->DIER;
 8004e20:	68dd      	ldr	r5, [r3, #12]
  uint32_t itflag   = htim->Instance->SR;
 8004e22:	691e      	ldr	r6, [r3, #16]
  if ((itflag & (TIM_FLAG_CC1)) == (TIM_FLAG_CC1))
 8004e24:	07b2      	lsls	r2, r6, #30
{
 8004e26:	4604      	mov	r4, r0
  if ((itflag & (TIM_FLAG_CC1)) == (TIM_FLAG_CC1))
 8004e28:	d50e      	bpl.n	8004e48 <HAL_TIM_IRQHandler+0x2c>
    if ((itsource & (TIM_IT_CC1)) == (TIM_IT_CC1))
 8004e2a:	07a9      	lsls	r1, r5, #30
 8004e2c:	d50c      	bpl.n	8004e48 <HAL_TIM_IRQHandler+0x2c>
        __HAL_TIM_CLEAR_FLAG(htim, TIM_FLAG_CC1);
 8004e2e:	f06f 0202 	mvn.w	r2, #2
 8004e32:	611a      	str	r2, [r3, #16]
        htim->Channel = HAL_TIM_ACTIVE_CHANNEL_1;
 8004e34:	2201      	movs	r2, #1
 8004e36:	7702      	strb	r2, [r0, #28]
        if ((htim->Instance->CCMR1 & TIM_CCMR1_CC1S) != 0x00U)
 8004e38:	699b      	ldr	r3, [r3, #24]
 8004e3a:	079a      	lsls	r2, r3, #30
 8004e3c:	f000 80a4 	beq.w	8004f88 <HAL_TIM_IRQHandler+0x16c>
          HAL_TIM_IC_CaptureCallback(htim);
 8004e40:	f7ff ffe9 	bl	8004e16 <HAL_TIM_IC_CaptureCallback>
        htim->Channel = HAL_TIM_ACTIVE_CHANNEL_CLEARED;
 8004e44:	2300      	movs	r3, #0
 8004e46:	7723      	strb	r3, [r4, #28]
  if ((itflag & (TIM_FLAG_CC2)) == (TIM_FLAG_CC2))
 8004e48:	0773      	lsls	r3, r6, #29
 8004e4a:	d511      	bpl.n	8004e70 <HAL_TIM_IRQHandler+0x54>
    if ((itsource & (TIM_IT_CC2)) == (TIM_IT_CC2))
 8004e4c:	0768      	lsls	r0, r5, #29
 8004e4e:	d50f      	bpl.n	8004e70 <HAL_TIM_IRQHandler+0x54>
      __HAL_TIM_CLEAR_FLAG(htim, TIM_FLAG_CC2);
 8004e50:	6823      	ldr	r3, [r4, #0]
 8004e52:	f06f 0204 	mvn.w	r2, #4
 8004e56:	611a      	str	r2, [r3, #16]
      htim->Channel = HAL_TIM_ACTIVE_CHANNEL_2;
 8004e58:	2202      	movs	r2, #2
 8004e5a:	7722      	strb	r2, [r4, #28]
      if ((htim->Instance->CCMR1 & TIM_CCMR1_CC2S) != 0x00U)
 8004e5c:	699b      	ldr	r3, [r3, #24]
 8004e5e:	f413 7f40 	tst.w	r3, #768	@ 0x300
        HAL_TIM_IC_CaptureCallback(htim);
 8004e62:	4620      	mov	r0, r4
      if ((htim->Instance->CCMR1 & TIM_CCMR1_CC2S) != 0x00U)
 8004e64:	f000 8096 	beq.w	8004f94 <HAL_TIM_IRQHandler+0x178>
        HAL_TIM_IC_CaptureCallback(htim);
 8004e68:	f7ff ffd5 	bl	8004e16 <HAL_TIM_IC_CaptureCallback>
      htim->Channel = HAL_TIM_ACTIVE_CHANNEL_CLEARED;
 8004e6c:	2300      	movs	r3, #0
 8004e6e:	7723      	strb	r3, [r4, #28]
  if ((itflag & (TIM_FLAG_CC3)) == (TIM_FLAG_CC3))
 8004e70:	0731      	lsls	r1, r6, #28
 8004e72:	d510      	bpl.n	8004e96 <HAL_TIM_IRQHandler+0x7a>
    if ((itsource & (TIM_IT_CC3)) == (TIM_IT_CC3))
 8004e74:	072a      	lsls	r2, r5, #28
 8004e76:	d50e      	bpl.n	8004e96 <HAL_TIM_IRQHandler+0x7a>
      __HAL_TIM_CLEAR_FLAG(htim, TIM_FLAG_CC3);
 8004e78:	6823      	ldr	r3, [r4, #0]
 8004e7a:	f06f 0208 	mvn.w	r2, #8
 8004e7e:	611a      	str	r2, [r3, #16]
      htim->Channel = HAL_TIM_ACTIVE_CHANNEL_3;
 8004e80:	2204      	movs	r2, #4
 8004e82:	7722      	strb	r2, [r4, #28]
      if ((htim->Instance->CCMR2 & TIM_CCMR2_CC3S) != 0x00U)
 8004e84:	69db      	ldr	r3, [r3, #28]
 8004e86:	079b      	lsls	r3, r3, #30
        HAL_TIM_IC_CaptureCallback(htim);
 8004e88:	4620      	mov	r0, r4
      if ((htim->Instance->CCMR2 & TIM_CCMR2_CC3S) != 0x00U)
 8004e8a:	f000 8089 	beq.w	8004fa0 <HAL_TIM_IRQHandler+0x184>
        HAL_TIM_IC_CaptureCallback(htim);
 8004e8e:	f7ff ffc2 	bl	8004e16 <HAL_TIM_IC_CaptureCallback>
      htim->Channel = HAL_TIM_ACTIVE_CHANNEL_CLEARED;
 8004e92:	2300      	movs	r3, #0
 8004e94:	7723      	strb	r3, [r4, #28]
  if ((itflag & (TIM_FLAG_CC4)) == (TIM_FLAG_CC4))
 8004e96:	06f1      	lsls	r1, r6, #27
 8004e98:	d510      	bpl.n	8004ebc <HAL_TIM_IRQHandler+0xa0>
    if ((itsource & (TIM_IT_CC4)) == (TIM_IT_CC4))
 8004e9a:	06ea      	lsls	r2, r5, #27
 8004e9c:	d50e      	bpl.n	8004ebc <HAL_TIM_IRQHandler+0xa0>
      __HAL_TIM_CLEAR_FLAG(htim, TIM_FLAG_CC4);
 8004e9e:	6823      	ldr	r3, [r4, #0]
 8004ea0:	f06f 0210 	mvn.w	r2, #16
 8004ea4:	611a      	str	r2, [r3, #16]
      htim->Channel = HAL_TIM_ACTIVE_CHANNEL_4;
 8004ea6:	2208      	movs	r2, #8
 8004ea8:	7722      	strb	r2, [r4, #28]
      if ((htim->Instance->CCMR2 & TIM_CCMR2_CC4S) != 0x00U)
 8004eaa:	69db      	ldr	r3, [r3, #28]
 8004eac:	f413 7f40 	tst.w	r3, #768	@ 0x300
        HAL_TIM_IC_CaptureCallback(htim);
 8004eb0:	4620      	mov	r0, r4
      if ((htim->Instance->CCMR2 & TIM_CCMR2_CC4S) != 0x00U)
 8004eb2:	d07b      	beq.n	8004fac <HAL_TIM_IRQHandler+0x190>
        HAL_TIM_IC_CaptureCallback(htim);
 8004eb4:	f7ff ffaf 	bl	8004e16 <HAL_TIM_IC_CaptureCallback>
      htim->Channel = HAL_TIM_ACTIVE_CHANNEL_CLEARED;
 8004eb8:	2300      	movs	r3, #0
 8004eba:	7723      	strb	r3, [r4, #28]
  if ((itflag & (TIM_FLAG_UPDATE)) == (TIM_FLAG_UPDATE))
 8004ebc:	07f3      	lsls	r3, r6, #31
 8004ebe:	d508      	bpl.n	8004ed2 <HAL_TIM_IRQHandler+0xb6>
    if ((itsource & (TIM_IT_UPDATE)) == (TIM_IT_UPDATE))
 8004ec0:	07e8      	lsls	r0, r5, #31
 8004ec2:	d506      	bpl.n	8004ed2 <HAL_TIM_IRQHandler+0xb6>
      __HAL_TIM_CLEAR_FLAG(htim, TIM_FLAG_UPDATE);
 8004ec4:	6823      	ldr	r3, [r4, #0]
 8004ec6:	f06f 0201 	mvn.w	r2, #1
 8004eca:	611a      	str	r2, [r3, #16]
      HAL_TIM_PeriodElapsedCallback(htim);
 8004ecc:	4620      	mov	r0, r4
 8004ece:	f7fc ffa7 	bl	8001e20 <HAL_TIM_PeriodElapsedCallback>
  if (((itflag & (TIM_FLAG_BREAK)) == (TIM_FLAG_BREAK)) || \
 8004ed2:	f416 5f02 	tst.w	r6, #8320	@ 0x2080
 8004ed6:	d008      	beq.n	8004eea <HAL_TIM_IRQHandler+0xce>
    if ((itsource & (TIM_IT_BREAK)) == (TIM_IT_BREAK))
 8004ed8:	0629      	lsls	r1, r5, #24
 8004eda:	d506      	bpl.n	8004eea <HAL_TIM_IRQHandler+0xce>
      __HAL_TIM_CLEAR_FLAG(htim, TIM_FLAG_BREAK | TIM_FLAG_SYSTEM_BREAK);
 8004edc:	6823      	ldr	r3, [r4, #0]
 8004ede:	f46f 5202 	mvn.w	r2, #8320	@ 0x2080
 8004ee2:	611a      	str	r2, [r3, #16]
      HAL_TIMEx_BreakCallback(htim);
 8004ee4:	4620      	mov	r0, r4
 8004ee6:	f000 fb2a 	bl	800553e <HAL_TIMEx_BreakCallback>
  if ((itflag & (TIM_FLAG_BREAK2)) == (TIM_FLAG_BREAK2))
 8004eea:	05f2      	lsls	r2, r6, #23
 8004eec:	d508      	bpl.n	8004f00 <HAL_TIM_IRQHandler+0xe4>
    if ((itsource & (TIM_IT_BREAK)) == (TIM_IT_BREAK))
 8004eee:	062b      	lsls	r3, r5, #24
 8004ef0:	d506      	bpl.n	8004f00 <HAL_TIM_IRQHandler+0xe4>
      __HAL_TIM_CLEAR_FLAG(htim, TIM_FLAG_BREAK2);
 8004ef2:	6823      	ldr	r3, [r4, #0]
 8004ef4:	f46f 7280 	mvn.w	r2, #256	@ 0x100
 8004ef8:	611a      	str	r2, [r3, #16]
      HAL_TIMEx_Break2Callback(htim);
 8004efa:	4620      	mov	r0, r4
 8004efc:	f000 fb20 	bl	8005540 <HAL_TIMEx_Break2Callback>
  if ((itflag & (TIM_FLAG_TRIGGER)) == (TIM_FLAG_TRIGGER))
 8004f00:	0670      	lsls	r0, r6, #25
 8004f02:	d508      	bpl.n	8004f16 <HAL_TIM_IRQHandler+0xfa>
    if ((itsource & (TIM_IT_TRIGGER)) == (TIM_IT_TRIGGER))
 8004f04:	0669      	lsls	r1, r5, #25
 8004f06:	d506      	bpl.n	8004f16 <HAL_TIM_IRQHandler+0xfa>
      __HAL_TIM_CLEAR_FLAG(htim, TIM_FLAG_TRIGGER);
 8004f08:	6823      	ldr	r3, [r4, #0]
 8004f0a:	f06f 0240 	mvn.w	r2, #64	@ 0x40
 8004f0e:	611a      	str	r2, [r3, #16]
      HAL_TIM_TriggerCallback(htim);
 8004f10:	4620      	mov	r0, r4
 8004f12:	f7ff ff82 	bl	8004e1a <HAL_TIM_TriggerCallback>
  if ((itflag & (TIM_FLAG_COM)) == (TIM_FLAG_COM))
 8004f16:	06b2      	lsls	r2, r6, #26
 8004f18:	d508      	bpl.n	8004f2c <HAL_TIM_IRQHandler+0x110>
    if ((itsource & (TIM_IT_COM)) == (TIM_IT_COM))
 8004f1a:	06ab      	lsls	r3, r5, #26
 8004f1c:	d506      	bpl.n	8004f2c <HAL_TIM_IRQHandler+0x110>
      __HAL_TIM_CLEAR_FLAG(htim, TIM_FLAG_COM);
 8004f1e:	6823      	ldr	r3, [r4, #0]
 8004f20:	f06f 0220 	mvn.w	r2, #32
 8004f24:	611a      	str	r2, [r3, #16]
      HAL_TIMEx_CommutCallback(htim);
 8004f26:	4620      	mov	r0, r4
 8004f28:	f000 fb08 	bl	800553c <HAL_TIMEx_CommutCallback>
  if ((itflag & (TIM_FLAG_IDX)) == (TIM_FLAG_IDX))
 8004f2c:	02f0      	lsls	r0, r6, #11
 8004f2e:	d508      	bpl.n	8004f42 <HAL_TIM_IRQHandler+0x126>
    if ((itsource & (TIM_IT_IDX)) == (TIM_IT_IDX))
 8004f30:	02e9      	lsls	r1, r5, #11
 8004f32:	d506      	bpl.n	8004f42 <HAL_TIM_IRQHandler+0x126>
      __HAL_TIM_CLEAR_FLAG(htim, TIM_FLAG_IDX);
 8004f34:	6823      	ldr	r3, [r4, #0]
 8004f36:	f46f 1280 	mvn.w	r2, #1048576	@ 0x100000
 8004f3a:	611a      	str	r2, [r3, #16]
      HAL_TIMEx_EncoderIndexCallback(htim);
 8004f3c:	4620      	mov	r0, r4
 8004f3e:	f000 fb00 	bl	8005542 <HAL_TIMEx_EncoderIndexCallback>
  if ((itflag & (TIM_FLAG_DIR)) == (TIM_FLAG_DIR))
 8004f42:	02b2      	lsls	r2, r6, #10
 8004f44:	d508      	bpl.n	8004f58 <HAL_TIM_IRQHandler+0x13c>
    if ((itsource & (TIM_IT_DIR)) == (TIM_IT_DIR))
 8004f46:	02ab      	lsls	r3, r5, #10
 8004f48:	d506      	bpl.n	8004f58 <HAL_TIM_IRQHandler+0x13c>
      __HAL_TIM_CLEAR_FLAG(htim, TIM_FLAG_DIR);
 8004f4a:	6823      	ldr	r3, [r4, #0]
 8004f4c:	f46f 1200 	mvn.w	r2, #2097152	@ 0x200000
 8004f50:	611a      	str	r2, [r3, #16]
      HAL_TIMEx_DirectionChangeCallback(htim);
 8004f52:	4620      	mov	r0, r4
 8004f54:	f000 faf6 	bl	8005544 <HAL_TIMEx_DirectionChangeCallback>
  if ((itflag & (TIM_FLAG_IERR)) == (TIM_FLAG_IERR))
 8004f58:	0270      	lsls	r0, r6, #9
 8004f5a:	d508      	bpl.n	8004f6e <HAL_TIM_IRQHandler+0x152>
    if ((itsource & (TIM_IT_IERR)) == (TIM_IT_IERR))
 8004f5c:	0269      	lsls	r1, r5, #9
 8004f5e:	d506      	bpl.n	8004f6e <HAL_TIM_IRQHandler+0x152>
      __HAL_TIM_CLEAR_FLAG(htim, TIM_FLAG_IERR);
 8004f60:	6823      	ldr	r3, [r4, #0]
 8004f62:	f46f 0280 	mvn.w	r2, #4194304	@ 0x400000
 8004f66:	611a      	str	r2, [r3, #16]
      HAL_TIMEx_IndexErrorCallback(htim);
 8004f68:	4620      	mov	r0, r4
 8004f6a:	f000 faec 	bl	8005546 <HAL_TIMEx_IndexErrorCallback>
  if ((itflag & (TIM_FLAG_TERR)) == (TIM_FLAG_TERR))
 8004f6e:	0232      	lsls	r2, r6, #8
 8004f70:	d522      	bpl.n	8004fb8 <HAL_TIM_IRQHandler+0x19c>
    if ((itsource & (TIM_IT_TERR)) == (TIM_IT_TERR))
 8004f72:	022b      	lsls	r3, r5, #8
 8004f74:	d520      	bpl.n	8004fb8 <HAL_TIM_IRQHandler+0x19c>
      __HAL_TIM_CLEAR_FLAG(htim, TIM_FLAG_TERR);
 8004f76:	6823      	ldr	r3, [r4, #0]
 8004f78:	f46f 0200 	mvn.w	r2, #8388608	@ 0x800000
      HAL_TIMEx_TransitionErrorCallback(htim);
 8004f7c:	4620      	mov	r0, r4
      __HAL_TIM_CLEAR_FLAG(htim, TIM_FLAG_TERR);
 8004f7e:	611a      	str	r2, [r3, #16]
}
 8004f80:	e8bd 4070 	ldmia.w	sp!, {r4, r5, r6, lr}
      HAL_TIMEx_TransitionErrorCallback(htim);
 8004f84:	f000 bae0 	b.w	8005548 <HAL_TIMEx_TransitionErrorCallback>
          HAL_TIM_OC_DelayElapsedCallback(htim);
 8004f88:	f7ff ff44 	bl	8004e14 <HAL_TIM_OC_DelayElapsedCallback>
          HAL_TIM_PWM_PulseFinishedCallback(htim);
 8004f8c:	4620      	mov	r0, r4
 8004f8e:	f7ff ff43 	bl	8004e18 <HAL_TIM_PWM_PulseFinishedCallback>
 8004f92:	e757      	b.n	8004e44 <HAL_TIM_IRQHandler+0x28>
        HAL_TIM_OC_DelayElapsedCallback(htim);
 8004f94:	f7ff ff3e 	bl	8004e14 <HAL_TIM_OC_DelayElapsedCallback>
        HAL_TIM_PWM_PulseFinishedCallback(htim);
 8004f98:	4620      	mov	r0, r4
 8004f9a:	f7ff ff3d 	bl	8004e18 <HAL_TIM_PWM_PulseFinishedCallback>
 8004f9e:	e765      	b.n	8004e6c <HAL_TIM_IRQHandler+0x50>
        HAL_TIM_OC_DelayElapsedCallback(htim);
 8004fa0:	f7ff ff38 	bl	8004e14 <HAL_TIM_OC_DelayElapsedCallback>
        HAL_TIM_PWM_PulseFinishedCallback(htim);
 8004fa4:	4620      	mov	r0, r4
 8004fa6:	f7ff ff37 	bl	8004e18 <HAL_TIM_PWM_PulseFinishedCallback>
 8004faa:	e772      	b.n	8004e92 <HAL_TIM_IRQHandler+0x76>
        HAL_TIM_OC_DelayElapsedCallback(htim);
 8004fac:	f7ff ff32 	bl	8004e14 <HAL_TIM_OC_DelayElapsedCallback>
        HAL_TIM_PWM_PulseFinishedCallback(htim);
 8004fb0:	4620      	mov	r0, r4
 8004fb2:	f7ff ff31 	bl	8004e18 <HAL_TIM_PWM_PulseFinishedCallback>
 8004fb6:	e77f      	b.n	8004eb8 <HAL_TIM_IRQHandler+0x9c>
}
 8004fb8:	bd70      	pop	{r4, r5, r6, pc}
	...

08004fbc <TIM_Base_SetConfig>:
  if (IS_TIM_COUNTER_MODE_SELECT_INSTANCE(TIMx))
 8004fbc:	4a2d      	ldr	r2, [pc, #180]	@ (8005074 <TIM_Base_SetConfig+0xb8>)
  tmpcr1 = TIMx->CR1;
 8004fbe:	6803      	ldr	r3, [r0, #0]
  if (IS_TIM_COUNTER_MODE_SELECT_INSTANCE(TIMx))
 8004fc0:	4290      	cmp	r0, r2
 8004fc2:	d016      	beq.n	8004ff2 <TIM_Base_SetConfig+0x36>
 8004fc4:	f1b0 4f80 	cmp.w	r0, #1073741824	@ 0x40000000
 8004fc8:	d013      	beq.n	8004ff2 <TIM_Base_SetConfig+0x36>
 8004fca:	f5a2 3294 	sub.w	r2, r2, #75776	@ 0x12800
 8004fce:	4290      	cmp	r0, r2
 8004fd0:	d00f      	beq.n	8004ff2 <TIM_Base_SetConfig+0x36>
 8004fd2:	f502 6280 	add.w	r2, r2, #1024	@ 0x400
 8004fd6:	4290      	cmp	r0, r2
 8004fd8:	d00b      	beq.n	8004ff2 <TIM_Base_SetConfig+0x36>
 8004fda:	f502 6280 	add.w	r2, r2, #1024	@ 0x400
 8004fde:	4290      	cmp	r0, r2
 8004fe0:	d007      	beq.n	8004ff2 <TIM_Base_SetConfig+0x36>
 8004fe2:	f502 3294 	add.w	r2, r2, #75776	@ 0x12800
 8004fe6:	4290      	cmp	r0, r2
 8004fe8:	d003      	beq.n	8004ff2 <TIM_Base_SetConfig+0x36>
 8004fea:	f502 52e0 	add.w	r2, r2, #7168	@ 0x1c00
 8004fee:	4290      	cmp	r0, r2
 8004ff0:	d108      	bne.n	8005004 <TIM_Base_SetConfig+0x48>
    tmpcr1 |= Structure->CounterMode;
 8004ff2:	684a      	ldr	r2, [r1, #4]
    tmpcr1 &= ~(TIM_CR1_DIR | TIM_CR1_CMS);
 8004ff4:	f023 0370 	bic.w	r3, r3, #112	@ 0x70
    tmpcr1 |= Structure->CounterMode;
 8004ff8:	4313      	orrs	r3, r2
    tmpcr1 |= (uint32_t)Structure->ClockDivision;
 8004ffa:	68ca      	ldr	r2, [r1, #12]
    tmpcr1 &= ~TIM_CR1_CKD;
 8004ffc:	f423 7340 	bic.w	r3, r3, #768	@ 0x300
    tmpcr1 |= (uint32_t)Structure->ClockDivision;
 8005000:	4313      	orrs	r3, r2
 8005002:	e00a      	b.n	800501a <TIM_Base_SetConfig+0x5e>
  if (IS_TIM_CLOCK_DIVISION_INSTANCE(TIMx))
 8005004:	4a1c      	ldr	r2, [pc, #112]	@ (8005078 <TIM_Base_SetConfig+0xbc>)
 8005006:	4290      	cmp	r0, r2
 8005008:	d0f7      	beq.n	8004ffa <TIM_Base_SetConfig+0x3e>
 800500a:	f502 6280 	add.w	r2, r2, #1024	@ 0x400
 800500e:	4290      	cmp	r0, r2
 8005010:	d0f3      	beq.n	8004ffa <TIM_Base_SetConfig+0x3e>
 8005012:	f502 6280 	add.w	r2, r2, #1024	@ 0x400
 8005016:	4290      	cmp	r0, r2
 8005018:	d0ef      	beq.n	8004ffa <TIM_Base_SetConfig+0x3e>
  MODIFY_REG(tmpcr1, TIM_CR1_ARPE, Structure->AutoReloadPreload);
 800501a:	694a      	ldr	r2, [r1, #20]
 800501c:	f023 0380 	bic.w	r3, r3, #128	@ 0x80
 8005020:	4313      	orrs	r3, r2
  TIMx->CR1 = tmpcr1;
 8005022:	6003      	str	r3, [r0, #0]
  TIMx->ARR = (uint32_t)Structure->Period ;
 8005024:	688b      	ldr	r3, [r1, #8]
 8005026:	62c3      	str	r3, [r0, #44]	@ 0x2c
  TIMx->PSC = Structure->Prescaler;
 8005028:	680b      	ldr	r3, [r1, #0]
 800502a:	6283      	str	r3, [r0, #40]	@ 0x28
  if (IS_TIM_REPETITION_COUNTER_INSTANCE(TIMx))
 800502c:	4b11      	ldr	r3, [pc, #68]	@ (8005074 <TIM_Base_SetConfig+0xb8>)
 800502e:	4298      	cmp	r0, r3
 8005030:	d013      	beq.n	800505a <TIM_Base_SetConfig+0x9e>
 8005032:	f503 6300 	add.w	r3, r3, #2048	@ 0x800
 8005036:	4298      	cmp	r0, r3
 8005038:	d00f      	beq.n	800505a <TIM_Base_SetConfig+0x9e>
 800503a:	f503 6340 	add.w	r3, r3, #3072	@ 0xc00
 800503e:	4298      	cmp	r0, r3
 8005040:	d00b      	beq.n	800505a <TIM_Base_SetConfig+0x9e>
 8005042:	f503 6380 	add.w	r3, r3, #1024	@ 0x400
 8005046:	4298      	cmp	r0, r3
 8005048:	d007      	beq.n	800505a <TIM_Base_SetConfig+0x9e>
 800504a:	f503 6380 	add.w	r3, r3, #1024	@ 0x400
 800504e:	4298      	cmp	r0, r3
 8005050:	d003      	beq.n	800505a <TIM_Base_SetConfig+0x9e>
 8005052:	f503 6300 	add.w	r3, r3, #2048	@ 0x800
 8005056:	4298      	cmp	r0, r3
 8005058:	d101      	bne.n	800505e <TIM_Base_SetConfig+0xa2>
    TIMx->RCR = Structure->RepetitionCounter;
 800505a:	690b      	ldr	r3, [r1, #16]
 800505c:	6303      	str	r3, [r0, #48]	@ 0x30
  TIMx->EGR = TIM_EGR_UG;
 800505e:	2301      	movs	r3, #1
 8005060:	6143      	str	r3, [r0, #20]
  if (HAL_IS_BIT_SET(TIMx->SR, TIM_FLAG_UPDATE))
 8005062:	6903      	ldr	r3, [r0, #16]
 8005064:	07db      	lsls	r3, r3, #31
    CLEAR_BIT(TIMx->SR, TIM_FLAG_UPDATE);
 8005066:	bf42      	ittt	mi
 8005068:	6903      	ldrmi	r3, [r0, #16]
 800506a:	f023 0301 	bicmi.w	r3, r3, #1
 800506e:	6103      	strmi	r3, [r0, #16]
}
 8005070:	4770      	bx	lr
 8005072:	bf00      	nop
 8005074:	40012c00 	.word	0x40012c00
 8005078:	40014000 	.word	0x40014000

0800507c <HAL_TIM_Base_Init>:
{
 800507c:	b510      	push	{r4, lr}
  if (htim == NULL)
 800507e:	4604      	mov	r4, r0
 8005080:	b350      	cbz	r0, 80050d8 <HAL_TIM_Base_Init+0x5c>
  if (htim->State == HAL_TIM_STATE_RESET)
 8005082:	f890 303d 	ldrb.w	r3, [r0, #61]	@ 0x3d
 8005086:	f003 02ff 	and.w	r2, r3, #255	@ 0xff
 800508a:	b91b      	cbnz	r3, 8005094 <HAL_TIM_Base_Init+0x18>
    htim->Lock = HAL_UNLOCKED;
 800508c:	f880 203c 	strb.w	r2, [r0, #60]	@ 0x3c
    HAL_TIM_Base_MspInit(htim);
 8005090:	f7fd f908 	bl	80022a4 <HAL_TIM_Base_MspInit>
  htim->State = HAL_TIM_STATE_BUSY;
 8005094:	2302      	movs	r3, #2
  TIM_Base_SetConfig(htim->Instance, &htim->Init);
 8005096:	6820      	ldr	r0, [r4, #0]
  htim->State = HAL_TIM_STATE_BUSY;
 8005098:	f884 303d 	strb.w	r3, [r4, #61]	@ 0x3d
  TIM_Base_SetConfig(htim->Instance, &htim->Init);
 800509c:	1d21      	adds	r1, r4, #4
 800509e:	f7ff ff8d 	bl	8004fbc <TIM_Base_SetConfig>
  htim->DMABurstState = HAL_DMA_BURST_STATE_READY;
 80050a2:	2301      	movs	r3, #1
 80050a4:	f884 3048 	strb.w	r3, [r4, #72]	@ 0x48
  return HAL_OK;
 80050a8:	2000      	movs	r0, #0
  TIM_CHANNEL_STATE_SET_ALL(htim, HAL_TIM_CHANNEL_STATE_READY);
 80050aa:	f884 303e 	strb.w	r3, [r4, #62]	@ 0x3e
 80050ae:	f884 303f 	strb.w	r3, [r4, #63]	@ 0x3f
 80050b2:	f884 3040 	strb.w	r3, [r4, #64]	@ 0x40
 80050b6:	f884 3041 	strb.w	r3, [r4, #65]	@ 0x41
 80050ba:	f884 3042 	strb.w	r3, [r4, #66]	@ 0x42
 80050be:	f884 3043 	strb.w	r3, [r4, #67]	@ 0x43
  TIM_CHANNEL_N_STATE_SET_ALL(htim, HAL_TIM_CHANNEL_STATE_READY);
 80050c2:	f884 3044 	strb.w	r3, [r4, #68]	@ 0x44
 80050c6:	f884 3045 	strb.w	r3, [r4, #69]	@ 0x45
 80050ca:	f884 3046 	strb.w	r3, [r4, #70]	@ 0x46
 80050ce:	f884 3047 	strb.w	r3, [r4, #71]	@ 0x47
  htim->State = HAL_TIM_STATE_READY;
 80050d2:	f884 303d 	strb.w	r3, [r4, #61]	@ 0x3d
}
 80050d6:	bd10      	pop	{r4, pc}
    return HAL_ERROR;
 80050d8:	2001      	movs	r0, #1
 80050da:	e7fc      	b.n	80050d6 <HAL_TIM_Base_Init+0x5a>

080050dc <HAL_TIM_PWM_Init>:
{
 80050dc:	b510      	push	{r4, lr}
  if (htim == NULL)
 80050de:	4604      	mov	r4, r0
 80050e0:	b350      	cbz	r0, 8005138 <HAL_TIM_PWM_Init+0x5c>
  if (htim->State == HAL_TIM_STATE_RESET)
 80050e2:	f890 303d 	ldrb.w	r3, [r0, #61]	@ 0x3d
 80050e6:	f003 02ff 	and.w	r2, r3, #255	@ 0xff
 80050ea:	b91b      	cbnz	r3, 80050f4 <HAL_TIM_PWM_Init+0x18>
    htim->Lock = HAL_UNLOCKED;
 80050ec:	f880 203c 	strb.w	r2, [r0, #60]	@ 0x3c
    HAL_TIM_PWM_MspInit(htim);
 80050f0:	f7fd f854 	bl	800219c <HAL_TIM_PWM_MspInit>
  htim->State = HAL_TIM_STATE_BUSY;
 80050f4:	2302      	movs	r3, #2
  TIM_Base_SetConfig(htim->Instance, &htim->Init);
 80050f6:	6820      	ldr	r0, [r4, #0]
  htim->State = HAL_TIM_STATE_BUSY;
 80050f8:	f884 303d 	strb.w	r3, [r4, #61]	@ 0x3d
  TIM_Base_SetConfig(htim->Instance, &htim->Init);
 80050fc:	1d21      	adds	r1, r4, #4
 80050fe:	f7ff ff5d 	bl	8004fbc <TIM_Base_SetConfig>
  htim->DMABurstState = HAL_DMA_BURST_STATE_READY;
 8005102:	2301      	movs	r3, #1
 8005104:	f884 3048 	strb.w	r3, [r4, #72]	@ 0x48
  return HAL_OK;
 8005108:	2000      	movs	r0, #0
  TIM_CHANNEL_STATE_SET_ALL(htim, HAL_TIM_CHANNEL_STATE_READY);
 800510a:	f884 303e 	strb.w	r3, [r4, #62]	@ 0x3e
 800510e:	f884 303f 	strb.w	r3, [r4, #63]	@ 0x3f
 8005112:	f884 3040 	strb.w	r3, [r4, #64]	@ 0x40
 8005116:	f884 3041 	strb.w	r3, [r4, #65]	@ 0x41
 800511a:	f884 3042 	strb.w	r3, [r4, #66]	@ 0x42
 800511e:	f884 3043 	strb.w	r3, [r4, #67]	@ 0x43
  TIM_CHANNEL_N_STATE_SET_ALL(htim, HAL_TIM_CHANNEL_STATE_READY);
 8005122:	f884 3044 	strb.w	r3, [r4, #68]	@ 0x44
 8005126:	f884 3045 	strb.w	r3, [r4, #69]	@ 0x45
 800512a:	f884 3046 	strb.w	r3, [r4, #70]	@ 0x46
 800512e:	f884 3047 	strb.w	r3, [r4, #71]	@ 0x47
  htim->State = HAL_TIM_STATE_READY;
 8005132:	f884 303d 	strb.w	r3, [r4, #61]	@ 0x3d
}
 8005136:	bd10      	pop	{r4, pc}
    return HAL_ERROR;
 8005138:	2001      	movs	r0, #1
 800513a:	e7fc      	b.n	8005136 <HAL_TIM_PWM_Init+0x5a>

0800513c <TIM_OC2_SetConfig>:
  tmpccer = TIMx->CCER;
 800513c:	6a03      	ldr	r3, [r0, #32]
  TIMx->CCER &= ~TIM_CCER_CC2E;
 800513e:	6a02      	ldr	r2, [r0, #32]
 8005140:	f022 0210 	bic.w	r2, r2, #16
{
 8005144:	b570      	push	{r4, r5, r6, lr}
  TIMx->CCER &= ~TIM_CCER_CC2E;
 8005146:	6202      	str	r2, [r0, #32]
  tmpcr2 =  TIMx->CR2;
 8005148:	6844      	ldr	r4, [r0, #4]
  tmpccmrx = TIMx->CCMR1;
 800514a:	6982      	ldr	r2, [r0, #24]
  tmpccmrx |= (OC_Config->OCMode << 8U);
 800514c:	680d      	ldr	r5, [r1, #0]
  tmpccmrx &= ~TIM_CCMR1_CC2S;
 800514e:	f022 7280 	bic.w	r2, r2, #16777216	@ 0x1000000
 8005152:	f422 42e6 	bic.w	r2, r2, #29440	@ 0x7300
  tmpccmrx |= (OC_Config->OCMode << 8U);
 8005156:	ea42 2205 	orr.w	r2, r2, r5, lsl #8
  tmpccer |= (OC_Config->OCPolarity << 4U);
 800515a:	688d      	ldr	r5, [r1, #8]
  tmpccer &= ~TIM_CCER_CC2P;
 800515c:	f023 0320 	bic.w	r3, r3, #32
  tmpccer |= (OC_Config->OCPolarity << 4U);
 8005160:	ea43 1305 	orr.w	r3, r3, r5, lsl #4
  if (IS_TIM_CCXN_INSTANCE(TIMx, TIM_CHANNEL_2))
 8005164:	4d14      	ldr	r5, [pc, #80]	@ (80051b8 <TIM_OC2_SetConfig+0x7c>)
 8005166:	42a8      	cmp	r0, r5
 8005168:	d007      	beq.n	800517a <TIM_OC2_SetConfig+0x3e>
 800516a:	f505 6500 	add.w	r5, r5, #2048	@ 0x800
 800516e:	42a8      	cmp	r0, r5
 8005170:	d003      	beq.n	800517a <TIM_OC2_SetConfig+0x3e>
 8005172:	f505 55e0 	add.w	r5, r5, #7168	@ 0x1c00
 8005176:	42a8      	cmp	r0, r5
 8005178:	d10e      	bne.n	8005198 <TIM_OC2_SetConfig+0x5c>
    tmpccer |= (OC_Config->OCNPolarity << 4U);
 800517a:	68cd      	ldr	r5, [r1, #12]
    tmpccer &= ~TIM_CCER_CC2NP;
 800517c:	f023 0380 	bic.w	r3, r3, #128	@ 0x80
    tmpccer |= (OC_Config->OCNPolarity << 4U);
 8005180:	ea43 1305 	orr.w	r3, r3, r5, lsl #4
    tmpccer &= ~TIM_CCER_CC2NE;
 8005184:	f023 0340 	bic.w	r3, r3, #64	@ 0x40
    tmpcr2 &= ~TIM_CR2_OIS2N;
 8005188:	f424 6540 	bic.w	r5, r4, #3072	@ 0xc00
    tmpcr2 |= (OC_Config->OCNIdleState << 2U);
 800518c:	e9d1 4605 	ldrd	r4, r6, [r1, #20]
 8005190:	4334      	orrs	r4, r6
 8005192:	ea45 0484 	orr.w	r4, r5, r4, lsl #2
 8005196:	e009      	b.n	80051ac <TIM_OC2_SetConfig+0x70>
  if (IS_TIM_BREAK_INSTANCE(TIMx))
 8005198:	4d08      	ldr	r5, [pc, #32]	@ (80051bc <TIM_OC2_SetConfig+0x80>)
 800519a:	42a8      	cmp	r0, r5
 800519c:	d0f4      	beq.n	8005188 <TIM_OC2_SetConfig+0x4c>
 800519e:	4d08      	ldr	r5, [pc, #32]	@ (80051c0 <TIM_OC2_SetConfig+0x84>)
 80051a0:	42a8      	cmp	r0, r5
 80051a2:	d0f1      	beq.n	8005188 <TIM_OC2_SetConfig+0x4c>
 80051a4:	f505 6580 	add.w	r5, r5, #1024	@ 0x400
 80051a8:	42a8      	cmp	r0, r5
 80051aa:	d0ed      	beq.n	8005188 <TIM_OC2_SetConfig+0x4c>
  TIMx->CR2 = tmpcr2;
 80051ac:	6044      	str	r4, [r0, #4]
  TIMx->CCMR1 = tmpccmrx;
 80051ae:	6182      	str	r2, [r0, #24]
  TIMx->CCR2 = OC_Config->Pulse;
 80051b0:	684a      	ldr	r2, [r1, #4]
 80051b2:	6382      	str	r2, [r0, #56]	@ 0x38
  TIMx->CCER = tmpccer;
 80051b4:	6203      	str	r3, [r0, #32]
}
 80051b6:	bd70      	pop	{r4, r5, r6, pc}
 80051b8:	40012c00 	.word	0x40012c00
 80051bc:	40014000 	.word	0x40014000
 80051c0:	40014400 	.word	0x40014400

080051c4 <HAL_TIM_PWM_ConfigChannel>:
{
 80051c4:	b538      	push	{r3, r4, r5, lr}
  __HAL_LOCK(htim);
 80051c6:	f890 303c 	ldrb.w	r3, [r0, #60]	@ 0x3c
 80051ca:	2b01      	cmp	r3, #1
{
 80051cc:	4604      	mov	r4, r0
  __HAL_LOCK(htim);
 80051ce:	d073      	beq.n	80052b8 <HAL_TIM_PWM_ConfigChannel+0xf4>
 80051d0:	2001      	movs	r0, #1
  switch (Channel)
 80051d2:	2a0c      	cmp	r2, #12
  __HAL_LOCK(htim);
 80051d4:	f884 003c 	strb.w	r0, [r4, #60]	@ 0x3c
  switch (Channel)
 80051d8:	d04e      	beq.n	8005278 <HAL_TIM_PWM_ConfigChannel+0xb4>
 80051da:	d808      	bhi.n	80051ee <HAL_TIM_PWM_ConfigChannel+0x2a>
 80051dc:	2a04      	cmp	r2, #4
 80051de:	d02b      	beq.n	8005238 <HAL_TIM_PWM_ConfigChannel+0x74>
 80051e0:	2a08      	cmp	r2, #8
 80051e2:	d039      	beq.n	8005258 <HAL_TIM_PWM_ConfigChannel+0x94>
 80051e4:	b1ba      	cbz	r2, 8005216 <HAL_TIM_PWM_ConfigChannel+0x52>
  __HAL_UNLOCK(htim);
 80051e6:	2300      	movs	r3, #0
 80051e8:	f884 303c 	strb.w	r3, [r4, #60]	@ 0x3c
}
 80051ec:	bd38      	pop	{r3, r4, r5, pc}
  switch (Channel)
 80051ee:	2a10      	cmp	r2, #16
 80051f0:	d052      	beq.n	8005298 <HAL_TIM_PWM_ConfigChannel+0xd4>
 80051f2:	2a14      	cmp	r2, #20
 80051f4:	d1f7      	bne.n	80051e6 <HAL_TIM_PWM_ConfigChannel+0x22>
      TIM_OC6_SetConfig(htim->Instance, sConfig);
 80051f6:	6820      	ldr	r0, [r4, #0]
 80051f8:	f7ff fd96 	bl	8004d28 <TIM_OC6_SetConfig>
      htim->Instance->CCMR3 |= TIM_CCMR3_OC6PE;
 80051fc:	6d03      	ldr	r3, [r0, #80]	@ 0x50
      htim->Instance->CCMR3 |= sConfig->OCFastMode << 8U;
 80051fe:	690a      	ldr	r2, [r1, #16]
      htim->Instance->CCMR3 |= TIM_CCMR3_OC6PE;
 8005200:	f443 6300 	orr.w	r3, r3, #2048	@ 0x800
 8005204:	6503      	str	r3, [r0, #80]	@ 0x50
      htim->Instance->CCMR3 &= ~TIM_CCMR3_OC6FE;
 8005206:	6d03      	ldr	r3, [r0, #80]	@ 0x50
 8005208:	f423 6380 	bic.w	r3, r3, #1024	@ 0x400
 800520c:	6503      	str	r3, [r0, #80]	@ 0x50
      htim->Instance->CCMR3 |= sConfig->OCFastMode << 8U;
 800520e:	6d03      	ldr	r3, [r0, #80]	@ 0x50
 8005210:	ea43 2302 	orr.w	r3, r3, r2, lsl #8
 8005214:	e04e      	b.n	80052b4 <HAL_TIM_PWM_ConfigChannel+0xf0>
      TIM_OC1_SetConfig(htim->Instance, sConfig);
 8005216:	6820      	ldr	r0, [r4, #0]
 8005218:	f7ff fc88 	bl	8004b2c <TIM_OC1_SetConfig>
      htim->Instance->CCMR1 |= TIM_CCMR1_OC1PE;
 800521c:	6983      	ldr	r3, [r0, #24]
      htim->Instance->CCMR1 |= sConfig->OCFastMode;
 800521e:	690a      	ldr	r2, [r1, #16]
      htim->Instance->CCMR1 |= TIM_CCMR1_OC1PE;
 8005220:	f043 0308 	orr.w	r3, r3, #8
 8005224:	6183      	str	r3, [r0, #24]
      htim->Instance->CCMR1 &= ~TIM_CCMR1_OC1FE;
 8005226:	6983      	ldr	r3, [r0, #24]
 8005228:	f023 0304 	bic.w	r3, r3, #4
 800522c:	6183      	str	r3, [r0, #24]
      htim->Instance->CCMR1 |= sConfig->OCFastMode;
 800522e:	6983      	ldr	r3, [r0, #24]
 8005230:	4313      	orrs	r3, r2
      htim->Instance->CCMR1 |= sConfig->OCFastMode << 8U;
 8005232:	6183      	str	r3, [r0, #24]
  HAL_StatusTypeDef status = HAL_OK;
 8005234:	2000      	movs	r0, #0
 8005236:	e7d6      	b.n	80051e6 <HAL_TIM_PWM_ConfigChannel+0x22>
      TIM_OC2_SetConfig(htim->Instance, sConfig);
 8005238:	6820      	ldr	r0, [r4, #0]
 800523a:	f7ff ff7f 	bl	800513c <TIM_OC2_SetConfig>
      htim->Instance->CCMR1 |= TIM_CCMR1_OC2PE;
 800523e:	6983      	ldr	r3, [r0, #24]
      htim->Instance->CCMR1 |= sConfig->OCFastMode << 8U;
 8005240:	690a      	ldr	r2, [r1, #16]
      htim->Instance->CCMR1 |= TIM_CCMR1_OC2PE;
 8005242:	f443 6300 	orr.w	r3, r3, #2048	@ 0x800
 8005246:	6183      	str	r3, [r0, #24]
      htim->Instance->CCMR1 &= ~TIM_CCMR1_OC2FE;
 8005248:	6983      	ldr	r3, [r0, #24]
 800524a:	f423 6380 	bic.w	r3, r3, #1024	@ 0x400
 800524e:	6183      	str	r3, [r0, #24]
      htim->Instance->CCMR1 |= sConfig->OCFastMode << 8U;
 8005250:	6983      	ldr	r3, [r0, #24]
 8005252:	ea43 2302 	orr.w	r3, r3, r2, lsl #8
 8005256:	e7ec      	b.n	8005232 <HAL_TIM_PWM_ConfigChannel+0x6e>
      TIM_OC3_SetConfig(htim->Instance, sConfig);
 8005258:	6820      	ldr	r0, [r4, #0]
 800525a:	f7ff fca5 	bl	8004ba8 <TIM_OC3_SetConfig>
      htim->Instance->CCMR2 |= TIM_CCMR2_OC3PE;
 800525e:	69c3      	ldr	r3, [r0, #28]
      htim->Instance->CCMR2 |= sConfig->OCFastMode;
 8005260:	690a      	ldr	r2, [r1, #16]
      htim->Instance->CCMR2 |= TIM_CCMR2_OC3PE;
 8005262:	f043 0308 	orr.w	r3, r3, #8
 8005266:	61c3      	str	r3, [r0, #28]
      htim->Instance->CCMR2 &= ~TIM_CCMR2_OC3FE;
 8005268:	69c3      	ldr	r3, [r0, #28]
 800526a:	f023 0304 	bic.w	r3, r3, #4
 800526e:	61c3      	str	r3, [r0, #28]
      htim->Instance->CCMR2 |= sConfig->OCFastMode;
 8005270:	69c3      	ldr	r3, [r0, #28]
 8005272:	4313      	orrs	r3, r2
      htim->Instance->CCMR2 |= sConfig->OCFastMode << 8U;
 8005274:	61c3      	str	r3, [r0, #28]
      break;
 8005276:	e7dd      	b.n	8005234 <HAL_TIM_PWM_ConfigChannel+0x70>
      TIM_OC4_SetConfig(htim->Instance, sConfig);
 8005278:	6820      	ldr	r0, [r4, #0]
 800527a:	f7ff fcd9 	bl	8004c30 <TIM_OC4_SetConfig>
      htim->Instance->CCMR2 |= TIM_CCMR2_OC4PE;
 800527e:	69c3      	ldr	r3, [r0, #28]
      htim->Instance->CCMR2 |= sConfig->OCFastMode << 8U;
 8005280:	690a      	ldr	r2, [r1, #16]
      htim->Instance->CCMR2 |= TIM_CCMR2_OC4PE;
 8005282:	f443 6300 	orr.w	r3, r3, #2048	@ 0x800
 8005286:	61c3      	str	r3, [r0, #28]
      htim->Instance->CCMR2 &= ~TIM_CCMR2_OC4FE;
 8005288:	69c3      	ldr	r3, [r0, #28]
 800528a:	f423 6380 	bic.w	r3, r3, #1024	@ 0x400
 800528e:	61c3      	str	r3, [r0, #28]
      htim->Instance->CCMR2 |= sConfig->OCFastMode << 8U;
 8005290:	69c3      	ldr	r3, [r0, #28]
 8005292:	ea43 2302 	orr.w	r3, r3, r2, lsl #8
 8005296:	e7ed      	b.n	8005274 <HAL_TIM_PWM_ConfigChannel+0xb0>
      TIM_OC5_SetConfig(htim->Instance, sConfig);
 8005298:	6820      	ldr	r0, [r4, #0]
 800529a:	f7ff fd0d 	bl	8004cb8 <TIM_OC5_SetConfig>
      htim->Instance->CCMR3 |= TIM_CCMR3_OC5PE;
 800529e:	6d03      	ldr	r3, [r0, #80]	@ 0x50
      htim->Instance->CCMR3 |= sConfig->OCFastMode;
 80052a0:	690a      	ldr	r2, [r1, #16]
      htim->Instance->CCMR3 |= TIM_CCMR3_OC5PE;
 80052a2:	f043 0308 	orr.w	r3, r3, #8
 80052a6:	6503      	str	r3, [r0, #80]	@ 0x50
      htim->Instance->CCMR3 &= ~TIM_CCMR3_OC5FE;
 80052a8:	6d03      	ldr	r3, [r0, #80]	@ 0x50
 80052aa:	f023 0304 	bic.w	r3, r3, #4
 80052ae:	6503      	str	r3, [r0, #80]	@ 0x50
      htim->Instance->CCMR3 |= sConfig->OCFastMode;
 80052b0:	6d03      	ldr	r3, [r0, #80]	@ 0x50
 80052b2:	4313      	orrs	r3, r2
      htim->Instance->CCMR3 |= sConfig->OCFastMode << 8U;
 80052b4:	6503      	str	r3, [r0, #80]	@ 0x50
      break;
 80052b6:	e7bd      	b.n	8005234 <HAL_TIM_PWM_ConfigChannel+0x70>
  __HAL_LOCK(htim);
 80052b8:	2002      	movs	r0, #2
 80052ba:	e797      	b.n	80051ec <HAL_TIM_PWM_ConfigChannel+0x28>

080052bc <TIM_CCxChannelCmd>:
  assert_param(IS_TIM_CHANNELS(Channel));

  tmp = TIM_CCER_CC1E << (Channel & 0x1FU); /* 0x1FU = 31 bits max shift */

  /* Reset the CCxE Bit */
  TIMx->CCER &= ~tmp;
 80052bc:	6a03      	ldr	r3, [r0, #32]
{
 80052be:	b510      	push	{r4, lr}
  tmp = TIM_CCER_CC1E << (Channel & 0x1FU); /* 0x1FU = 31 bits max shift */
 80052c0:	f001 011f 	and.w	r1, r1, #31
 80052c4:	2401      	movs	r4, #1
 80052c6:	408c      	lsls	r4, r1
  TIMx->CCER &= ~tmp;
 80052c8:	ea23 0304 	bic.w	r3, r3, r4
 80052cc:	6203      	str	r3, [r0, #32]

  /* Set or reset the CCxE Bit */
  TIMx->CCER |= (uint32_t)(ChannelState << (Channel & 0x1FU)); /* 0x1FU = 31 bits max shift */
 80052ce:	6a03      	ldr	r3, [r0, #32]
 80052d0:	408a      	lsls	r2, r1
 80052d2:	431a      	orrs	r2, r3
 80052d4:	6202      	str	r2, [r0, #32]
}
 80052d6:	bd10      	pop	{r4, pc}

080052d8 <HAL_TIM_OC_Start>:
  if (TIM_CHANNEL_STATE_GET(htim, Channel) != HAL_TIM_CHANNEL_STATE_READY)
 80052d8:	2908      	cmp	r1, #8
{
 80052da:	b508      	push	{r3, lr}
 80052dc:	d018      	beq.n	8005310 <HAL_TIM_OC_Start+0x38>
 80052de:	d805      	bhi.n	80052ec <HAL_TIM_OC_Start+0x14>
 80052e0:	b159      	cbz	r1, 80052fa <HAL_TIM_OC_Start+0x22>
 80052e2:	2904      	cmp	r1, #4
 80052e4:	d011      	beq.n	800530a <HAL_TIM_OC_Start+0x32>
  if (TIM_CHANNEL_STATE_GET(htim, Channel) != HAL_TIM_CHANNEL_STATE_READY)
 80052e6:	f890 3043 	ldrb.w	r3, [r0, #67]	@ 0x43
 80052ea:	e008      	b.n	80052fe <HAL_TIM_OC_Start+0x26>
 80052ec:	290c      	cmp	r1, #12
 80052ee:	d012      	beq.n	8005316 <HAL_TIM_OC_Start+0x3e>
 80052f0:	2910      	cmp	r1, #16
 80052f2:	d1f8      	bne.n	80052e6 <HAL_TIM_OC_Start+0xe>
 80052f4:	f890 3042 	ldrb.w	r3, [r0, #66]	@ 0x42
 80052f8:	e001      	b.n	80052fe <HAL_TIM_OC_Start+0x26>
 80052fa:	f890 303e 	ldrb.w	r3, [r0, #62]	@ 0x3e
 80052fe:	3b01      	subs	r3, #1
 8005300:	bf18      	it	ne
 8005302:	2301      	movne	r3, #1
 8005304:	b153      	cbz	r3, 800531c <HAL_TIM_OC_Start+0x44>
    return HAL_ERROR;
 8005306:	2001      	movs	r0, #1
 8005308:	e049      	b.n	800539e <HAL_TIM_OC_Start+0xc6>
  if (TIM_CHANNEL_STATE_GET(htim, Channel) != HAL_TIM_CHANNEL_STATE_READY)
 800530a:	f890 303f 	ldrb.w	r3, [r0, #63]	@ 0x3f
 800530e:	e7f6      	b.n	80052fe <HAL_TIM_OC_Start+0x26>
 8005310:	f890 3040 	ldrb.w	r3, [r0, #64]	@ 0x40
 8005314:	e7f3      	b.n	80052fe <HAL_TIM_OC_Start+0x26>
 8005316:	f890 3041 	ldrb.w	r3, [r0, #65]	@ 0x41
 800531a:	e7f0      	b.n	80052fe <HAL_TIM_OC_Start+0x26>
  TIM_CHANNEL_STATE_SET(htim, Channel, HAL_TIM_CHANNEL_STATE_BUSY);
 800531c:	2908      	cmp	r1, #8
 800531e:	f04f 0302 	mov.w	r3, #2
 8005322:	d040      	beq.n	80053a6 <HAL_TIM_OC_Start+0xce>
 8005324:	d806      	bhi.n	8005334 <HAL_TIM_OC_Start+0x5c>
 8005326:	b161      	cbz	r1, 8005342 <HAL_TIM_OC_Start+0x6a>
 8005328:	2904      	cmp	r1, #4
 800532a:	d039      	beq.n	80053a0 <HAL_TIM_OC_Start+0xc8>
 800532c:	2302      	movs	r3, #2
 800532e:	f880 3043 	strb.w	r3, [r0, #67]	@ 0x43
 8005332:	e008      	b.n	8005346 <HAL_TIM_OC_Start+0x6e>
 8005334:	290c      	cmp	r1, #12
 8005336:	d039      	beq.n	80053ac <HAL_TIM_OC_Start+0xd4>
 8005338:	2910      	cmp	r1, #16
 800533a:	d1f7      	bne.n	800532c <HAL_TIM_OC_Start+0x54>
 800533c:	f880 3042 	strb.w	r3, [r0, #66]	@ 0x42
 8005340:	e001      	b.n	8005346 <HAL_TIM_OC_Start+0x6e>
 8005342:	f880 303e 	strb.w	r3, [r0, #62]	@ 0x3e
  TIM_CCxChannelCmd(htim->Instance, Channel, TIM_CCx_ENABLE);
 8005346:	6800      	ldr	r0, [r0, #0]
 8005348:	2201      	movs	r2, #1
 800534a:	f7ff ffb7 	bl	80052bc <TIM_CCxChannelCmd>
  if (IS_TIM_BREAK_INSTANCE(htim->Instance) != RESET)
 800534e:	4b27      	ldr	r3, [pc, #156]	@ (80053ec <HAL_TIM_OC_Start+0x114>)
 8005350:	4298      	cmp	r0, r3
 8005352:	d013      	beq.n	800537c <HAL_TIM_OC_Start+0xa4>
 8005354:	f503 6300 	add.w	r3, r3, #2048	@ 0x800
 8005358:	4298      	cmp	r0, r3
 800535a:	d00f      	beq.n	800537c <HAL_TIM_OC_Start+0xa4>
 800535c:	f503 6340 	add.w	r3, r3, #3072	@ 0xc00
 8005360:	4298      	cmp	r0, r3
 8005362:	d00b      	beq.n	800537c <HAL_TIM_OC_Start+0xa4>
 8005364:	f503 6380 	add.w	r3, r3, #1024	@ 0x400
 8005368:	4298      	cmp	r0, r3
 800536a:	d007      	beq.n	800537c <HAL_TIM_OC_Start+0xa4>
 800536c:	f503 6380 	add.w	r3, r3, #1024	@ 0x400
 8005370:	4298      	cmp	r0, r3
 8005372:	d003      	beq.n	800537c <HAL_TIM_OC_Start+0xa4>
 8005374:	f503 6300 	add.w	r3, r3, #2048	@ 0x800
 8005378:	4298      	cmp	r0, r3
 800537a:	d11a      	bne.n	80053b2 <HAL_TIM_OC_Start+0xda>
    __HAL_TIM_MOE_ENABLE(htim);
 800537c:	6c43      	ldr	r3, [r0, #68]	@ 0x44
 800537e:	f443 4300 	orr.w	r3, r3, #32768	@ 0x8000
 8005382:	6443      	str	r3, [r0, #68]	@ 0x44
  if (IS_TIM_SLAVE_INSTANCE(htim->Instance))
 8005384:	4b19      	ldr	r3, [pc, #100]	@ (80053ec <HAL_TIM_OC_Start+0x114>)
 8005386:	4298      	cmp	r0, r3
 8005388:	d003      	beq.n	8005392 <HAL_TIM_OC_Start+0xba>
 800538a:	f503 6300 	add.w	r3, r3, #2048	@ 0x800
 800538e:	4298      	cmp	r0, r3
 8005390:	d122      	bne.n	80053d8 <HAL_TIM_OC_Start+0x100>
    tmpsmcr = htim->Instance->SMCR & TIM_SMCR_SMS;
 8005392:	6882      	ldr	r2, [r0, #8]
 8005394:	4b16      	ldr	r3, [pc, #88]	@ (80053f0 <HAL_TIM_OC_Start+0x118>)
 8005396:	4013      	ands	r3, r2
    if (!IS_TIM_SLAVEMODE_TRIGGER_ENABLED(tmpsmcr))
 8005398:	2b06      	cmp	r3, #6
 800539a:	d123      	bne.n	80053e4 <HAL_TIM_OC_Start+0x10c>
  return HAL_OK;
 800539c:	2000      	movs	r0, #0
}
 800539e:	bd08      	pop	{r3, pc}
  TIM_CHANNEL_STATE_SET(htim, Channel, HAL_TIM_CHANNEL_STATE_BUSY);
 80053a0:	f880 303f 	strb.w	r3, [r0, #63]	@ 0x3f
 80053a4:	e7cf      	b.n	8005346 <HAL_TIM_OC_Start+0x6e>
 80053a6:	f880 3040 	strb.w	r3, [r0, #64]	@ 0x40
 80053aa:	e7cc      	b.n	8005346 <HAL_TIM_OC_Start+0x6e>
 80053ac:	f880 3041 	strb.w	r3, [r0, #65]	@ 0x41
 80053b0:	e7c9      	b.n	8005346 <HAL_TIM_OC_Start+0x6e>
  if (IS_TIM_SLAVE_INSTANCE(htim->Instance))
 80053b2:	f1b0 4f80 	cmp.w	r0, #1073741824	@ 0x40000000
 80053b6:	d0ec      	beq.n	8005392 <HAL_TIM_OC_Start+0xba>
 80053b8:	4b0e      	ldr	r3, [pc, #56]	@ (80053f4 <HAL_TIM_OC_Start+0x11c>)
 80053ba:	4298      	cmp	r0, r3
 80053bc:	d0e9      	beq.n	8005392 <HAL_TIM_OC_Start+0xba>
 80053be:	f503 6380 	add.w	r3, r3, #1024	@ 0x400
 80053c2:	4298      	cmp	r0, r3
 80053c4:	d0e5      	beq.n	8005392 <HAL_TIM_OC_Start+0xba>
 80053c6:	f503 6380 	add.w	r3, r3, #1024	@ 0x400
 80053ca:	4298      	cmp	r0, r3
 80053cc:	d0e1      	beq.n	8005392 <HAL_TIM_OC_Start+0xba>
      __HAL_TIM_ENABLE(htim);
 80053ce:	6803      	ldr	r3, [r0, #0]
 80053d0:	f043 0301 	orr.w	r3, r3, #1
 80053d4:	6003      	str	r3, [r0, #0]
 80053d6:	e7e1      	b.n	800539c <HAL_TIM_OC_Start+0xc4>
  if (IS_TIM_SLAVE_INSTANCE(htim->Instance))
 80053d8:	4b07      	ldr	r3, [pc, #28]	@ (80053f8 <HAL_TIM_OC_Start+0x120>)
 80053da:	4298      	cmp	r0, r3
 80053dc:	d0d9      	beq.n	8005392 <HAL_TIM_OC_Start+0xba>
 80053de:	f503 5380 	add.w	r3, r3, #4096	@ 0x1000
 80053e2:	e7f2      	b.n	80053ca <HAL_TIM_OC_Start+0xf2>
    if (!IS_TIM_SLAVEMODE_TRIGGER_ENABLED(tmpsmcr))
 80053e4:	f5b3 3f80 	cmp.w	r3, #65536	@ 0x10000
 80053e8:	d1f1      	bne.n	80053ce <HAL_TIM_OC_Start+0xf6>
 80053ea:	e7d7      	b.n	800539c <HAL_TIM_OC_Start+0xc4>
 80053ec:	40012c00 	.word	0x40012c00
 80053f0:	00010007 	.word	0x00010007
 80053f4:	40000400 	.word	0x40000400
 80053f8:	40014000 	.word	0x40014000

080053fc <HAL_TIM_PWM_Start>:
HAL_StatusTypeDef HAL_TIM_PWM_Start(TIM_HandleTypeDef *htim, uint32_t Channel)
 80053fc:	f7ff bf6c 	b.w	80052d8 <HAL_TIM_OC_Start>

08005400 <HAL_TIMEx_MasterConfigSynchronization>:
  *         mode.
  * @retval HAL status
  */
HAL_StatusTypeDef HAL_TIMEx_MasterConfigSynchronization(TIM_HandleTypeDef *htim,
                                                        const TIM_MasterConfigTypeDef *sMasterConfig)
{
 8005400:	b530      	push	{r4, r5, lr}
  assert_param(IS_TIM_MASTER_INSTANCE(htim->Instance));
  assert_param(IS_TIM_TRGO_SOURCE(sMasterConfig->MasterOutputTrigger));
  assert_param(IS_TIM_MSM_STATE(sMasterConfig->MasterSlaveMode));

  /* Check input state */
  __HAL_LOCK(htim);
 8005402:	f890 303c 	ldrb.w	r3, [r0, #60]	@ 0x3c
 8005406:	2b01      	cmp	r3, #1
{
 8005408:	4604      	mov	r4, r0
 800540a:	f04f 0002 	mov.w	r0, #2
  __HAL_LOCK(htim);
 800540e:	d043      	beq.n	8005498 <HAL_TIMEx_MasterConfigSynchronization+0x98>

  /* Change the handler state */
  htim->State = HAL_TIM_STATE_BUSY;

  /* Get the TIMx CR2 register value */
  tmpcr2 = htim->Instance->CR2;
 8005410:	6823      	ldr	r3, [r4, #0]

  /* Get the TIMx SMCR register value */
  tmpsmcr = htim->Instance->SMCR;

  /* If the timer supports ADC synchronization through TRGO2, set the master mode selection 2 */
  if (IS_TIM_TRGO2_INSTANCE(htim->Instance))
 8005412:	4d22      	ldr	r5, [pc, #136]	@ (800549c <HAL_TIMEx_MasterConfigSynchronization+0x9c>)
  htim->State = HAL_TIM_STATE_BUSY;
 8005414:	f884 003d 	strb.w	r0, [r4, #61]	@ 0x3d
  if (IS_TIM_TRGO2_INSTANCE(htim->Instance))
 8005418:	42ab      	cmp	r3, r5
  tmpcr2 = htim->Instance->CR2;
 800541a:	685a      	ldr	r2, [r3, #4]
  tmpsmcr = htim->Instance->SMCR;
 800541c:	6898      	ldr	r0, [r3, #8]
  if (IS_TIM_TRGO2_INSTANCE(htim->Instance))
 800541e:	d007      	beq.n	8005430 <HAL_TIMEx_MasterConfigSynchronization+0x30>
 8005420:	f505 6500 	add.w	r5, r5, #2048	@ 0x800
 8005424:	42ab      	cmp	r3, r5
 8005426:	d003      	beq.n	8005430 <HAL_TIMEx_MasterConfigSynchronization+0x30>
 8005428:	f505 55e0 	add.w	r5, r5, #7168	@ 0x1c00
 800542c:	42ab      	cmp	r3, r5
 800542e:	d103      	bne.n	8005438 <HAL_TIMEx_MasterConfigSynchronization+0x38>
    assert_param(IS_TIM_TRGO2_SOURCE(sMasterConfig->MasterOutputTrigger2));

    /* Clear the MMS2 bits */
    tmpcr2 &= ~TIM_CR2_MMS2;
    /* Select the TRGO2 source*/
    tmpcr2 |= sMasterConfig->MasterOutputTrigger2;
 8005430:	684d      	ldr	r5, [r1, #4]
    tmpcr2 &= ~TIM_CR2_MMS2;
 8005432:	f422 0270 	bic.w	r2, r2, #15728640	@ 0xf00000
    tmpcr2 |= sMasterConfig->MasterOutputTrigger2;
 8005436:	432a      	orrs	r2, r5
  }

  /* Reset the MMS Bits */
  tmpcr2 &= ~TIM_CR2_MMS;
  /* Select the TRGO source */
  tmpcr2 |=  sMasterConfig->MasterOutputTrigger;
 8005438:	680d      	ldr	r5, [r1, #0]
  tmpcr2 &= ~TIM_CR2_MMS;
 800543a:	f022 7200 	bic.w	r2, r2, #33554432	@ 0x2000000
 800543e:	f022 0270 	bic.w	r2, r2, #112	@ 0x70
  tmpcr2 |=  sMasterConfig->MasterOutputTrigger;
 8005442:	432a      	orrs	r2, r5

  /* Update TIMx CR2 */
  htim->Instance->CR2 = tmpcr2;
 8005444:	605a      	str	r2, [r3, #4]

  if (IS_TIM_SLAVE_INSTANCE(htim->Instance))
 8005446:	4a15      	ldr	r2, [pc, #84]	@ (800549c <HAL_TIMEx_MasterConfigSynchronization+0x9c>)
 8005448:	4293      	cmp	r3, r2
 800544a:	d01a      	beq.n	8005482 <HAL_TIMEx_MasterConfigSynchronization+0x82>
 800544c:	f1b3 4f80 	cmp.w	r3, #1073741824	@ 0x40000000
 8005450:	d017      	beq.n	8005482 <HAL_TIMEx_MasterConfigSynchronization+0x82>
 8005452:	f5a2 3294 	sub.w	r2, r2, #75776	@ 0x12800
 8005456:	4293      	cmp	r3, r2
 8005458:	d013      	beq.n	8005482 <HAL_TIMEx_MasterConfigSynchronization+0x82>
 800545a:	f502 6280 	add.w	r2, r2, #1024	@ 0x400
 800545e:	4293      	cmp	r3, r2
 8005460:	d00f      	beq.n	8005482 <HAL_TIMEx_MasterConfigSynchronization+0x82>
 8005462:	f502 6280 	add.w	r2, r2, #1024	@ 0x400
 8005466:	4293      	cmp	r3, r2
 8005468:	d00b      	beq.n	8005482 <HAL_TIMEx_MasterConfigSynchronization+0x82>
 800546a:	f502 3294 	add.w	r2, r2, #75776	@ 0x12800
 800546e:	4293      	cmp	r3, r2
 8005470:	d007      	beq.n	8005482 <HAL_TIMEx_MasterConfigSynchronization+0x82>
 8005472:	f502 6240 	add.w	r2, r2, #3072	@ 0xc00
 8005476:	4293      	cmp	r3, r2
 8005478:	d003      	beq.n	8005482 <HAL_TIMEx_MasterConfigSynchronization+0x82>
 800547a:	f502 5280 	add.w	r2, r2, #4096	@ 0x1000
 800547e:	4293      	cmp	r3, r2
 8005480:	d104      	bne.n	800548c <HAL_TIMEx_MasterConfigSynchronization+0x8c>
  {
    /* Reset the MSM Bit */
    tmpsmcr &= ~TIM_SMCR_MSM;
    /* Set master mode */
    tmpsmcr |= sMasterConfig->MasterSlaveMode;
 8005482:	6889      	ldr	r1, [r1, #8]
    tmpsmcr &= ~TIM_SMCR_MSM;
 8005484:	f020 0280 	bic.w	r2, r0, #128	@ 0x80
    tmpsmcr |= sMasterConfig->MasterSlaveMode;
 8005488:	430a      	orrs	r2, r1

    /* Update TIMx SMCR */
    htim->Instance->SMCR = tmpsmcr;
 800548a:	609a      	str	r2, [r3, #8]
  }

  /* Change the htim state */
  htim->State = HAL_TIM_STATE_READY;
 800548c:	2301      	movs	r3, #1

  __HAL_UNLOCK(htim);
 800548e:	2000      	movs	r0, #0
  htim->State = HAL_TIM_STATE_READY;
 8005490:	f884 303d 	strb.w	r3, [r4, #61]	@ 0x3d
  __HAL_UNLOCK(htim);
 8005494:	f884 003c 	strb.w	r0, [r4, #60]	@ 0x3c

  return HAL_OK;
}
 8005498:	bd30      	pop	{r4, r5, pc}
 800549a:	bf00      	nop
 800549c:	40012c00 	.word	0x40012c00

080054a0 <HAL_TIMEx_ConfigBreakDeadTime>:
  *         interrupt can be enabled by calling the @ref __HAL_TIM_ENABLE_IT macro.
  * @retval HAL status
  */
HAL_StatusTypeDef HAL_TIMEx_ConfigBreakDeadTime(TIM_HandleTypeDef *htim,
                                                const TIM_BreakDeadTimeConfigTypeDef *sBreakDeadTimeConfig)
{
 80054a0:	b510      	push	{r4, lr}
  assert_param(IS_TIM_BREAK_FILTER(sBreakDeadTimeConfig->BreakFilter));
  assert_param(IS_TIM_AUTOMATIC_OUTPUT_STATE(sBreakDeadTimeConfig->AutomaticOutput));
  assert_param(IS_TIM_BREAK_AFMODE(sBreakDeadTimeConfig->BreakAFMode));

  /* Check input state */
  __HAL_LOCK(htim);
 80054a2:	f890 303c 	ldrb.w	r3, [r0, #60]	@ 0x3c
 80054a6:	2b01      	cmp	r3, #1
{
 80054a8:	4602      	mov	r2, r0
  __HAL_LOCK(htim);
 80054aa:	d043      	beq.n	8005534 <HAL_TIMEx_ConfigBreakDeadTime+0x94>
  /* Set the Lock level, the Break enable Bit and the Polarity, the OSSR State,
     the OSSI State, the dead time value and the Automatic Output Enable Bit */

  /* Set the BDTR bits */
  MODIFY_REG(tmpbdtr, TIM_BDTR_DTG, sBreakDeadTimeConfig->DeadTime);
  MODIFY_REG(tmpbdtr, TIM_BDTR_LOCK, sBreakDeadTimeConfig->LockLevel);
 80054ac:	68cb      	ldr	r3, [r1, #12]
 80054ae:	6888      	ldr	r0, [r1, #8]
  MODIFY_REG(tmpbdtr, TIM_BDTR_BKP, sBreakDeadTimeConfig->BreakPolarity);
  MODIFY_REG(tmpbdtr, TIM_BDTR_AOE, sBreakDeadTimeConfig->AutomaticOutput);
  MODIFY_REG(tmpbdtr, TIM_BDTR_BKF, (sBreakDeadTimeConfig->BreakFilter << TIM_BDTR_BKF_Pos));
  MODIFY_REG(tmpbdtr, TIM_BDTR_BKBID, sBreakDeadTimeConfig->BreakAFMode);

  if (IS_TIM_BKIN2_INSTANCE(htim->Instance))
 80054b0:	4c21      	ldr	r4, [pc, #132]	@ (8005538 <HAL_TIMEx_ConfigBreakDeadTime+0x98>)
  MODIFY_REG(tmpbdtr, TIM_BDTR_LOCK, sBreakDeadTimeConfig->LockLevel);
 80054b2:	f423 7340 	bic.w	r3, r3, #768	@ 0x300
 80054b6:	4303      	orrs	r3, r0
  MODIFY_REG(tmpbdtr, TIM_BDTR_OSSI, sBreakDeadTimeConfig->OffStateIDLEMode);
 80054b8:	6848      	ldr	r0, [r1, #4]
 80054ba:	f423 6380 	bic.w	r3, r3, #1024	@ 0x400
 80054be:	4303      	orrs	r3, r0
  MODIFY_REG(tmpbdtr, TIM_BDTR_OSSR, sBreakDeadTimeConfig->OffStateRunMode);
 80054c0:	6808      	ldr	r0, [r1, #0]
 80054c2:	f423 6300 	bic.w	r3, r3, #2048	@ 0x800
 80054c6:	4303      	orrs	r3, r0
  MODIFY_REG(tmpbdtr, TIM_BDTR_BKE, sBreakDeadTimeConfig->BreakState);
 80054c8:	6908      	ldr	r0, [r1, #16]
 80054ca:	f423 5380 	bic.w	r3, r3, #4096	@ 0x1000
 80054ce:	4303      	orrs	r3, r0
  MODIFY_REG(tmpbdtr, TIM_BDTR_BKP, sBreakDeadTimeConfig->BreakPolarity);
 80054d0:	6948      	ldr	r0, [r1, #20]
 80054d2:	f423 5300 	bic.w	r3, r3, #8192	@ 0x2000
 80054d6:	4303      	orrs	r3, r0
  MODIFY_REG(tmpbdtr, TIM_BDTR_AOE, sBreakDeadTimeConfig->AutomaticOutput);
 80054d8:	6b08      	ldr	r0, [r1, #48]	@ 0x30
 80054da:	f423 4380 	bic.w	r3, r3, #16384	@ 0x4000
 80054de:	4303      	orrs	r3, r0
  MODIFY_REG(tmpbdtr, TIM_BDTR_BKF, (sBreakDeadTimeConfig->BreakFilter << TIM_BDTR_BKF_Pos));
 80054e0:	6988      	ldr	r0, [r1, #24]
 80054e2:	f423 2370 	bic.w	r3, r3, #983040	@ 0xf0000
 80054e6:	ea43 4300 	orr.w	r3, r3, r0, lsl #16
  MODIFY_REG(tmpbdtr, TIM_BDTR_BKBID, sBreakDeadTimeConfig->BreakAFMode);
 80054ea:	69c8      	ldr	r0, [r1, #28]
 80054ec:	f023 5380 	bic.w	r3, r3, #268435456	@ 0x10000000
 80054f0:	4303      	orrs	r3, r0
  if (IS_TIM_BKIN2_INSTANCE(htim->Instance))
 80054f2:	6810      	ldr	r0, [r2, #0]
 80054f4:	42a0      	cmp	r0, r4
 80054f6:	d007      	beq.n	8005508 <HAL_TIMEx_ConfigBreakDeadTime+0x68>
 80054f8:	f504 6400 	add.w	r4, r4, #2048	@ 0x800
 80054fc:	42a0      	cmp	r0, r4
 80054fe:	d003      	beq.n	8005508 <HAL_TIMEx_ConfigBreakDeadTime+0x68>
 8005500:	f504 54e0 	add.w	r4, r4, #7168	@ 0x1c00
 8005504:	42a0      	cmp	r0, r4
 8005506:	d110      	bne.n	800552a <HAL_TIMEx_ConfigBreakDeadTime+0x8a>
    assert_param(IS_TIM_BREAK2_POLARITY(sBreakDeadTimeConfig->Break2Polarity));
    assert_param(IS_TIM_BREAK_FILTER(sBreakDeadTimeConfig->Break2Filter));
    assert_param(IS_TIM_BREAK2_AFMODE(sBreakDeadTimeConfig->Break2AFMode));

    /* Set the BREAK2 input related BDTR bits */
    MODIFY_REG(tmpbdtr, TIM_BDTR_BK2F, (sBreakDeadTimeConfig->Break2Filter << TIM_BDTR_BK2F_Pos));
 8005508:	6a8c      	ldr	r4, [r1, #40]	@ 0x28
 800550a:	f423 0370 	bic.w	r3, r3, #15728640	@ 0xf00000
 800550e:	ea43 5304 	orr.w	r3, r3, r4, lsl #20
    MODIFY_REG(tmpbdtr, TIM_BDTR_BK2E, sBreakDeadTimeConfig->Break2State);
 8005512:	6a0c      	ldr	r4, [r1, #32]
 8005514:	f023 7380 	bic.w	r3, r3, #16777216	@ 0x1000000
 8005518:	4323      	orrs	r3, r4
    MODIFY_REG(tmpbdtr, TIM_BDTR_BK2P, sBreakDeadTimeConfig->Break2Polarity);
 800551a:	6a4c      	ldr	r4, [r1, #36]	@ 0x24
    MODIFY_REG(tmpbdtr, TIM_BDTR_BK2BID, sBreakDeadTimeConfig->Break2AFMode);
 800551c:	6ac9      	ldr	r1, [r1, #44]	@ 0x2c
    MODIFY_REG(tmpbdtr, TIM_BDTR_BK2P, sBreakDeadTimeConfig->Break2Polarity);
 800551e:	f023 7300 	bic.w	r3, r3, #33554432	@ 0x2000000
 8005522:	4323      	orrs	r3, r4
    MODIFY_REG(tmpbdtr, TIM_BDTR_BK2BID, sBreakDeadTimeConfig->Break2AFMode);
 8005524:	f023 5300 	bic.w	r3, r3, #536870912	@ 0x20000000
 8005528:	430b      	orrs	r3, r1
  }

  /* Set TIMx_BDTR */
  htim->Instance->BDTR = tmpbdtr;
 800552a:	6443      	str	r3, [r0, #68]	@ 0x44

  __HAL_UNLOCK(htim);
 800552c:	2000      	movs	r0, #0
 800552e:	f882 003c 	strb.w	r0, [r2, #60]	@ 0x3c

  return HAL_OK;
}
 8005532:	bd10      	pop	{r4, pc}
  __HAL_LOCK(htim);
 8005534:	2002      	movs	r0, #2
 8005536:	e7fc      	b.n	8005532 <HAL_TIMEx_ConfigBreakDeadTime+0x92>
 8005538:	40012c00 	.word	0x40012c00

0800553c <HAL_TIMEx_CommutCallback>:
/**
  * @brief  Commutation callback in non-blocking mode
  * @param  htim TIM handle
  * @retval None
  */
__weak void HAL_TIMEx_CommutCallback(TIM_HandleTypeDef *htim)
 800553c:	4770      	bx	lr

0800553e <HAL_TIMEx_BreakCallback>:
/**
  * @brief  Break detection callback in non-blocking mode
  * @param  htim TIM handle
  * @retval None
  */
__weak void HAL_TIMEx_BreakCallback(TIM_HandleTypeDef *htim)
 800553e:	4770      	bx	lr

08005540 <HAL_TIMEx_Break2Callback>:
/**
  * @brief  Break2 detection callback in non blocking mode
  * @param  htim: TIM handle
  * @retval None
  */
__weak void HAL_TIMEx_Break2Callback(TIM_HandleTypeDef *htim)
 8005540:	4770      	bx	lr

08005542 <HAL_TIMEx_EncoderIndexCallback>:
/**
  * @brief  Encoder index callback in non-blocking mode
  * @param  htim TIM handle
  * @retval None
  */
__weak void HAL_TIMEx_EncoderIndexCallback(TIM_HandleTypeDef *htim)
 8005542:	4770      	bx	lr

08005544 <HAL_TIMEx_DirectionChangeCallback>:
/**
  * @brief  Direction change callback in non-blocking mode
  * @param  htim TIM handle
  * @retval None
  */
__weak void HAL_TIMEx_DirectionChangeCallback(TIM_HandleTypeDef *htim)
 8005544:	4770      	bx	lr

08005546 <HAL_TIMEx_IndexErrorCallback>:
/**
  * @brief  Index error callback in non-blocking mode
  * @param  htim TIM handle
  * @retval None
  */
__weak void HAL_TIMEx_IndexErrorCallback(TIM_HandleTypeDef *htim)
 8005546:	4770      	bx	lr

08005548 <HAL_TIMEx_TransitionErrorCallback>:
/**
  * @brief  Transition error callback in non-blocking mode
  * @param  htim TIM handle
  * @retval None
  */
__weak void HAL_TIMEx_TransitionErrorCallback(TIM_HandleTypeDef *htim)
 8005548:	4770      	bx	lr
	...

0800554c <UART_EndRxTransfer>:
  * @brief  End ongoing Rx transfer on UART peripheral (following error detection or Reception completion).
  * @param  huart UART handle.
  * @retval None
  */
static void UART_EndRxTransfer(UART_HandleTypeDef *huart)
{
 800554c:	b510      	push	{r4, lr}
  /* Disable RXNE, PE and ERR (Frame error, noise error, overrun error) interrupts */
  ATOMIC_CLEAR_BIT(huart->Instance->CR1, (USART_CR1_RXNEIE_RXFNEIE | USART_CR1_PEIE));
 800554e:	6802      	ldr	r2, [r0, #0]
 */
__STATIC_FORCEINLINE uint32_t __LDREXW(volatile uint32_t *addr)
{
    uint32_t result;

   __ASM volatile ("ldrex %0, %1" : "=r" (result) : "Q" (*addr) );
 8005550:	e852 3f00 	ldrex	r3, [r2]
 8005554:	f423 7390 	bic.w	r3, r3, #288	@ 0x120
 */
__STATIC_FORCEINLINE uint32_t __STREXW(uint32_t value, volatile uint32_t *addr)
{
   uint32_t result;

   __ASM volatile ("strex %0, %2, %1" : "=&r" (result), "=Q" (*addr) : "r" (value) );
 8005558:	e842 3100 	strex	r1, r3, [r2]
   return(result);
 800555c:	6802      	ldr	r2, [r0, #0]
 800555e:	2900      	cmp	r1, #0
 8005560:	d1f5      	bne.n	800554e <UART_EndRxTransfer+0x2>
  ATOMIC_CLEAR_BIT(huart->Instance->CR3, (USART_CR3_EIE | USART_CR3_RXFTIE));
 8005562:	4c0f      	ldr	r4, [pc, #60]	@ (80055a0 <UART_EndRxTransfer+0x54>)
   __ASM volatile ("ldrex %0, %1" : "=r" (result) : "Q" (*addr) );
 8005564:	f102 0308 	add.w	r3, r2, #8
 8005568:	e853 3f00 	ldrex	r3, [r3]
 800556c:	4023      	ands	r3, r4
   __ASM volatile ("strex %0, %2, %1" : "=&r" (result), "=Q" (*addr) : "r" (value) );
 800556e:	f102 0c08 	add.w	ip, r2, #8
 8005572:	e84c 3100 	strex	r1, r3, [ip]
 8005576:	2900      	cmp	r1, #0
 8005578:	d1f4      	bne.n	8005564 <UART_EndRxTransfer+0x18>

  /* In case of reception waiting for IDLE event, disable also the IDLE IE interrupt source */
  if (huart->ReceptionType == HAL_UART_RECEPTION_TOIDLE)
 800557a:	6ec3      	ldr	r3, [r0, #108]	@ 0x6c
 800557c:	2b01      	cmp	r3, #1
 800557e:	d107      	bne.n	8005590 <UART_EndRxTransfer+0x44>
   __ASM volatile ("ldrex %0, %1" : "=r" (result) : "Q" (*addr) );
 8005580:	e852 3f00 	ldrex	r3, [r2]
  {
    ATOMIC_CLEAR_BIT(huart->Instance->CR1, USART_CR1_IDLEIE);
 8005584:	f023 0310 	bic.w	r3, r3, #16
   __ASM volatile ("strex %0, %2, %1" : "=&r" (result), "=Q" (*addr) : "r" (value) );
 8005588:	e842 3100 	strex	r1, r3, [r2]
 800558c:	2900      	cmp	r1, #0
 800558e:	d1f7      	bne.n	8005580 <UART_EndRxTransfer+0x34>
  }

  /* At end of Rx process, restore huart->RxState to Ready */
  huart->RxState = HAL_UART_STATE_READY;
 8005590:	2320      	movs	r3, #32
 8005592:	f8c0 308c 	str.w	r3, [r0, #140]	@ 0x8c
  huart->ReceptionType = HAL_UART_RECEPTION_STANDARD;
 8005596:	2300      	movs	r3, #0
 8005598:	66c3      	str	r3, [r0, #108]	@ 0x6c

  /* Reset RxIsr function pointer */
  huart->RxISR = NULL;
 800559a:	6743      	str	r3, [r0, #116]	@ 0x74
}
 800559c:	bd10      	pop	{r4, pc}
 800559e:	bf00      	nop
 80055a0:	effffffe 	.word	0xeffffffe

080055a4 <HAL_UART_TxCpltCallback>:
__weak void HAL_UART_TxCpltCallback(UART_HandleTypeDef *huart)
 80055a4:	4770      	bx	lr

080055a6 <HAL_UART_ErrorCallback>:
__weak void HAL_UART_ErrorCallback(UART_HandleTypeDef *huart)
 80055a6:	4770      	bx	lr

080055a8 <UART_DMAAbortOnError>:
  *         (To be called at end of DMA Abort procedure following error occurrence).
  * @param  hdma DMA handle.
  * @retval None
  */
static void UART_DMAAbortOnError(DMA_HandleTypeDef *hdma)
{
 80055a8:	b508      	push	{r3, lr}
  UART_HandleTypeDef *huart = (UART_HandleTypeDef *)(hdma->Parent);
 80055aa:	6a80      	ldr	r0, [r0, #40]	@ 0x28
  huart->RxXferCount = 0U;
 80055ac:	2300      	movs	r3, #0
 80055ae:	f8a0 305e 	strh.w	r3, [r0, #94]	@ 0x5e
#if (USE_HAL_UART_REGISTER_CALLBACKS == 1)
  /*Call registered error callback*/
  huart->ErrorCallback(huart);
#else
  /*Call legacy weak error callback*/
  HAL_UART_ErrorCallback(huart);
 80055b2:	f7ff fff8 	bl	80055a6 <HAL_UART_ErrorCallback>
#endif /* USE_HAL_UART_REGISTER_CALLBACKS */
}
 80055b6:	bd08      	pop	{r3, pc}

080055b8 <HAL_UARTEx_RxEventCallback>:
}
 80055b8:	4770      	bx	lr
	...

080055bc <HAL_UART_IRQHandler>:
  uint32_t isrflags   = READ_REG(huart->Instance->ISR);
 80055bc:	6803      	ldr	r3, [r0, #0]
 80055be:	69d9      	ldr	r1, [r3, #28]
  uint32_t cr1its     = READ_REG(huart->Instance->CR1);
 80055c0:	681a      	ldr	r2, [r3, #0]
{
 80055c2:	e92d 41f0 	stmdb	sp!, {r4, r5, r6, r7, r8, lr}
  if (errorflags == 0U)
 80055c6:	f640 060f 	movw	r6, #2063	@ 0x80f
 80055ca:	4231      	tst	r1, r6
  uint32_t cr3its     = READ_REG(huart->Instance->CR3);
 80055cc:	689d      	ldr	r5, [r3, #8]
{
 80055ce:	4604      	mov	r4, r0
  if (errorflags == 0U)
 80055d0:	d110      	bne.n	80055f4 <HAL_UART_IRQHandler+0x38>
    if (((isrflags & USART_ISR_RXNE_RXFNE) != 0U)
 80055d2:	068e      	lsls	r6, r1, #26
 80055d4:	f140 8097 	bpl.w	8005706 <HAL_UART_IRQHandler+0x14a>
        && (((cr1its & USART_CR1_RXNEIE_RXFNEIE) != 0U)
 80055d8:	f002 0620 	and.w	r6, r2, #32
            || ((cr3its & USART_CR3_RXFTIE) != 0U)))
 80055dc:	f005 5780 	and.w	r7, r5, #268435456	@ 0x10000000
 80055e0:	433e      	orrs	r6, r7
 80055e2:	f000 8090 	beq.w	8005706 <HAL_UART_IRQHandler+0x14a>
      if (huart->RxISR != NULL)
 80055e6:	6f43      	ldr	r3, [r0, #116]	@ 0x74
 80055e8:	2b00      	cmp	r3, #0
 80055ea:	f000 8085 	beq.w	80056f8 <HAL_UART_IRQHandler+0x13c>
}
 80055ee:	e8bd 41f0 	ldmia.w	sp!, {r4, r5, r6, r7, r8, lr}
              huart->hdmarx->XferAbortCallback(huart->hdmarx);
 80055f2:	4718      	bx	r3
      && ((((cr3its & (USART_CR3_RXFTIE | USART_CR3_EIE)) != 0U)
 80055f4:	4ea8      	ldr	r6, [pc, #672]	@ (8005898 <HAL_UART_IRQHandler+0x2dc>)
           || ((cr1its & (USART_CR1_RXNEIE_RXFNEIE | USART_CR1_PEIE | USART_CR1_RTOIE)) != 0U))))
 80055f6:	48a9      	ldr	r0, [pc, #676]	@ (800589c <HAL_UART_IRQHandler+0x2e0>)
      && ((((cr3its & (USART_CR3_RXFTIE | USART_CR3_EIE)) != 0U)
 80055f8:	402e      	ands	r6, r5
           || ((cr1its & (USART_CR1_RXNEIE_RXFNEIE | USART_CR1_PEIE | USART_CR1_RTOIE)) != 0U))))
 80055fa:	4010      	ands	r0, r2
 80055fc:	4330      	orrs	r0, r6
 80055fe:	f000 8082 	beq.w	8005706 <HAL_UART_IRQHandler+0x14a>
    if (((isrflags & USART_ISR_PE) != 0U) && ((cr1its & USART_CR1_PEIE) != 0U))
 8005602:	07cf      	lsls	r7, r1, #31
 8005604:	d509      	bpl.n	800561a <HAL_UART_IRQHandler+0x5e>
 8005606:	05d0      	lsls	r0, r2, #23
 8005608:	d507      	bpl.n	800561a <HAL_UART_IRQHandler+0x5e>
      __HAL_UART_CLEAR_FLAG(huart, UART_CLEAR_PEF);
 800560a:	2001      	movs	r0, #1
 800560c:	6218      	str	r0, [r3, #32]
      huart->ErrorCode |= HAL_UART_ERROR_PE;
 800560e:	f8d4 0090 	ldr.w	r0, [r4, #144]	@ 0x90
 8005612:	f040 0001 	orr.w	r0, r0, #1
 8005616:	f8c4 0090 	str.w	r0, [r4, #144]	@ 0x90
    if (((isrflags & USART_ISR_FE) != 0U) && ((cr3its & USART_CR3_EIE) != 0U))
 800561a:	078f      	lsls	r7, r1, #30
 800561c:	d509      	bpl.n	8005632 <HAL_UART_IRQHandler+0x76>
 800561e:	07e8      	lsls	r0, r5, #31
 8005620:	d507      	bpl.n	8005632 <HAL_UART_IRQHandler+0x76>
      __HAL_UART_CLEAR_FLAG(huart, UART_CLEAR_FEF);
 8005622:	2002      	movs	r0, #2
 8005624:	6218      	str	r0, [r3, #32]
      huart->ErrorCode |= HAL_UART_ERROR_FE;
 8005626:	f8d4 0090 	ldr.w	r0, [r4, #144]	@ 0x90
 800562a:	f040 0004 	orr.w	r0, r0, #4
 800562e:	f8c4 0090 	str.w	r0, [r4, #144]	@ 0x90
    if (((isrflags & USART_ISR_NE) != 0U) && ((cr3its & USART_CR3_EIE) != 0U))
 8005632:	074f      	lsls	r7, r1, #29
 8005634:	d509      	bpl.n	800564a <HAL_UART_IRQHandler+0x8e>
 8005636:	07e8      	lsls	r0, r5, #31
 8005638:	d507      	bpl.n	800564a <HAL_UART_IRQHandler+0x8e>
      __HAL_UART_CLEAR_FLAG(huart, UART_CLEAR_NEF);
 800563a:	2004      	movs	r0, #4
 800563c:	6218      	str	r0, [r3, #32]
      huart->ErrorCode |= HAL_UART_ERROR_NE;
 800563e:	f8d4 0090 	ldr.w	r0, [r4, #144]	@ 0x90
 8005642:	f040 0002 	orr.w	r0, r0, #2
 8005646:	f8c4 0090 	str.w	r0, [r4, #144]	@ 0x90
    if (((isrflags & USART_ISR_ORE) != 0U)
 800564a:	070f      	lsls	r7, r1, #28
 800564c:	d50b      	bpl.n	8005666 <HAL_UART_IRQHandler+0xaa>
        && (((cr1its & USART_CR1_RXNEIE_RXFNEIE) != 0U) ||
 800564e:	f002 0020 	and.w	r0, r2, #32
 8005652:	4330      	orrs	r0, r6
 8005654:	d007      	beq.n	8005666 <HAL_UART_IRQHandler+0xaa>
      __HAL_UART_CLEAR_FLAG(huart, UART_CLEAR_OREF);
 8005656:	2008      	movs	r0, #8
 8005658:	6218      	str	r0, [r3, #32]
      huart->ErrorCode |= HAL_UART_ERROR_ORE;
 800565a:	f8d4 0090 	ldr.w	r0, [r4, #144]	@ 0x90
 800565e:	f040 0008 	orr.w	r0, r0, #8
 8005662:	f8c4 0090 	str.w	r0, [r4, #144]	@ 0x90
    if (((isrflags & USART_ISR_RTOF) != 0U) && ((cr1its & USART_CR1_RTOIE) != 0U))
 8005666:	050e      	lsls	r6, r1, #20
 8005668:	d50a      	bpl.n	8005680 <HAL_UART_IRQHandler+0xc4>
 800566a:	0150      	lsls	r0, r2, #5
 800566c:	d508      	bpl.n	8005680 <HAL_UART_IRQHandler+0xc4>
      __HAL_UART_CLEAR_FLAG(huart, UART_CLEAR_RTOF);
 800566e:	f44f 6000 	mov.w	r0, #2048	@ 0x800
 8005672:	6218      	str	r0, [r3, #32]
      huart->ErrorCode |= HAL_UART_ERROR_RTO;
 8005674:	f8d4 3090 	ldr.w	r3, [r4, #144]	@ 0x90
 8005678:	f043 0320 	orr.w	r3, r3, #32
 800567c:	f8c4 3090 	str.w	r3, [r4, #144]	@ 0x90
    if (huart->ErrorCode != HAL_UART_ERROR_NONE)
 8005680:	f8d4 3090 	ldr.w	r3, [r4, #144]	@ 0x90
 8005684:	2b00      	cmp	r3, #0
 8005686:	d037      	beq.n	80056f8 <HAL_UART_IRQHandler+0x13c>
      if (((isrflags & USART_ISR_RXNE_RXFNE) != 0U)
 8005688:	068b      	lsls	r3, r1, #26
 800568a:	d509      	bpl.n	80056a0 <HAL_UART_IRQHandler+0xe4>
          && (((cr1its & USART_CR1_RXNEIE_RXFNEIE) != 0U)
 800568c:	f002 0220 	and.w	r2, r2, #32
              || ((cr3its & USART_CR3_RXFTIE) != 0U)))
 8005690:	f005 5580 	and.w	r5, r5, #268435456	@ 0x10000000
 8005694:	432a      	orrs	r2, r5
 8005696:	d003      	beq.n	80056a0 <HAL_UART_IRQHandler+0xe4>
        if (huart->RxISR != NULL)
 8005698:	6f63      	ldr	r3, [r4, #116]	@ 0x74
 800569a:	b10b      	cbz	r3, 80056a0 <HAL_UART_IRQHandler+0xe4>
          huart->RxISR(huart);
 800569c:	4620      	mov	r0, r4
 800569e:	4798      	blx	r3
      if ((HAL_IS_BIT_SET(huart->Instance->CR3, USART_CR3_DMAR)) ||
 80056a0:	6826      	ldr	r6, [r4, #0]
      errorcode = huart->ErrorCode;
 80056a2:	f8d4 2090 	ldr.w	r2, [r4, #144]	@ 0x90
      if ((HAL_IS_BIT_SET(huart->Instance->CR3, USART_CR3_DMAR)) ||
 80056a6:	68b3      	ldr	r3, [r6, #8]
          ((errorcode & (HAL_UART_ERROR_RTO | HAL_UART_ERROR_ORE)) != 0U))
 80056a8:	f002 0228 	and.w	r2, r2, #40	@ 0x28
      if ((HAL_IS_BIT_SET(huart->Instance->CR3, USART_CR3_DMAR)) ||
 80056ac:	f003 0340 	and.w	r3, r3, #64	@ 0x40
 80056b0:	ea53 0502 	orrs.w	r5, r3, r2
        UART_EndRxTransfer(huart);
 80056b4:	4620      	mov	r0, r4
      if ((HAL_IS_BIT_SET(huart->Instance->CR3, USART_CR3_DMAR)) ||
 80056b6:	d021      	beq.n	80056fc <HAL_UART_IRQHandler+0x140>
        UART_EndRxTransfer(huart);
 80056b8:	f7ff ff48 	bl	800554c <UART_EndRxTransfer>
        if (HAL_IS_BIT_SET(huart->Instance->CR3, USART_CR3_DMAR))
 80056bc:	68b3      	ldr	r3, [r6, #8]
 80056be:	065f      	lsls	r7, r3, #25
 80056c0:	d517      	bpl.n	80056f2 <HAL_UART_IRQHandler+0x136>
          ATOMIC_CLEAR_BIT(huart->Instance->CR3, USART_CR3_DMAR);
 80056c2:	6822      	ldr	r2, [r4, #0]
   __ASM volatile ("ldrex %0, %1" : "=r" (result) : "Q" (*addr) );
 80056c4:	f102 0308 	add.w	r3, r2, #8
 80056c8:	e853 3f00 	ldrex	r3, [r3]
 80056cc:	f023 0340 	bic.w	r3, r3, #64	@ 0x40
   __ASM volatile ("strex %0, %2, %1" : "=&r" (result), "=Q" (*addr) : "r" (value) );
 80056d0:	3208      	adds	r2, #8
 80056d2:	e842 3100 	strex	r1, r3, [r2]
 80056d6:	2900      	cmp	r1, #0
 80056d8:	d1f3      	bne.n	80056c2 <HAL_UART_IRQHandler+0x106>
          if (huart->hdmarx != NULL)
 80056da:	f8d4 0080 	ldr.w	r0, [r4, #128]	@ 0x80
 80056de:	b140      	cbz	r0, 80056f2 <HAL_UART_IRQHandler+0x136>
            huart->hdmarx->XferAbortCallback = UART_DMAAbortOnError;
 80056e0:	4b6f      	ldr	r3, [pc, #444]	@ (80058a0 <HAL_UART_IRQHandler+0x2e4>)
 80056e2:	6383      	str	r3, [r0, #56]	@ 0x38
            if (HAL_DMA_Abort_IT(huart->hdmarx) != HAL_OK)
 80056e4:	f7fd f9ea 	bl	8002abc <HAL_DMA_Abort_IT>
 80056e8:	b130      	cbz	r0, 80056f8 <HAL_UART_IRQHandler+0x13c>
              huart->hdmarx->XferAbortCallback(huart->hdmarx);
 80056ea:	f8d4 0080 	ldr.w	r0, [r4, #128]	@ 0x80
 80056ee:	6b83      	ldr	r3, [r0, #56]	@ 0x38
 80056f0:	e77d      	b.n	80055ee <HAL_UART_IRQHandler+0x32>
            HAL_UART_ErrorCallback(huart);
 80056f2:	4620      	mov	r0, r4
 80056f4:	f7ff ff57 	bl	80055a6 <HAL_UART_ErrorCallback>
}
 80056f8:	e8bd 81f0 	ldmia.w	sp!, {r4, r5, r6, r7, r8, pc}
        HAL_UART_ErrorCallback(huart);
 80056fc:	f7ff ff53 	bl	80055a6 <HAL_UART_ErrorCallback>
        huart->ErrorCode = HAL_UART_ERROR_NONE;
 8005700:	f8c4 5090 	str.w	r5, [r4, #144]	@ 0x90
 8005704:	e7f8      	b.n	80056f8 <HAL_UART_IRQHandler+0x13c>
  if ((huart->ReceptionType == HAL_UART_RECEPTION_TOIDLE)
 8005706:	6ee0      	ldr	r0, [r4, #108]	@ 0x6c
 8005708:	2801      	cmp	r0, #1
 800570a:	f040 808d 	bne.w	8005828 <HAL_UART_IRQHandler+0x26c>
      && ((isrflags & USART_ISR_IDLE) != 0U)
 800570e:	06ce      	lsls	r6, r1, #27
 8005710:	f140 808a 	bpl.w	8005828 <HAL_UART_IRQHandler+0x26c>
      && ((cr1its & USART_ISR_IDLE) != 0U))
 8005714:	06d0      	lsls	r0, r2, #27
 8005716:	f140 8087 	bpl.w	8005828 <HAL_UART_IRQHandler+0x26c>
    __HAL_UART_CLEAR_FLAG(huart, UART_CLEAR_IDLEF);
 800571a:	2210      	movs	r2, #16
 800571c:	621a      	str	r2, [r3, #32]
    if (HAL_IS_BIT_SET(huart->Instance->CR3, USART_CR3_DMAR))
 800571e:	6899      	ldr	r1, [r3, #8]
          && (nb_remaining_rx_data < huart->RxXferSize))
 8005720:	f8b4 205c 	ldrh.w	r2, [r4, #92]	@ 0x5c
    if (HAL_IS_BIT_SET(huart->Instance->CR3, USART_CR3_DMAR))
 8005724:	0649      	lsls	r1, r1, #25
 8005726:	d551      	bpl.n	80057cc <HAL_UART_IRQHandler+0x210>
      uint16_t nb_remaining_rx_data = (uint16_t) __HAL_DMA_GET_COUNTER(huart->hdmarx);
 8005728:	f8d4 1080 	ldr.w	r1, [r4, #128]	@ 0x80
 800572c:	6808      	ldr	r0, [r1, #0]
 800572e:	6841      	ldr	r1, [r0, #4]
 8005730:	b289      	uxth	r1, r1
      if ((nb_remaining_rx_data > 0U)
 8005732:	2900      	cmp	r1, #0
 8005734:	d042      	beq.n	80057bc <HAL_UART_IRQHandler+0x200>
          && (nb_remaining_rx_data < huart->RxXferSize))
 8005736:	4291      	cmp	r1, r2
 8005738:	d240      	bcs.n	80057bc <HAL_UART_IRQHandler+0x200>
        huart->RxXferCount = nb_remaining_rx_data;
 800573a:	f8a4 105e 	strh.w	r1, [r4, #94]	@ 0x5e
        if (HAL_IS_BIT_CLR(huart->hdmarx->Instance->CCR, DMA_CCR_CIRC))
 800573e:	6802      	ldr	r2, [r0, #0]
 8005740:	0692      	lsls	r2, r2, #26
 8005742:	d42f      	bmi.n	80057a4 <HAL_UART_IRQHandler+0x1e8>
   __ASM volatile ("ldrex %0, %1" : "=r" (result) : "Q" (*addr) );
 8005744:	e853 2f00 	ldrex	r2, [r3]
          ATOMIC_CLEAR_BIT(huart->Instance->CR1, USART_CR1_PEIE);
 8005748:	f422 7280 	bic.w	r2, r2, #256	@ 0x100
   __ASM volatile ("strex %0, %2, %1" : "=&r" (result), "=Q" (*addr) : "r" (value) );
 800574c:	e843 2100 	strex	r1, r2, [r3]
 8005750:	2900      	cmp	r1, #0
 8005752:	d1f7      	bne.n	8005744 <HAL_UART_IRQHandler+0x188>
   __ASM volatile ("ldrex %0, %1" : "=r" (result) : "Q" (*addr) );
 8005754:	f103 0208 	add.w	r2, r3, #8
 8005758:	e852 2f00 	ldrex	r2, [r2]
          ATOMIC_CLEAR_BIT(huart->Instance->CR3, USART_CR3_EIE);
 800575c:	f022 0201 	bic.w	r2, r2, #1
   __ASM volatile ("strex %0, %2, %1" : "=&r" (result), "=Q" (*addr) : "r" (value) );
 8005760:	f103 0008 	add.w	r0, r3, #8
 8005764:	e840 2100 	strex	r1, r2, [r0]
 8005768:	2900      	cmp	r1, #0
 800576a:	d1f3      	bne.n	8005754 <HAL_UART_IRQHandler+0x198>
   __ASM volatile ("ldrex %0, %1" : "=r" (result) : "Q" (*addr) );
 800576c:	f103 0208 	add.w	r2, r3, #8
 8005770:	e852 2f00 	ldrex	r2, [r2]
          ATOMIC_CLEAR_BIT(huart->Instance->CR3, USART_CR3_DMAR);
 8005774:	f022 0240 	bic.w	r2, r2, #64	@ 0x40
   __ASM volatile ("strex %0, %2, %1" : "=&r" (result), "=Q" (*addr) : "r" (value) );
 8005778:	f103 0008 	add.w	r0, r3, #8
 800577c:	e840 2100 	strex	r1, r2, [r0]
 8005780:	2900      	cmp	r1, #0
 8005782:	d1f3      	bne.n	800576c <HAL_UART_IRQHandler+0x1b0>
          huart->RxState = HAL_UART_STATE_READY;
 8005784:	2220      	movs	r2, #32
 8005786:	f8c4 208c 	str.w	r2, [r4, #140]	@ 0x8c
          huart->ReceptionType = HAL_UART_RECEPTION_STANDARD;
 800578a:	66e1      	str	r1, [r4, #108]	@ 0x6c
   __ASM volatile ("ldrex %0, %1" : "=r" (result) : "Q" (*addr) );
 800578c:	e853 2f00 	ldrex	r2, [r3]
          ATOMIC_CLEAR_BIT(huart->Instance->CR1, USART_CR1_IDLEIE);
 8005790:	f022 0210 	bic.w	r2, r2, #16
   __ASM volatile ("strex %0, %2, %1" : "=&r" (result), "=Q" (*addr) : "r" (value) );
 8005794:	e843 2100 	strex	r1, r2, [r3]
 8005798:	2900      	cmp	r1, #0
 800579a:	d1f7      	bne.n	800578c <HAL_UART_IRQHandler+0x1d0>
          (void)HAL_DMA_Abort(huart->hdmarx);
 800579c:	f8d4 0080 	ldr.w	r0, [r4, #128]	@ 0x80
 80057a0:	f7fd f95a 	bl	8002a58 <HAL_DMA_Abort>
        huart->RxEventType = HAL_UART_RXEVENT_IDLE;
 80057a4:	2302      	movs	r3, #2
 80057a6:	6723      	str	r3, [r4, #112]	@ 0x70
        HAL_UARTEx_RxEventCallback(huart, (huart->RxXferSize - huart->RxXferCount));
 80057a8:	f8b4 305e 	ldrh.w	r3, [r4, #94]	@ 0x5e
 80057ac:	f8b4 105c 	ldrh.w	r1, [r4, #92]	@ 0x5c
 80057b0:	1ac9      	subs	r1, r1, r3
 80057b2:	b289      	uxth	r1, r1
            HAL_UARTEx_RxEventCallback(huart, huart->RxXferSize);
 80057b4:	4620      	mov	r0, r4
 80057b6:	f7ff feff 	bl	80055b8 <HAL_UARTEx_RxEventCallback>
 80057ba:	e79d      	b.n	80056f8 <HAL_UART_IRQHandler+0x13c>
        if (nb_remaining_rx_data == huart->RxXferSize)
 80057bc:	4291      	cmp	r1, r2
 80057be:	d19b      	bne.n	80056f8 <HAL_UART_IRQHandler+0x13c>
          if (HAL_IS_BIT_SET(huart->hdmarx->Instance->CCR, DMA_CCR_CIRC))
 80057c0:	6803      	ldr	r3, [r0, #0]
 80057c2:	069b      	lsls	r3, r3, #26
 80057c4:	d598      	bpl.n	80056f8 <HAL_UART_IRQHandler+0x13c>
            huart->RxEventType = HAL_UART_RXEVENT_IDLE;
 80057c6:	2302      	movs	r3, #2
 80057c8:	6723      	str	r3, [r4, #112]	@ 0x70
 80057ca:	e7f3      	b.n	80057b4 <HAL_UART_IRQHandler+0x1f8>
      uint16_t nb_rx_data = huart->RxXferSize - huart->RxXferCount;
 80057cc:	f8b4 105e 	ldrh.w	r1, [r4, #94]	@ 0x5e
      if ((huart->RxXferCount > 0U)
 80057d0:	f8b4 005e 	ldrh.w	r0, [r4, #94]	@ 0x5e
 80057d4:	b280      	uxth	r0, r0
      uint16_t nb_rx_data = huart->RxXferSize - huart->RxXferCount;
 80057d6:	b289      	uxth	r1, r1
      if ((huart->RxXferCount > 0U)
 80057d8:	2800      	cmp	r0, #0
 80057da:	d08d      	beq.n	80056f8 <HAL_UART_IRQHandler+0x13c>
      uint16_t nb_rx_data = huart->RxXferSize - huart->RxXferCount;
 80057dc:	1a52      	subs	r2, r2, r1
 80057de:	b291      	uxth	r1, r2
          && (nb_rx_data > 0U))
 80057e0:	2900      	cmp	r1, #0
 80057e2:	d089      	beq.n	80056f8 <HAL_UART_IRQHandler+0x13c>
   __ASM volatile ("ldrex %0, %1" : "=r" (result) : "Q" (*addr) );
 80057e4:	e853 2f00 	ldrex	r2, [r3]
        ATOMIC_CLEAR_BIT(huart->Instance->CR1, (USART_CR1_RXNEIE_RXFNEIE | USART_CR1_PEIE));
 80057e8:	f422 7290 	bic.w	r2, r2, #288	@ 0x120
   __ASM volatile ("strex %0, %2, %1" : "=&r" (result), "=Q" (*addr) : "r" (value) );
 80057ec:	e843 2000 	strex	r0, r2, [r3]
 80057f0:	2800      	cmp	r0, #0
 80057f2:	d1f7      	bne.n	80057e4 <HAL_UART_IRQHandler+0x228>
        ATOMIC_CLEAR_BIT(huart->Instance->CR3, (USART_CR3_EIE | USART_CR3_RXFTIE));
 80057f4:	4d2b      	ldr	r5, [pc, #172]	@ (80058a4 <HAL_UART_IRQHandler+0x2e8>)
   __ASM volatile ("ldrex %0, %1" : "=r" (result) : "Q" (*addr) );
 80057f6:	f103 0208 	add.w	r2, r3, #8
 80057fa:	e852 2f00 	ldrex	r2, [r2]
 80057fe:	402a      	ands	r2, r5
   __ASM volatile ("strex %0, %2, %1" : "=&r" (result), "=Q" (*addr) : "r" (value) );
 8005800:	f103 0608 	add.w	r6, r3, #8
 8005804:	e846 2000 	strex	r0, r2, [r6]
 8005808:	2800      	cmp	r0, #0
 800580a:	d1f4      	bne.n	80057f6 <HAL_UART_IRQHandler+0x23a>
        huart->RxState = HAL_UART_STATE_READY;
 800580c:	2220      	movs	r2, #32
 800580e:	f8c4 208c 	str.w	r2, [r4, #140]	@ 0x8c
        huart->RxISR = NULL;
 8005812:	6760      	str	r0, [r4, #116]	@ 0x74
        huart->ReceptionType = HAL_UART_RECEPTION_STANDARD;
 8005814:	66e0      	str	r0, [r4, #108]	@ 0x6c
   __ASM volatile ("ldrex %0, %1" : "=r" (result) : "Q" (*addr) );
 8005816:	e853 2f00 	ldrex	r2, [r3]
        ATOMIC_CLEAR_BIT(huart->Instance->CR1, USART_CR1_IDLEIE);
 800581a:	f022 0210 	bic.w	r2, r2, #16
   __ASM volatile ("strex %0, %2, %1" : "=&r" (result), "=Q" (*addr) : "r" (value) );
 800581e:	e843 2000 	strex	r0, r2, [r3]
 8005822:	2800      	cmp	r0, #0
 8005824:	d1f7      	bne.n	8005816 <HAL_UART_IRQHandler+0x25a>
 8005826:	e7ce      	b.n	80057c6 <HAL_UART_IRQHandler+0x20a>
  if (((isrflags & USART_ISR_WUF) != 0U) && ((cr3its & USART_CR3_WUFIE) != 0U))
 8005828:	02cf      	lsls	r7, r1, #11
 800582a:	d509      	bpl.n	8005840 <HAL_UART_IRQHandler+0x284>
 800582c:	026e      	lsls	r6, r5, #9
 800582e:	d507      	bpl.n	8005840 <HAL_UART_IRQHandler+0x284>
    __HAL_UART_CLEAR_FLAG(huart, UART_CLEAR_WUF);
 8005830:	f44f 1280 	mov.w	r2, #1048576	@ 0x100000
    HAL_UARTEx_WakeupCallback(huart);
 8005834:	4620      	mov	r0, r4
    __HAL_UART_CLEAR_FLAG(huart, UART_CLEAR_WUF);
 8005836:	621a      	str	r2, [r3, #32]
}
 8005838:	e8bd 41f0 	ldmia.w	sp!, {r4, r5, r6, r7, r8, lr}
    HAL_UARTEx_WakeupCallback(huart);
 800583c:	f000 bab6 	b.w	8005dac <HAL_UARTEx_WakeupCallback>
  if (((isrflags & USART_ISR_TXE_TXFNF) != 0U)
 8005840:	0608      	lsls	r0, r1, #24
 8005842:	d50b      	bpl.n	800585c <HAL_UART_IRQHandler+0x2a0>
      && (((cr1its & USART_CR1_TXEIE_TXFNFIE) != 0U)
 8005844:	f002 0080 	and.w	r0, r2, #128	@ 0x80
          || ((cr3its & USART_CR3_TXFTIE) != 0U)))
 8005848:	f405 0500 	and.w	r5, r5, #8388608	@ 0x800000
 800584c:	4328      	orrs	r0, r5
 800584e:	d005      	beq.n	800585c <HAL_UART_IRQHandler+0x2a0>
    if (huart->TxISR != NULL)
 8005850:	6fa3      	ldr	r3, [r4, #120]	@ 0x78
 8005852:	2b00      	cmp	r3, #0
 8005854:	f43f af50 	beq.w	80056f8 <HAL_UART_IRQHandler+0x13c>
      huart->TxISR(huart);
 8005858:	4620      	mov	r0, r4
 800585a:	e6c8      	b.n	80055ee <HAL_UART_IRQHandler+0x32>
  if (((isrflags & USART_ISR_TC) != 0U) && ((cr1its & USART_CR1_TCIE) != 0U))
 800585c:	064f      	lsls	r7, r1, #25
 800585e:	d511      	bpl.n	8005884 <HAL_UART_IRQHandler+0x2c8>
 8005860:	0656      	lsls	r6, r2, #25
 8005862:	d50f      	bpl.n	8005884 <HAL_UART_IRQHandler+0x2c8>
   __ASM volatile ("ldrex %0, %1" : "=r" (result) : "Q" (*addr) );
 8005864:	e853 2f00 	ldrex	r2, [r3]
  * @retval None
  */
static void UART_EndTransmit_IT(UART_HandleTypeDef *huart)
{
  /* Disable the UART Transmit Complete Interrupt */
  ATOMIC_CLEAR_BIT(huart->Instance->CR1, USART_CR1_TCIE);
 8005868:	f022 0240 	bic.w	r2, r2, #64	@ 0x40
   __ASM volatile ("strex %0, %2, %1" : "=&r" (result), "=Q" (*addr) : "r" (value) );
 800586c:	e843 2100 	strex	r1, r2, [r3]
 8005870:	2900      	cmp	r1, #0
 8005872:	d1f7      	bne.n	8005864 <HAL_UART_IRQHandler+0x2a8>

  /* Tx process is ended, restore huart->gState to Ready */
  huart->gState = HAL_UART_STATE_READY;
 8005874:	2320      	movs	r3, #32
 8005876:	f8c4 3088 	str.w	r3, [r4, #136]	@ 0x88

  /* Cleat TxISR function pointer */
  huart->TxISR = NULL;
 800587a:	67a1      	str	r1, [r4, #120]	@ 0x78
#if (USE_HAL_UART_REGISTER_CALLBACKS == 1)
  /*Call registered Tx complete callback*/
  huart->TxCpltCallback(huart);
#else
  /*Call legacy weak Tx complete callback*/
  HAL_UART_TxCpltCallback(huart);
 800587c:	4620      	mov	r0, r4
 800587e:	f7ff fe91 	bl	80055a4 <HAL_UART_TxCpltCallback>
#endif /* USE_HAL_UART_REGISTER_CALLBACKS */
}
 8005882:	e739      	b.n	80056f8 <HAL_UART_IRQHandler+0x13c>
  if (((isrflags & USART_ISR_TXFE) != 0U) && ((cr1its & USART_CR1_TXFEIE) != 0U))
 8005884:	020d      	lsls	r5, r1, #8
 8005886:	d50f      	bpl.n	80058a8 <HAL_UART_IRQHandler+0x2ec>
 8005888:	0050      	lsls	r0, r2, #1
 800588a:	d50d      	bpl.n	80058a8 <HAL_UART_IRQHandler+0x2ec>
    HAL_UARTEx_TxFifoEmptyCallback(huart);
 800588c:	4620      	mov	r0, r4
}
 800588e:	e8bd 41f0 	ldmia.w	sp!, {r4, r5, r6, r7, r8, lr}
    HAL_UARTEx_TxFifoEmptyCallback(huart);
 8005892:	f000 ba8d 	b.w	8005db0 <HAL_UARTEx_TxFifoEmptyCallback>
 8005896:	bf00      	nop
 8005898:	10000001 	.word	0x10000001
 800589c:	04000120 	.word	0x04000120
 80058a0:	080055a9 	.word	0x080055a9
 80058a4:	effffffe 	.word	0xeffffffe
  if (((isrflags & USART_ISR_RXFF) != 0U) && ((cr1its & USART_CR1_RXFFIE) != 0U))
 80058a8:	01cb      	lsls	r3, r1, #7
 80058aa:	f57f af25 	bpl.w	80056f8 <HAL_UART_IRQHandler+0x13c>
 80058ae:	2a00      	cmp	r2, #0
 80058b0:	f6bf af22 	bge.w	80056f8 <HAL_UART_IRQHandler+0x13c>
    HAL_UARTEx_RxFifoFullCallback(huart);
 80058b4:	4620      	mov	r0, r4
}
 80058b6:	e8bd 41f0 	ldmia.w	sp!, {r4, r5, r6, r7, r8, lr}
    HAL_UARTEx_RxFifoFullCallback(huart);
 80058ba:	f000 ba78 	b.w	8005dae <HAL_UARTEx_RxFifoFullCallback>
 80058be:	bf00      	nop

080058c0 <UART_SetConfig>:
{
 80058c0:	b538      	push	{r3, r4, r5, lr}
 80058c2:	4604      	mov	r4, r0
  tmpreg = (uint32_t)huart->Init.WordLength | huart->Init.Parity | huart->Init.Mode | huart->Init.OverSampling ;
 80058c4:	69c0      	ldr	r0, [r0, #28]
 80058c6:	6921      	ldr	r1, [r4, #16]
 80058c8:	68a2      	ldr	r2, [r4, #8]
  MODIFY_REG(huart->Instance->CR1, USART_CR1_FIELDS, tmpreg);
 80058ca:	6823      	ldr	r3, [r4, #0]
  tmpreg = (uint32_t)huart->Init.WordLength | huart->Init.Parity | huart->Init.Mode | huart->Init.OverSampling ;
 80058cc:	430a      	orrs	r2, r1
 80058ce:	6961      	ldr	r1, [r4, #20]
  MODIFY_REG(huart->Instance->CR1, USART_CR1_FIELDS, tmpreg);
 80058d0:	681d      	ldr	r5, [r3, #0]
  tmpreg = (uint32_t)huart->Init.WordLength | huart->Init.Parity | huart->Init.Mode | huart->Init.OverSampling ;
 80058d2:	430a      	orrs	r2, r1
  MODIFY_REG(huart->Instance->CR1, USART_CR1_FIELDS, tmpreg);
 80058d4:	4985      	ldr	r1, [pc, #532]	@ (8005aec <UART_SetConfig+0x22c>)
  tmpreg = (uint32_t)huart->Init.WordLength | huart->Init.Parity | huart->Init.Mode | huart->Init.OverSampling ;
 80058d6:	4302      	orrs	r2, r0
  MODIFY_REG(huart->Instance->CR1, USART_CR1_FIELDS, tmpreg);
 80058d8:	4029      	ands	r1, r5
 80058da:	430a      	orrs	r2, r1
 80058dc:	601a      	str	r2, [r3, #0]
  MODIFY_REG(huart->Instance->CR2, USART_CR2_STOP, huart->Init.StopBits);
 80058de:	685a      	ldr	r2, [r3, #4]
 80058e0:	68e1      	ldr	r1, [r4, #12]
 80058e2:	f422 5240 	bic.w	r2, r2, #12288	@ 0x3000
 80058e6:	430a      	orrs	r2, r1
 80058e8:	605a      	str	r2, [r3, #4]
  if (!(UART_INSTANCE_LOWPOWER(huart)))
 80058ea:	4a81      	ldr	r2, [pc, #516]	@ (8005af0 <UART_SetConfig+0x230>)
  tmpreg = (uint32_t)huart->Init.HwFlowCtl;
 80058ec:	69a1      	ldr	r1, [r4, #24]
  if (!(UART_INSTANCE_LOWPOWER(huart)))
 80058ee:	4293      	cmp	r3, r2
    tmpreg |= huart->Init.OneBitSampling;
 80058f0:	bf1c      	itt	ne
 80058f2:	6a22      	ldrne	r2, [r4, #32]
 80058f4:	4311      	orrne	r1, r2
  MODIFY_REG(huart->Instance->CR3, USART_CR3_FIELDS, tmpreg);
 80058f6:	689a      	ldr	r2, [r3, #8]
 80058f8:	f022 426e 	bic.w	r2, r2, #3992977408	@ 0xee000000
 80058fc:	f422 6230 	bic.w	r2, r2, #2816	@ 0xb00
 8005900:	430a      	orrs	r2, r1
 8005902:	609a      	str	r2, [r3, #8]
  MODIFY_REG(huart->Instance->PRESC, USART_PRESC_PRESCALER, huart->Init.ClockPrescaler);
 8005904:	6ada      	ldr	r2, [r3, #44]	@ 0x2c
 8005906:	6a61      	ldr	r1, [r4, #36]	@ 0x24
 8005908:	f022 020f 	bic.w	r2, r2, #15
 800590c:	430a      	orrs	r2, r1
 800590e:	62da      	str	r2, [r3, #44]	@ 0x2c
  UART_GETCLOCKSOURCE(huart, clocksource);
 8005910:	4a78      	ldr	r2, [pc, #480]	@ (8005af4 <UART_SetConfig+0x234>)
 8005912:	4293      	cmp	r3, r2
 8005914:	d130      	bne.n	8005978 <UART_SetConfig+0xb8>
 8005916:	4b78      	ldr	r3, [pc, #480]	@ (8005af8 <UART_SetConfig+0x238>)
 8005918:	f8d3 3088 	ldr.w	r3, [r3, #136]	@ 0x88
 800591c:	f003 0303 	and.w	r3, r3, #3
 8005920:	2b02      	cmp	r3, #2
 8005922:	f000 80da 	beq.w	8005ada <UART_SetConfig+0x21a>
 8005926:	2b03      	cmp	r3, #3
 8005928:	f000 80ca 	beq.w	8005ac0 <UART_SetConfig+0x200>
 800592c:	2b01      	cmp	r3, #1
 800592e:	f000 80ce 	beq.w	8005ace <UART_SetConfig+0x20e>
  else if (huart->Init.OverSampling == UART_OVERSAMPLING_8)
 8005932:	f5b0 4f00 	cmp.w	r0, #32768	@ 0x8000
 8005936:	f040 80d5 	bne.w	8005ae4 <UART_SetConfig+0x224>
        pclk = HAL_RCC_GetPCLK2Freq();
 800593a:	f7fe ff6d 	bl	8004818 <HAL_RCC_GetPCLK2Freq>
    if (pclk != 0U)
 800593e:	2800      	cmp	r0, #0
 8005940:	d077      	beq.n	8005a32 <UART_SetConfig+0x172>
      usartdiv = (uint32_t)(UART_DIV_SAMPLING8(pclk, huart->Init.BaudRate, huart->Init.ClockPrescaler));
 8005942:	6861      	ldr	r1, [r4, #4]
 8005944:	4b6d      	ldr	r3, [pc, #436]	@ (8005afc <UART_SetConfig+0x23c>)
 8005946:	6a62      	ldr	r2, [r4, #36]	@ 0x24
 8005948:	f833 2012 	ldrh.w	r2, [r3, r2, lsl #1]
 800594c:	fbb0 f2f2 	udiv	r2, r0, r2
 8005950:	084b      	lsrs	r3, r1, #1
 8005952:	eb03 0342 	add.w	r3, r3, r2, lsl #1
      if ((usartdiv >= UART_BRR_MIN) && (usartdiv <= UART_BRR_MAX))
 8005956:	f64f 72ef 	movw	r2, #65519	@ 0xffef
      usartdiv = (uint32_t)(UART_DIV_SAMPLING8(pclk, huart->Init.BaudRate, huart->Init.ClockPrescaler));
 800595a:	fbb3 f3f1 	udiv	r3, r3, r1
      if ((usartdiv >= UART_BRR_MIN) && (usartdiv <= UART_BRR_MAX))
 800595e:	f1a3 0110 	sub.w	r1, r3, #16
 8005962:	4291      	cmp	r1, r2
 8005964:	d820      	bhi.n	80059a8 <UART_SetConfig+0xe8>
        brrtemp = (uint16_t)(usartdiv & 0xFFF0U);
 8005966:	f023 020f 	bic.w	r2, r3, #15
        huart->Instance->BRR = brrtemp;
 800596a:	6821      	ldr	r1, [r4, #0]
        brrtemp = (uint16_t)(usartdiv & 0xFFF0U);
 800596c:	b292      	uxth	r2, r2
        brrtemp |= (uint16_t)((usartdiv & (uint16_t)0x000FU) >> 1U);
 800596e:	f3c3 0342 	ubfx	r3, r3, #1, #3
        huart->Instance->BRR = brrtemp;
 8005972:	4313      	orrs	r3, r2
 8005974:	60cb      	str	r3, [r1, #12]
 8005976:	e05c      	b.n	8005a32 <UART_SetConfig+0x172>
  UART_GETCLOCKSOURCE(huart, clocksource);
 8005978:	4a61      	ldr	r2, [pc, #388]	@ (8005b00 <UART_SetConfig+0x240>)
 800597a:	4293      	cmp	r3, r2
 800597c:	d116      	bne.n	80059ac <UART_SetConfig+0xec>
 800597e:	4b5e      	ldr	r3, [pc, #376]	@ (8005af8 <UART_SetConfig+0x238>)
 8005980:	f8d3 3088 	ldr.w	r3, [r3, #136]	@ 0x88
 8005984:	f003 030c 	and.w	r3, r3, #12
 8005988:	2b08      	cmp	r3, #8
 800598a:	f000 80a6 	beq.w	8005ada <UART_SetConfig+0x21a>
 800598e:	d808      	bhi.n	80059a2 <UART_SetConfig+0xe2>
 8005990:	2b00      	cmp	r3, #0
 8005992:	f040 809c 	bne.w	8005ace <UART_SetConfig+0x20e>
  else if (huart->Init.OverSampling == UART_OVERSAMPLING_8)
 8005996:	f5b0 4f00 	cmp.w	r0, #32768	@ 0x8000
 800599a:	d17a      	bne.n	8005a92 <UART_SetConfig+0x1d2>
        pclk = HAL_RCC_GetPCLK1Freq();
 800599c:	f7fe ff2a 	bl	80047f4 <HAL_RCC_GetPCLK1Freq>
        break;
 80059a0:	e7cd      	b.n	800593e <UART_SetConfig+0x7e>
  UART_GETCLOCKSOURCE(huart, clocksource);
 80059a2:	2b0c      	cmp	r3, #12
 80059a4:	f000 808c 	beq.w	8005ac0 <UART_SetConfig+0x200>
  else if (huart->Init.OverSampling == UART_OVERSAMPLING_8)
 80059a8:	2001      	movs	r0, #1
 80059aa:	e043      	b.n	8005a34 <UART_SetConfig+0x174>
  UART_GETCLOCKSOURCE(huart, clocksource);
 80059ac:	4a55      	ldr	r2, [pc, #340]	@ (8005b04 <UART_SetConfig+0x244>)
 80059ae:	4293      	cmp	r3, r2
 80059b0:	d10a      	bne.n	80059c8 <UART_SetConfig+0x108>
 80059b2:	4b51      	ldr	r3, [pc, #324]	@ (8005af8 <UART_SetConfig+0x238>)
 80059b4:	f8d3 3088 	ldr.w	r3, [r3, #136]	@ 0x88
 80059b8:	f003 0330 	and.w	r3, r3, #48	@ 0x30
 80059bc:	2b20      	cmp	r3, #32
 80059be:	f000 808c 	beq.w	8005ada <UART_SetConfig+0x21a>
 80059c2:	d9e5      	bls.n	8005990 <UART_SetConfig+0xd0>
 80059c4:	2b30      	cmp	r3, #48	@ 0x30
 80059c6:	e7ed      	b.n	80059a4 <UART_SetConfig+0xe4>
 80059c8:	4a4f      	ldr	r2, [pc, #316]	@ (8005b08 <UART_SetConfig+0x248>)
 80059ca:	4293      	cmp	r3, r2
 80059cc:	d109      	bne.n	80059e2 <UART_SetConfig+0x122>
 80059ce:	4b4a      	ldr	r3, [pc, #296]	@ (8005af8 <UART_SetConfig+0x238>)
 80059d0:	f8d3 3088 	ldr.w	r3, [r3, #136]	@ 0x88
 80059d4:	f003 03c0 	and.w	r3, r3, #192	@ 0xc0
 80059d8:	2b80      	cmp	r3, #128	@ 0x80
 80059da:	d07e      	beq.n	8005ada <UART_SetConfig+0x21a>
 80059dc:	d9d8      	bls.n	8005990 <UART_SetConfig+0xd0>
 80059de:	2bc0      	cmp	r3, #192	@ 0xc0
 80059e0:	e7e0      	b.n	80059a4 <UART_SetConfig+0xe4>
 80059e2:	4a4a      	ldr	r2, [pc, #296]	@ (8005b0c <UART_SetConfig+0x24c>)
 80059e4:	4293      	cmp	r3, r2
 80059e6:	d10b      	bne.n	8005a00 <UART_SetConfig+0x140>
 80059e8:	4b43      	ldr	r3, [pc, #268]	@ (8005af8 <UART_SetConfig+0x238>)
 80059ea:	f8d3 3088 	ldr.w	r3, [r3, #136]	@ 0x88
 80059ee:	f403 7340 	and.w	r3, r3, #768	@ 0x300
 80059f2:	f5b3 7f00 	cmp.w	r3, #512	@ 0x200
 80059f6:	d070      	beq.n	8005ada <UART_SetConfig+0x21a>
 80059f8:	d9ca      	bls.n	8005990 <UART_SetConfig+0xd0>
 80059fa:	f5b3 7f40 	cmp.w	r3, #768	@ 0x300
 80059fe:	e7d1      	b.n	80059a4 <UART_SetConfig+0xe4>
 8005a00:	4a3b      	ldr	r2, [pc, #236]	@ (8005af0 <UART_SetConfig+0x230>)
 8005a02:	4293      	cmp	r3, r2
 8005a04:	d1d0      	bne.n	80059a8 <UART_SetConfig+0xe8>
 8005a06:	4b3c      	ldr	r3, [pc, #240]	@ (8005af8 <UART_SetConfig+0x238>)
 8005a08:	f8d3 3088 	ldr.w	r3, [r3, #136]	@ 0x88
 8005a0c:	f403 6340 	and.w	r3, r3, #3072	@ 0xc00
 8005a10:	f5b3 6f00 	cmp.w	r3, #2048	@ 0x800
 8005a14:	d015      	beq.n	8005a42 <UART_SetConfig+0x182>
 8005a16:	d803      	bhi.n	8005a20 <UART_SetConfig+0x160>
 8005a18:	b943      	cbnz	r3, 8005a2c <UART_SetConfig+0x16c>
        pclk = HAL_RCC_GetPCLK1Freq();
 8005a1a:	f7fe feeb 	bl	80047f4 <HAL_RCC_GetPCLK1Freq>
        break;
 8005a1e:	e007      	b.n	8005a30 <UART_SetConfig+0x170>
  UART_GETCLOCKSOURCE(huart, clocksource);
 8005a20:	f5b3 6f40 	cmp.w	r3, #3072	@ 0xc00
 8005a24:	d1c0      	bne.n	80059a8 <UART_SetConfig+0xe8>
 8005a26:	f44f 4000 	mov.w	r0, #32768	@ 0x8000
 8005a2a:	e00b      	b.n	8005a44 <UART_SetConfig+0x184>
        pclk = HAL_RCC_GetSysClockFreq();
 8005a2c:	f7fe fdca 	bl	80045c4 <HAL_RCC_GetSysClockFreq>
    if (pclk != 0U)
 8005a30:	b940      	cbnz	r0, 8005a44 <UART_SetConfig+0x184>
  else if (huart->Init.OverSampling == UART_OVERSAMPLING_8)
 8005a32:	2000      	movs	r0, #0
  huart->NbRxDataToProcess = 1;
 8005a34:	f04f 1301 	mov.w	r3, #65537	@ 0x10001
 8005a38:	66a3      	str	r3, [r4, #104]	@ 0x68
  huart->RxISR = NULL;
 8005a3a:	2300      	movs	r3, #0
  huart->TxISR = NULL;
 8005a3c:	e9c4 331d 	strd	r3, r3, [r4, #116]	@ 0x74
}
 8005a40:	bd38      	pop	{r3, r4, r5, pc}
        pclk = (uint32_t) HSI_VALUE;
 8005a42:	4833      	ldr	r0, [pc, #204]	@ (8005b10 <UART_SetConfig+0x250>)
      if ((lpuart_ker_ck_pres < (3U * huart->Init.BaudRate)) ||
 8005a44:	6865      	ldr	r5, [r4, #4]
      lpuart_ker_ck_pres = (pclk / UARTPrescTable[huart->Init.ClockPrescaler]);
 8005a46:	4b2d      	ldr	r3, [pc, #180]	@ (8005afc <UART_SetConfig+0x23c>)
 8005a48:	6a62      	ldr	r2, [r4, #36]	@ 0x24
      if ((lpuart_ker_ck_pres < (3U * huart->Init.BaudRate)) ||
 8005a4a:	eb05 0145 	add.w	r1, r5, r5, lsl #1
      lpuart_ker_ck_pres = (pclk / UARTPrescTable[huart->Init.ClockPrescaler]);
 8005a4e:	f833 2012 	ldrh.w	r2, [r3, r2, lsl #1]
 8005a52:	fbb0 f3f2 	udiv	r3, r0, r2
      if ((lpuart_ker_ck_pres < (3U * huart->Init.BaudRate)) ||
 8005a56:	4299      	cmp	r1, r3
 8005a58:	d8a6      	bhi.n	80059a8 <UART_SetConfig+0xe8>
 8005a5a:	ebb3 3f05 	cmp.w	r3, r5, lsl #12
 8005a5e:	d8a3      	bhi.n	80059a8 <UART_SetConfig+0xe8>
        usartdiv = (uint32_t)(UART_DIV_LPUART(pclk, huart->Init.BaudRate, huart->Init.ClockPrescaler));
 8005a60:	2300      	movs	r3, #0
 8005a62:	4619      	mov	r1, r3
 8005a64:	f7fb f8c8 	bl	8000bf8 <__aeabi_uldivmod>
 8005a68:	0209      	lsls	r1, r1, #8
 8005a6a:	ea41 6110 	orr.w	r1, r1, r0, lsr #24
 8005a6e:	086b      	lsrs	r3, r5, #1
 8005a70:	0200      	lsls	r0, r0, #8
 8005a72:	18c0      	adds	r0, r0, r3
 8005a74:	462a      	mov	r2, r5
 8005a76:	f04f 0300 	mov.w	r3, #0
 8005a7a:	f141 0100 	adc.w	r1, r1, #0
 8005a7e:	f7fb f8bb 	bl	8000bf8 <__aeabi_uldivmod>
        if ((usartdiv >= LPUART_BRR_MIN) && (usartdiv <= LPUART_BRR_MAX))
 8005a82:	4b24      	ldr	r3, [pc, #144]	@ (8005b14 <UART_SetConfig+0x254>)
 8005a84:	f5a0 7240 	sub.w	r2, r0, #768	@ 0x300
      if ((usartdiv >= UART_BRR_MIN) && (usartdiv <= UART_BRR_MAX))
 8005a88:	429a      	cmp	r2, r3
 8005a8a:	d88d      	bhi.n	80059a8 <UART_SetConfig+0xe8>
        huart->Instance->BRR = (uint16_t)usartdiv;
 8005a8c:	6823      	ldr	r3, [r4, #0]
 8005a8e:	60d8      	str	r0, [r3, #12]
 8005a90:	e7cf      	b.n	8005a32 <UART_SetConfig+0x172>
        pclk = HAL_RCC_GetPCLK1Freq();
 8005a92:	f7fe feaf 	bl	80047f4 <HAL_RCC_GetPCLK1Freq>
    if (pclk != 0U)
 8005a96:	2800      	cmp	r0, #0
 8005a98:	d0cb      	beq.n	8005a32 <UART_SetConfig+0x172>
      usartdiv = (uint32_t)(UART_DIV_SAMPLING16(pclk, huart->Init.BaudRate, huart->Init.ClockPrescaler));
 8005a9a:	6863      	ldr	r3, [r4, #4]
 8005a9c:	6a61      	ldr	r1, [r4, #36]	@ 0x24
 8005a9e:	4a17      	ldr	r2, [pc, #92]	@ (8005afc <UART_SetConfig+0x23c>)
 8005aa0:	f832 2011 	ldrh.w	r2, [r2, r1, lsl #1]
 8005aa4:	fbb0 f0f2 	udiv	r0, r0, r2
 8005aa8:	eb00 0053 	add.w	r0, r0, r3, lsr #1
 8005aac:	fbb0 f0f3 	udiv	r0, r0, r3
      if ((usartdiv >= UART_BRR_MIN) && (usartdiv <= UART_BRR_MAX))
 8005ab0:	f64f 73ef 	movw	r3, #65519	@ 0xffef
 8005ab4:	f1a0 0210 	sub.w	r2, r0, #16
 8005ab8:	e7e6      	b.n	8005a88 <UART_SetConfig+0x1c8>
        pclk = HAL_RCC_GetSysClockFreq();
 8005aba:	f7fe fd83 	bl	80045c4 <HAL_RCC_GetSysClockFreq>
        break;
 8005abe:	e7ea      	b.n	8005a96 <UART_SetConfig+0x1d6>
  else if (huart->Init.OverSampling == UART_OVERSAMPLING_8)
 8005ac0:	f5b0 4f00 	cmp.w	r0, #32768	@ 0x8000
 8005ac4:	f43f af3d 	beq.w	8005942 <UART_SetConfig+0x82>
        pclk = (uint32_t) LSE_VALUE;
 8005ac8:	f44f 4000 	mov.w	r0, #32768	@ 0x8000
 8005acc:	e7e5      	b.n	8005a9a <UART_SetConfig+0x1da>
  else if (huart->Init.OverSampling == UART_OVERSAMPLING_8)
 8005ace:	f5b0 4f00 	cmp.w	r0, #32768	@ 0x8000
 8005ad2:	d1f2      	bne.n	8005aba <UART_SetConfig+0x1fa>
        pclk = HAL_RCC_GetSysClockFreq();
 8005ad4:	f7fe fd76 	bl	80045c4 <HAL_RCC_GetSysClockFreq>
        break;
 8005ad8:	e731      	b.n	800593e <UART_SetConfig+0x7e>
  else if (huart->Init.OverSampling == UART_OVERSAMPLING_8)
 8005ada:	f5b0 4f00 	cmp.w	r0, #32768	@ 0x8000
 8005ade:	480c      	ldr	r0, [pc, #48]	@ (8005b10 <UART_SetConfig+0x250>)
 8005ae0:	d1db      	bne.n	8005a9a <UART_SetConfig+0x1da>
 8005ae2:	e72e      	b.n	8005942 <UART_SetConfig+0x82>
        pclk = HAL_RCC_GetPCLK2Freq();
 8005ae4:	f7fe fe98 	bl	8004818 <HAL_RCC_GetPCLK2Freq>
        break;
 8005ae8:	e7d5      	b.n	8005a96 <UART_SetConfig+0x1d6>
 8005aea:	bf00      	nop
 8005aec:	cfff69f3 	.word	0xcfff69f3
 8005af0:	40008000 	.word	0x40008000
 8005af4:	40013800 	.word	0x40013800
 8005af8:	40021000 	.word	0x40021000
 8005afc:	0800a2b0 	.word	0x0800a2b0
 8005b00:	40004400 	.word	0x40004400
 8005b04:	40004800 	.word	0x40004800
 8005b08:	40004c00 	.word	0x40004c00
 8005b0c:	40005000 	.word	0x40005000
 8005b10:	00f42400 	.word	0x00f42400
 8005b14:	000ffcff 	.word	0x000ffcff

08005b18 <UART_AdvFeatureConfig>:
  if (HAL_IS_BIT_SET(huart->AdvancedInit.AdvFeatureInit, UART_ADVFEATURE_SWAP_INIT))
 8005b18:	6a83      	ldr	r3, [r0, #40]	@ 0x28
 8005b1a:	071a      	lsls	r2, r3, #28
{
 8005b1c:	b510      	push	{r4, lr}
  if (HAL_IS_BIT_SET(huart->AdvancedInit.AdvFeatureInit, UART_ADVFEATURE_SWAP_INIT))
 8005b1e:	d506      	bpl.n	8005b2e <UART_AdvFeatureConfig+0x16>
    MODIFY_REG(huart->Instance->CR2, USART_CR2_SWAP, huart->AdvancedInit.Swap);
 8005b20:	6801      	ldr	r1, [r0, #0]
 8005b22:	6b84      	ldr	r4, [r0, #56]	@ 0x38
 8005b24:	684a      	ldr	r2, [r1, #4]
 8005b26:	f422 4200 	bic.w	r2, r2, #32768	@ 0x8000
 8005b2a:	4322      	orrs	r2, r4
 8005b2c:	604a      	str	r2, [r1, #4]
  if (HAL_IS_BIT_SET(huart->AdvancedInit.AdvFeatureInit, UART_ADVFEATURE_TXINVERT_INIT))
 8005b2e:	07dc      	lsls	r4, r3, #31
 8005b30:	d506      	bpl.n	8005b40 <UART_AdvFeatureConfig+0x28>
    MODIFY_REG(huart->Instance->CR2, USART_CR2_TXINV, huart->AdvancedInit.TxPinLevelInvert);
 8005b32:	6801      	ldr	r1, [r0, #0]
 8005b34:	6ac4      	ldr	r4, [r0, #44]	@ 0x2c
 8005b36:	684a      	ldr	r2, [r1, #4]
 8005b38:	f422 3200 	bic.w	r2, r2, #131072	@ 0x20000
 8005b3c:	4322      	orrs	r2, r4
 8005b3e:	604a      	str	r2, [r1, #4]
  if (HAL_IS_BIT_SET(huart->AdvancedInit.AdvFeatureInit, UART_ADVFEATURE_RXINVERT_INIT))
 8005b40:	0799      	lsls	r1, r3, #30
 8005b42:	d506      	bpl.n	8005b52 <UART_AdvFeatureConfig+0x3a>
    MODIFY_REG(huart->Instance->CR2, USART_CR2_RXINV, huart->AdvancedInit.RxPinLevelInvert);
 8005b44:	6801      	ldr	r1, [r0, #0]
 8005b46:	6b04      	ldr	r4, [r0, #48]	@ 0x30
 8005b48:	684a      	ldr	r2, [r1, #4]
 8005b4a:	f422 3280 	bic.w	r2, r2, #65536	@ 0x10000
 8005b4e:	4322      	orrs	r2, r4
 8005b50:	604a      	str	r2, [r1, #4]
  if (HAL_IS_BIT_SET(huart->AdvancedInit.AdvFeatureInit, UART_ADVFEATURE_DATAINVERT_INIT))
 8005b52:	075a      	lsls	r2, r3, #29
 8005b54:	d506      	bpl.n	8005b64 <UART_AdvFeatureConfig+0x4c>
    MODIFY_REG(huart->Instance->CR2, USART_CR2_DATAINV, huart->AdvancedInit.DataInvert);
 8005b56:	6801      	ldr	r1, [r0, #0]
 8005b58:	6b44      	ldr	r4, [r0, #52]	@ 0x34
 8005b5a:	684a      	ldr	r2, [r1, #4]
 8005b5c:	f422 2280 	bic.w	r2, r2, #262144	@ 0x40000
 8005b60:	4322      	orrs	r2, r4
 8005b62:	604a      	str	r2, [r1, #4]
  if (HAL_IS_BIT_SET(huart->AdvancedInit.AdvFeatureInit, UART_ADVFEATURE_RXOVERRUNDISABLE_INIT))
 8005b64:	06dc      	lsls	r4, r3, #27
 8005b66:	d506      	bpl.n	8005b76 <UART_AdvFeatureConfig+0x5e>
    MODIFY_REG(huart->Instance->CR3, USART_CR3_OVRDIS, huart->AdvancedInit.OverrunDisable);
 8005b68:	6801      	ldr	r1, [r0, #0]
 8005b6a:	6bc4      	ldr	r4, [r0, #60]	@ 0x3c
 8005b6c:	688a      	ldr	r2, [r1, #8]
 8005b6e:	f422 5280 	bic.w	r2, r2, #4096	@ 0x1000
 8005b72:	4322      	orrs	r2, r4
 8005b74:	608a      	str	r2, [r1, #8]
  if (HAL_IS_BIT_SET(huart->AdvancedInit.AdvFeatureInit, UART_ADVFEATURE_DMADISABLEONERROR_INIT))
 8005b76:	0699      	lsls	r1, r3, #26
 8005b78:	d506      	bpl.n	8005b88 <UART_AdvFeatureConfig+0x70>
    MODIFY_REG(huart->Instance->CR3, USART_CR3_DDRE, huart->AdvancedInit.DMADisableonRxError);
 8005b7a:	6801      	ldr	r1, [r0, #0]
 8005b7c:	6c04      	ldr	r4, [r0, #64]	@ 0x40
 8005b7e:	688a      	ldr	r2, [r1, #8]
 8005b80:	f422 5200 	bic.w	r2, r2, #8192	@ 0x2000
 8005b84:	4322      	orrs	r2, r4
 8005b86:	608a      	str	r2, [r1, #8]
  if (HAL_IS_BIT_SET(huart->AdvancedInit.AdvFeatureInit, UART_ADVFEATURE_AUTOBAUDRATE_INIT))
 8005b88:	065a      	lsls	r2, r3, #25
 8005b8a:	d50f      	bpl.n	8005bac <UART_AdvFeatureConfig+0x94>
    MODIFY_REG(huart->Instance->CR2, USART_CR2_ABREN, huart->AdvancedInit.AutoBaudRateEnable);
 8005b8c:	6801      	ldr	r1, [r0, #0]
 8005b8e:	6c44      	ldr	r4, [r0, #68]	@ 0x44
 8005b90:	684a      	ldr	r2, [r1, #4]
 8005b92:	f422 1280 	bic.w	r2, r2, #1048576	@ 0x100000
 8005b96:	4322      	orrs	r2, r4
    if (huart->AdvancedInit.AutoBaudRateEnable == UART_ADVFEATURE_AUTOBAUDRATE_ENABLE)
 8005b98:	f5b4 1f80 	cmp.w	r4, #1048576	@ 0x100000
    MODIFY_REG(huart->Instance->CR2, USART_CR2_ABREN, huart->AdvancedInit.AutoBaudRateEnable);
 8005b9c:	604a      	str	r2, [r1, #4]
    if (huart->AdvancedInit.AutoBaudRateEnable == UART_ADVFEATURE_AUTOBAUDRATE_ENABLE)
 8005b9e:	d105      	bne.n	8005bac <UART_AdvFeatureConfig+0x94>
      MODIFY_REG(huart->Instance->CR2, USART_CR2_ABRMODE, huart->AdvancedInit.AutoBaudRateMode);
 8005ba0:	684a      	ldr	r2, [r1, #4]
 8005ba2:	6c84      	ldr	r4, [r0, #72]	@ 0x48
 8005ba4:	f422 02c0 	bic.w	r2, r2, #6291456	@ 0x600000
 8005ba8:	4322      	orrs	r2, r4
 8005baa:	604a      	str	r2, [r1, #4]
  if (HAL_IS_BIT_SET(huart->AdvancedInit.AdvFeatureInit, UART_ADVFEATURE_MSBFIRST_INIT))
 8005bac:	061b      	lsls	r3, r3, #24
 8005bae:	d506      	bpl.n	8005bbe <UART_AdvFeatureConfig+0xa6>
    MODIFY_REG(huart->Instance->CR2, USART_CR2_MSBFIRST, huart->AdvancedInit.MSBFirst);
 8005bb0:	6802      	ldr	r2, [r0, #0]
 8005bb2:	6cc1      	ldr	r1, [r0, #76]	@ 0x4c
 8005bb4:	6853      	ldr	r3, [r2, #4]
 8005bb6:	f423 2300 	bic.w	r3, r3, #524288	@ 0x80000
 8005bba:	430b      	orrs	r3, r1
 8005bbc:	6053      	str	r3, [r2, #4]
}
 8005bbe:	bd10      	pop	{r4, pc}

08005bc0 <UART_WaitOnFlagUntilTimeout>:
{
 8005bc0:	e92d 43f8 	stmdb	sp!, {r3, r4, r5, r6, r7, r8, r9, lr}
 8005bc4:	f8dd 9020 	ldr.w	r9, [sp, #32]
 8005bc8:	4604      	mov	r4, r0
 8005bca:	460d      	mov	r5, r1
 8005bcc:	4617      	mov	r7, r2
 8005bce:	4698      	mov	r8, r3
  while ((__HAL_UART_GET_FLAG(huart, Flag) ? SET : RESET) == Status)
 8005bd0:	6822      	ldr	r2, [r4, #0]
 8005bd2:	69d3      	ldr	r3, [r2, #28]
 8005bd4:	ea35 0303 	bics.w	r3, r5, r3
 8005bd8:	bf0c      	ite	eq
 8005bda:	2301      	moveq	r3, #1
 8005bdc:	2300      	movne	r3, #0
 8005bde:	42bb      	cmp	r3, r7
 8005be0:	d001      	beq.n	8005be6 <UART_WaitOnFlagUntilTimeout+0x26>
  return HAL_OK;
 8005be2:	2000      	movs	r0, #0
 8005be4:	e022      	b.n	8005c2c <UART_WaitOnFlagUntilTimeout+0x6c>
    if (Timeout != HAL_MAX_DELAY)
 8005be6:	f1b9 3fff 	cmp.w	r9, #4294967295	@ 0xffffffff
 8005bea:	d0f2      	beq.n	8005bd2 <UART_WaitOnFlagUntilTimeout+0x12>
      if (((HAL_GetTick() - Tickstart) > Timeout) || (Timeout == 0U))
 8005bec:	f7fc feb4 	bl	8002958 <HAL_GetTick>
 8005bf0:	eba0 0008 	sub.w	r0, r0, r8
 8005bf4:	4548      	cmp	r0, r9
 8005bf6:	d829      	bhi.n	8005c4c <UART_WaitOnFlagUntilTimeout+0x8c>
 8005bf8:	f1b9 0f00 	cmp.w	r9, #0
 8005bfc:	d026      	beq.n	8005c4c <UART_WaitOnFlagUntilTimeout+0x8c>
      if ((READ_BIT(huart->Instance->CR1, USART_CR1_RE) != 0U) && (Flag != UART_FLAG_TXE) && (Flag != UART_FLAG_TC))
 8005bfe:	6821      	ldr	r1, [r4, #0]
 8005c00:	680b      	ldr	r3, [r1, #0]
 8005c02:	075a      	lsls	r2, r3, #29
 8005c04:	d5e4      	bpl.n	8005bd0 <UART_WaitOnFlagUntilTimeout+0x10>
 8005c06:	2d80      	cmp	r5, #128	@ 0x80
 8005c08:	d0e2      	beq.n	8005bd0 <UART_WaitOnFlagUntilTimeout+0x10>
 8005c0a:	2d40      	cmp	r5, #64	@ 0x40
 8005c0c:	d0e0      	beq.n	8005bd0 <UART_WaitOnFlagUntilTimeout+0x10>
        if (__HAL_UART_GET_FLAG(huart, UART_FLAG_ORE) == SET)
 8005c0e:	69ce      	ldr	r6, [r1, #28]
 8005c10:	f016 0608 	ands.w	r6, r6, #8
 8005c14:	d00c      	beq.n	8005c30 <UART_WaitOnFlagUntilTimeout+0x70>
          __HAL_UART_CLEAR_FLAG(huart, UART_CLEAR_OREF);
 8005c16:	2508      	movs	r5, #8
          UART_EndRxTransfer(huart);
 8005c18:	4620      	mov	r0, r4
          __HAL_UART_CLEAR_FLAG(huart, UART_CLEAR_OREF);
 8005c1a:	620d      	str	r5, [r1, #32]
          UART_EndRxTransfer(huart);
 8005c1c:	f7ff fc96 	bl	800554c <UART_EndRxTransfer>
          __HAL_UNLOCK(huart);
 8005c20:	2300      	movs	r3, #0
          huart->ErrorCode = HAL_UART_ERROR_ORE;
 8005c22:	f8c4 5090 	str.w	r5, [r4, #144]	@ 0x90
          __HAL_UNLOCK(huart);
 8005c26:	f884 3084 	strb.w	r3, [r4, #132]	@ 0x84
          return HAL_ERROR;
 8005c2a:	2001      	movs	r0, #1
}
 8005c2c:	e8bd 83f8 	ldmia.w	sp!, {r3, r4, r5, r6, r7, r8, r9, pc}
        if (__HAL_UART_GET_FLAG(huart, UART_FLAG_RTOF) == SET)
 8005c30:	69cb      	ldr	r3, [r1, #28]
 8005c32:	051b      	lsls	r3, r3, #20
 8005c34:	d5cc      	bpl.n	8005bd0 <UART_WaitOnFlagUntilTimeout+0x10>
          __HAL_UART_CLEAR_FLAG(huart, UART_CLEAR_RTOF);
 8005c36:	f44f 6300 	mov.w	r3, #2048	@ 0x800
 8005c3a:	620b      	str	r3, [r1, #32]
          UART_EndRxTransfer(huart);
 8005c3c:	4620      	mov	r0, r4
 8005c3e:	f7ff fc85 	bl	800554c <UART_EndRxTransfer>
          huart->ErrorCode = HAL_UART_ERROR_RTO;
 8005c42:	2320      	movs	r3, #32
 8005c44:	f8c4 3090 	str.w	r3, [r4, #144]	@ 0x90
          __HAL_UNLOCK(huart);
 8005c48:	f884 6084 	strb.w	r6, [r4, #132]	@ 0x84
        return HAL_TIMEOUT;
 8005c4c:	2003      	movs	r0, #3
 8005c4e:	e7ed      	b.n	8005c2c <UART_WaitOnFlagUntilTimeout+0x6c>

08005c50 <UART_CheckIdleState>:
{
 8005c50:	b573      	push	{r0, r1, r4, r5, r6, lr}
 8005c52:	4604      	mov	r4, r0
  huart->ErrorCode = HAL_UART_ERROR_NONE;
 8005c54:	2600      	movs	r6, #0
 8005c56:	f8c0 6090 	str.w	r6, [r0, #144]	@ 0x90
  tickstart = HAL_GetTick();
 8005c5a:	f7fc fe7d 	bl	8002958 <HAL_GetTick>
  if ((huart->Instance->CR1 & USART_CR1_TE) == USART_CR1_TE)
 8005c5e:	6823      	ldr	r3, [r4, #0]
 8005c60:	681b      	ldr	r3, [r3, #0]
 8005c62:	071a      	lsls	r2, r3, #28
  tickstart = HAL_GetTick();
 8005c64:	4605      	mov	r5, r0
  if ((huart->Instance->CR1 & USART_CR1_TE) == USART_CR1_TE)
 8005c66:	d51c      	bpl.n	8005ca2 <UART_CheckIdleState+0x52>
    if (UART_WaitOnFlagUntilTimeout(huart, USART_ISR_TEACK, RESET, tickstart, HAL_UART_TIMEOUT_VALUE) != HAL_OK)
 8005c68:	f06f 437e 	mvn.w	r3, #4261412864	@ 0xfe000000
 8005c6c:	9300      	str	r3, [sp, #0]
 8005c6e:	4632      	mov	r2, r6
 8005c70:	4603      	mov	r3, r0
 8005c72:	f44f 1100 	mov.w	r1, #2097152	@ 0x200000
 8005c76:	4620      	mov	r0, r4
 8005c78:	f7ff ffa2 	bl	8005bc0 <UART_WaitOnFlagUntilTimeout>
 8005c7c:	b188      	cbz	r0, 8005ca2 <UART_CheckIdleState+0x52>
      ATOMIC_CLEAR_BIT(huart->Instance->CR1, (USART_CR1_TXEIE_TXFNFIE));
 8005c7e:	6822      	ldr	r2, [r4, #0]
   __ASM volatile ("ldrex %0, %1" : "=r" (result) : "Q" (*addr) );
 8005c80:	e852 3f00 	ldrex	r3, [r2]
 8005c84:	f023 0380 	bic.w	r3, r3, #128	@ 0x80
   __ASM volatile ("strex %0, %2, %1" : "=&r" (result), "=Q" (*addr) : "r" (value) );
 8005c88:	e842 3100 	strex	r1, r3, [r2]
 8005c8c:	2900      	cmp	r1, #0
 8005c8e:	d1f6      	bne.n	8005c7e <UART_CheckIdleState+0x2e>
      huart->gState = HAL_UART_STATE_READY;
 8005c90:	2320      	movs	r3, #32
 8005c92:	f8c4 3088 	str.w	r3, [r4, #136]	@ 0x88
      return HAL_TIMEOUT;
 8005c96:	2003      	movs	r0, #3
      __HAL_UNLOCK(huart);
 8005c98:	2300      	movs	r3, #0
 8005c9a:	f884 3084 	strb.w	r3, [r4, #132]	@ 0x84
}
 8005c9e:	b002      	add	sp, #8
 8005ca0:	bd70      	pop	{r4, r5, r6, pc}
  if ((huart->Instance->CR1 & USART_CR1_RE) == USART_CR1_RE)
 8005ca2:	6823      	ldr	r3, [r4, #0]
 8005ca4:	681b      	ldr	r3, [r3, #0]
 8005ca6:	075b      	lsls	r3, r3, #29
 8005ca8:	d524      	bpl.n	8005cf4 <UART_CheckIdleState+0xa4>
    if (UART_WaitOnFlagUntilTimeout(huart, USART_ISR_REACK, RESET, tickstart, HAL_UART_TIMEOUT_VALUE) != HAL_OK)
 8005caa:	f06f 437e 	mvn.w	r3, #4261412864	@ 0xfe000000
 8005cae:	9300      	str	r3, [sp, #0]
 8005cb0:	2200      	movs	r2, #0
 8005cb2:	462b      	mov	r3, r5
 8005cb4:	f44f 0180 	mov.w	r1, #4194304	@ 0x400000
 8005cb8:	4620      	mov	r0, r4
 8005cba:	f7ff ff81 	bl	8005bc0 <UART_WaitOnFlagUntilTimeout>
 8005cbe:	b1c8      	cbz	r0, 8005cf4 <UART_CheckIdleState+0xa4>
      ATOMIC_CLEAR_BIT(huart->Instance->CR1, (USART_CR1_RXNEIE_RXFNEIE | USART_CR1_PEIE));
 8005cc0:	6822      	ldr	r2, [r4, #0]
   __ASM volatile ("ldrex %0, %1" : "=r" (result) : "Q" (*addr) );
 8005cc2:	e852 3f00 	ldrex	r3, [r2]
 8005cc6:	f423 7390 	bic.w	r3, r3, #288	@ 0x120
   __ASM volatile ("strex %0, %2, %1" : "=&r" (result), "=Q" (*addr) : "r" (value) );
 8005cca:	e842 3100 	strex	r1, r3, [r2]
   return(result);
 8005cce:	6822      	ldr	r2, [r4, #0]
 8005cd0:	2900      	cmp	r1, #0
 8005cd2:	d1f5      	bne.n	8005cc0 <UART_CheckIdleState+0x70>
   __ASM volatile ("ldrex %0, %1" : "=r" (result) : "Q" (*addr) );
 8005cd4:	f102 0308 	add.w	r3, r2, #8
 8005cd8:	e853 3f00 	ldrex	r3, [r3]
      ATOMIC_CLEAR_BIT(huart->Instance->CR3, USART_CR3_EIE);
 8005cdc:	f023 0301 	bic.w	r3, r3, #1
   __ASM volatile ("strex %0, %2, %1" : "=&r" (result), "=Q" (*addr) : "r" (value) );
 8005ce0:	f102 0008 	add.w	r0, r2, #8
 8005ce4:	e840 3100 	strex	r1, r3, [r0]
 8005ce8:	2900      	cmp	r1, #0
 8005cea:	d1f3      	bne.n	8005cd4 <UART_CheckIdleState+0x84>
      huart->RxState = HAL_UART_STATE_READY;
 8005cec:	2320      	movs	r3, #32
 8005cee:	f8c4 308c 	str.w	r3, [r4, #140]	@ 0x8c
      return HAL_TIMEOUT;
 8005cf2:	e7d0      	b.n	8005c96 <UART_CheckIdleState+0x46>
  huart->gState = HAL_UART_STATE_READY;
 8005cf4:	2320      	movs	r3, #32
  huart->ReceptionType = HAL_UART_RECEPTION_STANDARD;
 8005cf6:	2000      	movs	r0, #0
  huart->gState = HAL_UART_STATE_READY;
 8005cf8:	f8c4 3088 	str.w	r3, [r4, #136]	@ 0x88
  huart->RxState = HAL_UART_STATE_READY;
 8005cfc:	f8c4 308c 	str.w	r3, [r4, #140]	@ 0x8c
  huart->ReceptionType = HAL_UART_RECEPTION_STANDARD;
 8005d00:	66e0      	str	r0, [r4, #108]	@ 0x6c
  huart->RxEventType = HAL_UART_RXEVENT_TC;
 8005d02:	6720      	str	r0, [r4, #112]	@ 0x70
  return HAL_OK;
 8005d04:	e7c8      	b.n	8005c98 <UART_CheckIdleState+0x48>

08005d06 <HAL_UART_Init>:
{
 8005d06:	b510      	push	{r4, lr}
  if (huart == NULL)
 8005d08:	4604      	mov	r4, r0
 8005d0a:	b350      	cbz	r0, 8005d62 <HAL_UART_Init+0x5c>
  if (huart->gState == HAL_UART_STATE_RESET)
 8005d0c:	f8d0 3088 	ldr.w	r3, [r0, #136]	@ 0x88
 8005d10:	b91b      	cbnz	r3, 8005d1a <HAL_UART_Init+0x14>
    huart->Lock = HAL_UNLOCKED;
 8005d12:	f880 3084 	strb.w	r3, [r0, #132]	@ 0x84
    HAL_UART_MspInit(huart);
 8005d16:	f7fc fc01 	bl	800251c <HAL_UART_MspInit>
  __HAL_UART_DISABLE(huart);
 8005d1a:	6822      	ldr	r2, [r4, #0]
  huart->gState = HAL_UART_STATE_BUSY;
 8005d1c:	2324      	movs	r3, #36	@ 0x24
 8005d1e:	f8c4 3088 	str.w	r3, [r4, #136]	@ 0x88
  __HAL_UART_DISABLE(huart);
 8005d22:	6813      	ldr	r3, [r2, #0]
 8005d24:	f023 0301 	bic.w	r3, r3, #1
 8005d28:	6013      	str	r3, [r2, #0]
  if (huart->AdvancedInit.AdvFeatureInit != UART_ADVFEATURE_NO_INIT)
 8005d2a:	6aa3      	ldr	r3, [r4, #40]	@ 0x28
 8005d2c:	b113      	cbz	r3, 8005d34 <HAL_UART_Init+0x2e>
    UART_AdvFeatureConfig(huart);
 8005d2e:	4620      	mov	r0, r4
 8005d30:	f7ff fef2 	bl	8005b18 <UART_AdvFeatureConfig>
  if (UART_SetConfig(huart) == HAL_ERROR)
 8005d34:	4620      	mov	r0, r4
 8005d36:	f7ff fdc3 	bl	80058c0 <UART_SetConfig>
 8005d3a:	2801      	cmp	r0, #1
 8005d3c:	d011      	beq.n	8005d62 <HAL_UART_Init+0x5c>
  CLEAR_BIT(huart->Instance->CR2, (USART_CR2_LINEN | USART_CR2_CLKEN));
 8005d3e:	6823      	ldr	r3, [r4, #0]
 8005d40:	685a      	ldr	r2, [r3, #4]
 8005d42:	f422 4290 	bic.w	r2, r2, #18432	@ 0x4800
 8005d46:	605a      	str	r2, [r3, #4]
  CLEAR_BIT(huart->Instance->CR3, (USART_CR3_SCEN | USART_CR3_HDSEL | USART_CR3_IREN));
 8005d48:	689a      	ldr	r2, [r3, #8]
 8005d4a:	f022 022a 	bic.w	r2, r2, #42	@ 0x2a
 8005d4e:	609a      	str	r2, [r3, #8]
  __HAL_UART_ENABLE(huart);
 8005d50:	681a      	ldr	r2, [r3, #0]
 8005d52:	f042 0201 	orr.w	r2, r2, #1
  return (UART_CheckIdleState(huart));
 8005d56:	4620      	mov	r0, r4
  __HAL_UART_ENABLE(huart);
 8005d58:	601a      	str	r2, [r3, #0]
}
 8005d5a:	e8bd 4010 	ldmia.w	sp!, {r4, lr}
  return (UART_CheckIdleState(huart));
 8005d5e:	f7ff bf77 	b.w	8005c50 <UART_CheckIdleState>
}
 8005d62:	2001      	movs	r0, #1
 8005d64:	bd10      	pop	{r4, pc}
	...

08005d68 <UARTEx_SetNbDataToProcess>:
  uint8_t rx_fifo_threshold;
  uint8_t tx_fifo_threshold;
  static const uint8_t numerator[] = {1U, 1U, 1U, 3U, 7U, 1U, 0U, 0U};
  static const uint8_t denominator[] = {8U, 4U, 2U, 4U, 8U, 1U, 1U, 1U};

  if (huart->FifoMode == UART_FIFOMODE_DISABLE)
 8005d68:	6e43      	ldr	r3, [r0, #100]	@ 0x64
{
 8005d6a:	b530      	push	{r4, r5, lr}
  if (huart->FifoMode == UART_FIFOMODE_DISABLE)
 8005d6c:	b92b      	cbnz	r3, 8005d7a <UARTEx_SetNbDataToProcess+0x12>
  {
    huart->NbTxDataToProcess = 1U;
 8005d6e:	2301      	movs	r3, #1
 8005d70:	f8a0 306a 	strh.w	r3, [r0, #106]	@ 0x6a
    huart->NbRxDataToProcess = 1U;
 8005d74:	f8a0 3068 	strh.w	r3, [r0, #104]	@ 0x68
    huart->NbTxDataToProcess = ((uint16_t)tx_fifo_depth * numerator[tx_fifo_threshold]) /
                               (uint16_t)denominator[tx_fifo_threshold];
    huart->NbRxDataToProcess = ((uint16_t)rx_fifo_depth * numerator[rx_fifo_threshold]) /
                               (uint16_t)denominator[rx_fifo_threshold];
  }
}
 8005d78:	bd30      	pop	{r4, r5, pc}
    rx_fifo_threshold = (uint8_t)(READ_BIT(huart->Instance->CR3, USART_CR3_RXFTCFG) >> USART_CR3_RXFTCFG_Pos);
 8005d7a:	6803      	ldr	r3, [r0, #0]
    huart->NbTxDataToProcess = ((uint16_t)tx_fifo_depth * numerator[tx_fifo_threshold]) /
 8005d7c:	4d09      	ldr	r5, [pc, #36]	@ (8005da4 <UARTEx_SetNbDataToProcess+0x3c>)
    rx_fifo_threshold = (uint8_t)(READ_BIT(huart->Instance->CR3, USART_CR3_RXFTCFG) >> USART_CR3_RXFTCFG_Pos);
 8005d7e:	689a      	ldr	r2, [r3, #8]
    tx_fifo_threshold = (uint8_t)(READ_BIT(huart->Instance->CR3, USART_CR3_TXFTCFG) >> USART_CR3_TXFTCFG_Pos);
 8005d80:	6899      	ldr	r1, [r3, #8]
                               (uint16_t)denominator[tx_fifo_threshold];
 8005d82:	4c09      	ldr	r4, [pc, #36]	@ (8005da8 <UARTEx_SetNbDataToProcess+0x40>)
    tx_fifo_threshold = (uint8_t)(READ_BIT(huart->Instance->CR3, USART_CR3_TXFTCFG) >> USART_CR3_TXFTCFG_Pos);
 8005d84:	0f49      	lsrs	r1, r1, #29
    huart->NbRxDataToProcess = ((uint16_t)rx_fifo_depth * numerator[rx_fifo_threshold]) /
 8005d86:	f3c2 6242 	ubfx	r2, r2, #25, #3
    huart->NbTxDataToProcess = ((uint16_t)tx_fifo_depth * numerator[tx_fifo_threshold]) /
 8005d8a:	5c6b      	ldrb	r3, [r5, r1]
                               (uint16_t)denominator[tx_fifo_threshold];
 8005d8c:	5c61      	ldrb	r1, [r4, r1]
    huart->NbTxDataToProcess = ((uint16_t)tx_fifo_depth * numerator[tx_fifo_threshold]) /
 8005d8e:	00db      	lsls	r3, r3, #3
 8005d90:	fbb3 f3f1 	udiv	r3, r3, r1
 8005d94:	f8a0 306a 	strh.w	r3, [r0, #106]	@ 0x6a
    huart->NbRxDataToProcess = ((uint16_t)rx_fifo_depth * numerator[rx_fifo_threshold]) /
 8005d98:	5cab      	ldrb	r3, [r5, r2]
                               (uint16_t)denominator[rx_fifo_threshold];
 8005d9a:	5ca2      	ldrb	r2, [r4, r2]
    huart->NbRxDataToProcess = ((uint16_t)rx_fifo_depth * numerator[rx_fifo_threshold]) /
 8005d9c:	00db      	lsls	r3, r3, #3
 8005d9e:	fbb3 f3f2 	udiv	r3, r3, r2
}
 8005da2:	e7e7      	b.n	8005d74 <UARTEx_SetNbDataToProcess+0xc>
 8005da4:	0800a2d0 	.word	0x0800a2d0
 8005da8:	0800a2c8 	.word	0x0800a2c8

08005dac <HAL_UARTEx_WakeupCallback>:
}
 8005dac:	4770      	bx	lr

08005dae <HAL_UARTEx_RxFifoFullCallback>:
__weak void HAL_UARTEx_RxFifoFullCallback(UART_HandleTypeDef *huart)
 8005dae:	4770      	bx	lr

08005db0 <HAL_UARTEx_TxFifoEmptyCallback>:
__weak void HAL_UARTEx_TxFifoEmptyCallback(UART_HandleTypeDef *huart)
 8005db0:	4770      	bx	lr

08005db2 <HAL_UARTEx_DisableFifoMode>:
  __HAL_LOCK(huart);
 8005db2:	f890 3084 	ldrb.w	r3, [r0, #132]	@ 0x84
 8005db6:	2b01      	cmp	r3, #1
 8005db8:	d014      	beq.n	8005de4 <HAL_UARTEx_DisableFifoMode+0x32>
  tmpcr1 = READ_REG(huart->Instance->CR1);
 8005dba:	6802      	ldr	r2, [r0, #0]
  huart->gState = HAL_UART_STATE_BUSY;
 8005dbc:	2324      	movs	r3, #36	@ 0x24
 8005dbe:	f8c0 3088 	str.w	r3, [r0, #136]	@ 0x88
  tmpcr1 = READ_REG(huart->Instance->CR1);
 8005dc2:	6811      	ldr	r1, [r2, #0]
  __HAL_UART_DISABLE(huart);
 8005dc4:	6813      	ldr	r3, [r2, #0]
 8005dc6:	f023 0301 	bic.w	r3, r3, #1
 8005dca:	6013      	str	r3, [r2, #0]
  CLEAR_BIT(tmpcr1, USART_CR1_FIFOEN);
 8005dcc:	f021 5100 	bic.w	r1, r1, #536870912	@ 0x20000000
  huart->FifoMode = UART_FIFOMODE_DISABLE;
 8005dd0:	2300      	movs	r3, #0
 8005dd2:	6643      	str	r3, [r0, #100]	@ 0x64
  WRITE_REG(huart->Instance->CR1, tmpcr1);
 8005dd4:	6011      	str	r1, [r2, #0]
  huart->gState = HAL_UART_STATE_READY;
 8005dd6:	2220      	movs	r2, #32
 8005dd8:	f8c0 2088 	str.w	r2, [r0, #136]	@ 0x88
  __HAL_UNLOCK(huart);
 8005ddc:	f880 3084 	strb.w	r3, [r0, #132]	@ 0x84
  return HAL_OK;
 8005de0:	4618      	mov	r0, r3
 8005de2:	4770      	bx	lr
  __HAL_LOCK(huart);
 8005de4:	2002      	movs	r0, #2
}
 8005de6:	4770      	bx	lr

08005de8 <HAL_UARTEx_SetTxFifoThreshold>:
{
 8005de8:	b570      	push	{r4, r5, r6, lr}
  __HAL_LOCK(huart);
 8005dea:	f890 3084 	ldrb.w	r3, [r0, #132]	@ 0x84
 8005dee:	2b01      	cmp	r3, #1
{
 8005df0:	4604      	mov	r4, r0
  __HAL_LOCK(huart);
 8005df2:	d017      	beq.n	8005e24 <HAL_UARTEx_SetTxFifoThreshold+0x3c>
  tmpcr1 = READ_REG(huart->Instance->CR1);
 8005df4:	6805      	ldr	r5, [r0, #0]
  huart->gState = HAL_UART_STATE_BUSY;
 8005df6:	2324      	movs	r3, #36	@ 0x24
 8005df8:	f8c0 3088 	str.w	r3, [r0, #136]	@ 0x88
  tmpcr1 = READ_REG(huart->Instance->CR1);
 8005dfc:	682e      	ldr	r6, [r5, #0]
  __HAL_UART_DISABLE(huart);
 8005dfe:	682b      	ldr	r3, [r5, #0]
 8005e00:	f023 0301 	bic.w	r3, r3, #1
 8005e04:	602b      	str	r3, [r5, #0]
  MODIFY_REG(huart->Instance->CR3, USART_CR3_TXFTCFG, Threshold);
 8005e06:	68ab      	ldr	r3, [r5, #8]
 8005e08:	f023 4360 	bic.w	r3, r3, #3758096384	@ 0xe0000000
 8005e0c:	4319      	orrs	r1, r3
 8005e0e:	60a9      	str	r1, [r5, #8]
  UARTEx_SetNbDataToProcess(huart);
 8005e10:	f7ff ffaa 	bl	8005d68 <UARTEx_SetNbDataToProcess>
  huart->gState = HAL_UART_STATE_READY;
 8005e14:	2320      	movs	r3, #32
  WRITE_REG(huart->Instance->CR1, tmpcr1);
 8005e16:	602e      	str	r6, [r5, #0]
  huart->gState = HAL_UART_STATE_READY;
 8005e18:	f8c0 3088 	str.w	r3, [r0, #136]	@ 0x88
  __HAL_UNLOCK(huart);
 8005e1c:	2000      	movs	r0, #0
 8005e1e:	f884 0084 	strb.w	r0, [r4, #132]	@ 0x84
}
 8005e22:	bd70      	pop	{r4, r5, r6, pc}
  __HAL_LOCK(huart);
 8005e24:	2002      	movs	r0, #2
 8005e26:	e7fc      	b.n	8005e22 <HAL_UARTEx_SetTxFifoThreshold+0x3a>

08005e28 <HAL_UARTEx_SetRxFifoThreshold>:
{
 8005e28:	b570      	push	{r4, r5, r6, lr}
  __HAL_LOCK(huart);
 8005e2a:	f890 3084 	ldrb.w	r3, [r0, #132]	@ 0x84
 8005e2e:	2b01      	cmp	r3, #1
{
 8005e30:	4604      	mov	r4, r0
  __HAL_LOCK(huart);
 8005e32:	d017      	beq.n	8005e64 <HAL_UARTEx_SetRxFifoThreshold+0x3c>
  tmpcr1 = READ_REG(huart->Instance->CR1);
 8005e34:	6805      	ldr	r5, [r0, #0]
  huart->gState = HAL_UART_STATE_BUSY;
 8005e36:	2324      	movs	r3, #36	@ 0x24
 8005e38:	f8c0 3088 	str.w	r3, [r0, #136]	@ 0x88
  tmpcr1 = READ_REG(huart->Instance->CR1);
 8005e3c:	682e      	ldr	r6, [r5, #0]
  __HAL_UART_DISABLE(huart);
 8005e3e:	682b      	ldr	r3, [r5, #0]
 8005e40:	f023 0301 	bic.w	r3, r3, #1
 8005e44:	602b      	str	r3, [r5, #0]
  MODIFY_REG(huart->Instance->CR3, USART_CR3_RXFTCFG, Threshold);
 8005e46:	68ab      	ldr	r3, [r5, #8]
 8005e48:	f023 6360 	bic.w	r3, r3, #234881024	@ 0xe000000
 8005e4c:	4319      	orrs	r1, r3
 8005e4e:	60a9      	str	r1, [r5, #8]
  UARTEx_SetNbDataToProcess(huart);
 8005e50:	f7ff ff8a 	bl	8005d68 <UARTEx_SetNbDataToProcess>
  huart->gState = HAL_UART_STATE_READY;
 8005e54:	2320      	movs	r3, #32
  WRITE_REG(huart->Instance->CR1, tmpcr1);
 8005e56:	602e      	str	r6, [r5, #0]
  huart->gState = HAL_UART_STATE_READY;
 8005e58:	f8c0 3088 	str.w	r3, [r0, #136]	@ 0x88
  __HAL_UNLOCK(huart);
 8005e5c:	2000      	movs	r0, #0
 8005e5e:	f884 0084 	strb.w	r0, [r4, #132]	@ 0x84
}
 8005e62:	bd70      	pop	{r4, r5, r6, pc}
  __HAL_LOCK(huart);
 8005e64:	2002      	movs	r0, #2
 8005e66:	e7fc      	b.n	8005e62 <HAL_UARTEx_SetRxFifoThreshold+0x3a>

08005e68 <USB_EnableGlobalInt>:
  *         Enables the controller's Global Int in the AHB Config reg
  * @param  USBx Selected device
  * @retval HAL status
  */
HAL_StatusTypeDef USB_EnableGlobalInt(USB_TypeDef *USBx)
{
 8005e68:	4603      	mov	r3, r0
                   USB_CNTR_SUSPM | USB_CNTR_ERRM |
                   USB_CNTR_SOFM | USB_CNTR_ESOFM |
                   USB_CNTR_RESETM | USB_CNTR_L1REQM;

  /* Set interrupt mask */
  USBx->CNTR = (uint16_t)winterruptmask;
 8005e6a:	f64b 7280 	movw	r2, #49024	@ 0xbf80
  USBx->ISTR = 0U;
 8005e6e:	2000      	movs	r0, #0
 8005e70:	f8a3 0044 	strh.w	r0, [r3, #68]	@ 0x44
  USBx->CNTR = (uint16_t)winterruptmask;
 8005e74:	f8a3 2040 	strh.w	r2, [r3, #64]	@ 0x40

  return HAL_OK;
}
 8005e78:	4770      	bx	lr

08005e7a <USB_DisableGlobalInt>:
                   USB_CNTR_SUSPM | USB_CNTR_ERRM |
                   USB_CNTR_SOFM | USB_CNTR_ESOFM |
                   USB_CNTR_RESETM | USB_CNTR_L1REQM;

  /* Clear interrupt mask */
  USBx->CNTR &= (uint16_t)(~winterruptmask);
 8005e7a:	f8b0 3040 	ldrh.w	r3, [r0, #64]	@ 0x40
 8005e7e:	f423 537e 	bic.w	r3, r3, #16256	@ 0x3f80
 8005e82:	045b      	lsls	r3, r3, #17
 8005e84:	0c5b      	lsrs	r3, r3, #17
 8005e86:	f8a0 3040 	strh.w	r3, [r0, #64]	@ 0x40

  return HAL_OK;
}
 8005e8a:	2000      	movs	r0, #0
 8005e8c:	4770      	bx	lr

08005e8e <USB_DevInit>:
  * @param  cfg  pointer to a USB_CfgTypeDef structure that contains
  *         the configuration information for the specified USBx peripheral.
  * @retval HAL status
  */
HAL_StatusTypeDef USB_DevInit(USB_TypeDef *USBx, USB_CfgTypeDef cfg)
{
 8005e8e:	b082      	sub	sp, #8
 8005e90:	4603      	mov	r3, r0
 8005e92:	a802      	add	r0, sp, #8
 8005e94:	e900 0006 	stmdb	r0, {r1, r2}
  /* Init Device */
  /* CNTR_FRES = 1 */
  USBx->CNTR = (uint16_t)USB_CNTR_FRES;

  /* CNTR_FRES = 0 */
  USBx->CNTR = 0U;
 8005e98:	2000      	movs	r0, #0
  USBx->CNTR = (uint16_t)USB_CNTR_FRES;
 8005e9a:	2201      	movs	r2, #1
 8005e9c:	f8a3 2040 	strh.w	r2, [r3, #64]	@ 0x40
  USBx->CNTR = 0U;
 8005ea0:	f8a3 0040 	strh.w	r0, [r3, #64]	@ 0x40

  /* Clear pending interrupts */
  USBx->ISTR = 0U;
 8005ea4:	f8a3 0044 	strh.w	r0, [r3, #68]	@ 0x44

  /*Set Btable Address*/
  USBx->BTABLE = BTABLE_ADDRESS;
 8005ea8:	f8a3 0050 	strh.w	r0, [r3, #80]	@ 0x50

  return HAL_OK;
}
 8005eac:	b002      	add	sp, #8
 8005eae:	4770      	bx	lr

08005eb0 <USB_ActivateEndpoint>:
  * @param  USBx Selected device
  * @param  ep pointer to endpoint structure
  * @retval HAL status
  */
HAL_StatusTypeDef USB_ActivateEndpoint(USB_TypeDef *USBx, USB_EPTypeDef *ep)
{
 8005eb0:	b5f0      	push	{r4, r5, r6, r7, lr}
  HAL_StatusTypeDef ret = HAL_OK;
  uint16_t wEpRegVal;

  wEpRegVal = PCD_GET_ENDPOINT(USBx, ep->num) & USB_EP_T_MASK;
 8005eb2:	780f      	ldrb	r7, [r1, #0]

  /* initialize Endpoint */
  switch (ep->type)
 8005eb4:	78ce      	ldrb	r6, [r1, #3]
  wEpRegVal = PCD_GET_ENDPOINT(USBx, ep->num) & USB_EP_T_MASK;
 8005eb6:	f830 4027 	ldrh.w	r4, [r0, r7, lsl #2]
 8005eba:	f424 44ec 	bic.w	r4, r4, #30208	@ 0x7600
 8005ebe:	f024 0470 	bic.w	r4, r4, #112	@ 0x70
 8005ec2:	0424      	lsls	r4, r4, #16
{
 8005ec4:	4603      	mov	r3, r0
  wEpRegVal = PCD_GET_ENDPOINT(USBx, ep->num) & USB_EP_T_MASK;
 8005ec6:	463a      	mov	r2, r7
 8005ec8:	0c24      	lsrs	r4, r4, #16
  switch (ep->type)
 8005eca:	2e03      	cmp	r6, #3
 8005ecc:	d803      	bhi.n	8005ed6 <USB_ActivateEndpoint+0x26>
 8005ece:	e8df f006 	tbb	[pc, r6]
 8005ed2:	5149      	.short	0x5149
 8005ed4:	4d4f      	.short	0x4d4f
    case EP_TYPE_ISOC:
      wEpRegVal |= USB_EP_ISOCHRONOUS;
      break;

    default:
      ret = HAL_ERROR;
 8005ed6:	2001      	movs	r0, #1
      break;
  }

  PCD_SET_ENDPOINT(USBx, ep->num, (wEpRegVal | USB_EP_CTR_RX | USB_EP_CTR_TX));
 8005ed8:	f248 0c80 	movw	ip, #32896	@ 0x8080
 8005edc:	ea44 040c 	orr.w	r4, r4, ip
 8005ee0:	f823 4022 	strh.w	r4, [r3, r2, lsl #2]

  PCD_SET_EP_ADDRESS(USBx, ep->num, ep->num);
 8005ee4:	f833 4022 	ldrh.w	r4, [r3, r2, lsl #2]
 8005ee8:	f8df e33c 	ldr.w	lr, [pc, #828]	@ 8006228 <USB_ActivateEndpoint+0x378>
 8005eec:	b2a4      	uxth	r4, r4
 8005eee:	ea04 040e 	and.w	r4, r4, lr
 8005ef2:	433c      	orrs	r4, r7
 8005ef4:	ea4c 0404 	orr.w	r4, ip, r4
 8005ef8:	f823 4022 	strh.w	r4, [r3, r2, lsl #2]

  if (ep->doublebuffer == 0U)
 8005efc:	7b0c      	ldrb	r4, [r1, #12]
 8005efe:	eb03 05c7 	add.w	r5, r3, r7, lsl #3
 8005f02:	2c00      	cmp	r4, #0
 8005f04:	f040 8089 	bne.w	800601a <USB_ActivateEndpoint+0x16a>
  {
    if (ep->is_in != 0U)
    {
      /*Set the endpoint Transmit buffer address */
      PCD_SET_EP_TX_ADDRESS(USBx, ep->num, ep->pmaadress);
 8005f08:	88cc      	ldrh	r4, [r1, #6]
    if (ep->is_in != 0U)
 8005f0a:	f891 c001 	ldrb.w	ip, [r1, #1]
      PCD_SET_EP_TX_ADDRESS(USBx, ep->num, ep->pmaadress);
 8005f0e:	0864      	lsrs	r4, r4, #1
 8005f10:	0064      	lsls	r4, r4, #1
    if (ep->is_in != 0U)
 8005f12:	f1bc 0f00 	cmp.w	ip, #0
 8005f16:	d030      	beq.n	8005f7a <USB_ActivateEndpoint+0xca>
      PCD_SET_EP_TX_ADDRESS(USBx, ep->num, ep->pmaadress);
 8005f18:	f8b3 1050 	ldrh.w	r1, [r3, #80]	@ 0x50
 8005f1c:	fa15 f181 	uxtah	r1, r5, r1
 8005f20:	f8a1 4400 	strh.w	r4, [r1, #1024]	@ 0x400
      PCD_CLEAR_TX_DTOG(USBx, ep->num);
 8005f24:	f833 1022 	ldrh.w	r1, [r3, r2, lsl #2]
 8005f28:	064c      	lsls	r4, r1, #25
 8005f2a:	d50a      	bpl.n	8005f42 <USB_ActivateEndpoint+0x92>
 8005f2c:	f833 1022 	ldrh.w	r1, [r3, r2, lsl #2]
 8005f30:	b289      	uxth	r1, r1
 8005f32:	ea01 010e 	and.w	r1, r1, lr
 8005f36:	f441 4100 	orr.w	r1, r1, #32768	@ 0x8000
 8005f3a:	f041 01c0 	orr.w	r1, r1, #192	@ 0xc0
 8005f3e:	f823 1022 	strh.w	r1, [r3, r2, lsl #2]

      if (ep->type != EP_TYPE_ISOC)
      {
        /* Configure NAK status for the Endpoint */
        PCD_SET_EP_TX_STATUS(USBx, ep->num, USB_EP_TX_NAK);
 8005f42:	f833 1022 	ldrh.w	r1, [r3, r2, lsl #2]
 8005f46:	4cb6      	ldr	r4, [pc, #728]	@ (8006220 <USB_ActivateEndpoint+0x370>)
 8005f48:	b289      	uxth	r1, r1
      if (ep->type != EP_TYPE_ISOC)
 8005f4a:	2e01      	cmp	r6, #1
        PCD_SET_EP_TX_STATUS(USBx, ep->num, USB_EP_TX_NAK);
 8005f4c:	ea01 0104 	and.w	r1, r1, r4
      if (ep->type != EP_TYPE_ISOC)
 8005f50:	d001      	beq.n	8005f56 <USB_ActivateEndpoint+0xa6>
        PCD_SET_EP_TX_STATUS(USBx, ep->num, USB_EP_TX_NAK);
 8005f52:	f081 0120 	eor.w	r1, r1, #32
      {
        /* Configure TX Endpoint to disabled state */
        PCD_SET_EP_TX_STATUS(USBx, ep->num, USB_EP_TX_DIS);
      }

      PCD_SET_EP_RX_STATUS(USBx, ep->num, USB_EP_RX_DIS);
 8005f56:	f441 4100 	orr.w	r1, r1, #32768	@ 0x8000
 8005f5a:	f041 0180 	orr.w	r1, r1, #128	@ 0x80
 8005f5e:	f823 1022 	strh.w	r1, [r3, r2, lsl #2]
 8005f62:	e114      	b.n	800618e <USB_ActivateEndpoint+0x2de>
      wEpRegVal |= USB_EP_CONTROL;
 8005f64:	f444 7400 	orr.w	r4, r4, #512	@ 0x200
  HAL_StatusTypeDef ret = HAL_OK;
 8005f68:	4630      	mov	r0, r6
      break;
 8005f6a:	e7b5      	b.n	8005ed8 <USB_ActivateEndpoint+0x28>
      wEpRegVal |= USB_EP_INTERRUPT;
 8005f6c:	f444 64c0 	orr.w	r4, r4, #1536	@ 0x600
  switch (ep->type)
 8005f70:	2000      	movs	r0, #0
 8005f72:	e7b1      	b.n	8005ed8 <USB_ActivateEndpoint+0x28>
      wEpRegVal |= USB_EP_ISOCHRONOUS;
 8005f74:	f444 6480 	orr.w	r4, r4, #1024	@ 0x400
      break;
 8005f78:	e7fa      	b.n	8005f70 <USB_ActivateEndpoint+0xc0>
      PCD_SET_EP_RX_ADDRESS(USBx, ep->num, ep->pmaadress);
 8005f7a:	f8b3 6050 	ldrh.w	r6, [r3, #80]	@ 0x50
      PCD_SET_EP_RX_CNT(USBx, ep->num, ep->maxpacket);
 8005f7e:	6909      	ldr	r1, [r1, #16]
      PCD_SET_EP_RX_ADDRESS(USBx, ep->num, ep->pmaadress);
 8005f80:	fa15 f686 	uxtah	r6, r5, r6
 8005f84:	f8a6 4404 	strh.w	r4, [r6, #1028]	@ 0x404
      PCD_SET_EP_RX_CNT(USBx, ep->num, ep->maxpacket);
 8005f88:	f8b3 4050 	ldrh.w	r4, [r3, #80]	@ 0x50
 8005f8c:	fa15 f484 	uxtah	r4, r5, r4
 8005f90:	f8b4 5406 	ldrh.w	r5, [r4, #1030]	@ 0x406
 8005f94:	f3c5 0509 	ubfx	r5, r5, #0, #10
 8005f98:	f8a4 5406 	strh.w	r5, [r4, #1030]	@ 0x406
 8005f9c:	b931      	cbnz	r1, 8005fac <USB_ActivateEndpoint+0xfc>
 8005f9e:	f8b4 1406 	ldrh.w	r1, [r4, #1030]	@ 0x406
 8005fa2:	ea6f 4141 	mvn.w	r1, r1, lsl #17
 8005fa6:	ea6f 4151 	mvn.w	r1, r1, lsr #17
 8005faa:	e00a      	b.n	8005fc2 <USB_ActivateEndpoint+0x112>
 8005fac:	293e      	cmp	r1, #62	@ 0x3e
 8005fae:	d826      	bhi.n	8005ffe <USB_ActivateEndpoint+0x14e>
 8005fb0:	084d      	lsrs	r5, r1, #1
 8005fb2:	07c9      	lsls	r1, r1, #31
 8005fb4:	f8b4 1406 	ldrh.w	r1, [r4, #1030]	@ 0x406
 8005fb8:	bf48      	it	mi
 8005fba:	3501      	addmi	r5, #1
 8005fbc:	b289      	uxth	r1, r1
 8005fbe:	ea41 2185 	orr.w	r1, r1, r5, lsl #10
 8005fc2:	b289      	uxth	r1, r1
 8005fc4:	f8a4 1406 	strh.w	r1, [r4, #1030]	@ 0x406
      PCD_CLEAR_RX_DTOG(USBx, ep->num);
 8005fc8:	f833 1022 	ldrh.w	r1, [r3, r2, lsl #2]
 8005fcc:	0449      	lsls	r1, r1, #17
 8005fce:	d50d      	bpl.n	8005fec <USB_ActivateEndpoint+0x13c>
 8005fd0:	f833 1022 	ldrh.w	r1, [r3, r2, lsl #2]
 8005fd4:	f421 41e0 	bic.w	r1, r1, #28672	@ 0x7000
 8005fd8:	f021 0170 	bic.w	r1, r1, #112	@ 0x70
 8005fdc:	0409      	lsls	r1, r1, #16
 8005fde:	0c09      	lsrs	r1, r1, #16
 8005fe0:	f441 4140 	orr.w	r1, r1, #49152	@ 0xc000
 8005fe4:	f041 0180 	orr.w	r1, r1, #128	@ 0x80
 8005fe8:	f823 1022 	strh.w	r1, [r3, r2, lsl #2]
        PCD_SET_EP_RX_STATUS(USBx, ep->num, USB_EP_RX_VALID);
 8005fec:	f833 1022 	ldrh.w	r1, [r3, r2, lsl #2]
 8005ff0:	4c8c      	ldr	r4, [pc, #560]	@ (8006224 <USB_ActivateEndpoint+0x374>)
 8005ff2:	b289      	uxth	r1, r1
 8005ff4:	4021      	ands	r1, r4
      if (ep->num == 0U)
 8005ff6:	b96f      	cbnz	r7, 8006014 <USB_ActivateEndpoint+0x164>
        PCD_SET_EP_RX_STATUS(USBx, ep->num, USB_EP_RX_VALID);
 8005ff8:	f481 5140 	eor.w	r1, r1, #12288	@ 0x3000
 8005ffc:	e7ab      	b.n	8005f56 <USB_ActivateEndpoint+0xa6>
      PCD_SET_EP_RX_CNT(USBx, ep->num, ep->maxpacket);
 8005ffe:	094d      	lsrs	r5, r1, #5
 8006000:	06ce      	lsls	r6, r1, #27
 8006002:	f8b4 1406 	ldrh.w	r1, [r4, #1030]	@ 0x406
 8006006:	bf08      	it	eq
 8006008:	f105 35ff 	addeq.w	r5, r5, #4294967295	@ 0xffffffff
 800600c:	b289      	uxth	r1, r1
 800600e:	ea41 2185 	orr.w	r1, r1, r5, lsl #10
 8006012:	e7c6      	b.n	8005fa2 <USB_ActivateEndpoint+0xf2>
        PCD_SET_EP_RX_STATUS(USBx, ep->num, USB_EP_RX_NAK);
 8006014:	f481 5100 	eor.w	r1, r1, #8192	@ 0x2000
 8006018:	e79d      	b.n	8005f56 <USB_ActivateEndpoint+0xa6>
    if (ep->type == EP_TYPE_BULK)
 800601a:	2e02      	cmp	r6, #2
      PCD_SET_BULK_EP_DBUF(USBx, ep->num);
 800601c:	f833 4022 	ldrh.w	r4, [r3, r2, lsl #2]
    if (ep->type == EP_TYPE_BULK)
 8006020:	d155      	bne.n	80060ce <USB_ActivateEndpoint+0x21e>
      PCD_SET_BULK_EP_DBUF(USBx, ep->num);
 8006022:	b2a4      	uxth	r4, r4
 8006024:	ea04 040e 	and.w	r4, r4, lr
 8006028:	f444 4401 	orr.w	r4, r4, #33024	@ 0x8100
 800602c:	f044 0480 	orr.w	r4, r4, #128	@ 0x80
 8006030:	f823 4022 	strh.w	r4, [r3, r2, lsl #2]
    PCD_SET_EP_DBUF_ADDR(USBx, ep->num, ep->pmaaddr0, ep->pmaaddr1);
 8006034:	f8b3 7050 	ldrh.w	r7, [r3, #80]	@ 0x50
 8006038:	890c      	ldrh	r4, [r1, #8]
 800603a:	fa15 f787 	uxtah	r7, r5, r7
 800603e:	0864      	lsrs	r4, r4, #1
 8006040:	0064      	lsls	r4, r4, #1
 8006042:	f8a7 4400 	strh.w	r4, [r7, #1024]	@ 0x400
 8006046:	f8b3 7050 	ldrh.w	r7, [r3, #80]	@ 0x50
 800604a:	894c      	ldrh	r4, [r1, #10]
 800604c:	fa15 f787 	uxtah	r7, r5, r7
 8006050:	0864      	lsrs	r4, r4, #1
 8006052:	0064      	lsls	r4, r4, #1
 8006054:	f8a7 4404 	strh.w	r4, [r7, #1028]	@ 0x404
    if (ep->is_in == 0U)
 8006058:	784c      	ldrb	r4, [r1, #1]
 800605a:	2c00      	cmp	r4, #0
 800605c:	f040 80a3 	bne.w	80061a6 <USB_ActivateEndpoint+0x2f6>
      PCD_CLEAR_RX_DTOG(USBx, ep->num);
 8006060:	f833 4022 	ldrh.w	r4, [r3, r2, lsl #2]
 8006064:	0467      	lsls	r7, r4, #17
 8006066:	d50d      	bpl.n	8006084 <USB_ActivateEndpoint+0x1d4>
 8006068:	f833 4022 	ldrh.w	r4, [r3, r2, lsl #2]
 800606c:	f424 44e0 	bic.w	r4, r4, #28672	@ 0x7000
 8006070:	f024 0470 	bic.w	r4, r4, #112	@ 0x70
 8006074:	0424      	lsls	r4, r4, #16
 8006076:	0c24      	lsrs	r4, r4, #16
 8006078:	f444 4440 	orr.w	r4, r4, #49152	@ 0xc000
 800607c:	f044 0480 	orr.w	r4, r4, #128	@ 0x80
 8006080:	f823 4022 	strh.w	r4, [r3, r2, lsl #2]
      PCD_CLEAR_TX_DTOG(USBx, ep->num);
 8006084:	f833 4022 	ldrh.w	r4, [r3, r2, lsl #2]
 8006088:	0666      	lsls	r6, r4, #25
 800608a:	d50d      	bpl.n	80060a8 <USB_ActivateEndpoint+0x1f8>
 800608c:	f833 4022 	ldrh.w	r4, [r3, r2, lsl #2]
 8006090:	f424 44e0 	bic.w	r4, r4, #28672	@ 0x7000
 8006094:	f024 0470 	bic.w	r4, r4, #112	@ 0x70
 8006098:	0424      	lsls	r4, r4, #16
 800609a:	0c24      	lsrs	r4, r4, #16
 800609c:	f444 4400 	orr.w	r4, r4, #32768	@ 0x8000
 80060a0:	f044 04c0 	orr.w	r4, r4, #192	@ 0xc0
 80060a4:	f823 4022 	strh.w	r4, [r3, r2, lsl #2]
      PCD_SET_EP_DBUF_CNT(USBx, ep->num, ep->is_in, ep->maxpacket);
 80060a8:	f8b3 6050 	ldrh.w	r6, [r3, #80]	@ 0x50
 80060ac:	6909      	ldr	r1, [r1, #16]
 80060ae:	fa15 f686 	uxtah	r6, r5, r6
 80060b2:	f8b6 4402 	ldrh.w	r4, [r6, #1026]	@ 0x402
 80060b6:	f3c4 0409 	ubfx	r4, r4, #0, #10
 80060ba:	f8a6 4402 	strh.w	r4, [r6, #1026]	@ 0x402
 80060be:	b989      	cbnz	r1, 80060e4 <USB_ActivateEndpoint+0x234>
 80060c0:	f8b6 4402 	ldrh.w	r4, [r6, #1026]	@ 0x402
 80060c4:	ea6f 4444 	mvn.w	r4, r4, lsl #17
 80060c8:	ea6f 4454 	mvn.w	r4, r4, lsr #17
 80060cc:	e016      	b.n	80060fc <USB_ActivateEndpoint+0x24c>
      PCD_CLEAR_EP_KIND(USBx, ep->num);
 80060ce:	f424 44e2 	bic.w	r4, r4, #28928	@ 0x7100
 80060d2:	f024 0470 	bic.w	r4, r4, #112	@ 0x70
 80060d6:	0424      	lsls	r4, r4, #16
 80060d8:	0c24      	lsrs	r4, r4, #16
 80060da:	ea4c 0c04 	orr.w	ip, ip, r4
 80060de:	f823 c022 	strh.w	ip, [r3, r2, lsl #2]
 80060e2:	e7a7      	b.n	8006034 <USB_ActivateEndpoint+0x184>
      PCD_SET_EP_DBUF_CNT(USBx, ep->num, ep->is_in, ep->maxpacket);
 80060e4:	293e      	cmp	r1, #62	@ 0x3e
 80060e6:	d81e      	bhi.n	8006126 <USB_ActivateEndpoint+0x276>
 80060e8:	07cc      	lsls	r4, r1, #31
 80060ea:	f8b6 4402 	ldrh.w	r4, [r6, #1026]	@ 0x402
 80060ee:	ea4f 0751 	mov.w	r7, r1, lsr #1
 80060f2:	bf48      	it	mi
 80060f4:	3701      	addmi	r7, #1
 80060f6:	b2a4      	uxth	r4, r4
 80060f8:	ea44 2487 	orr.w	r4, r4, r7, lsl #10
 80060fc:	b2a4      	uxth	r4, r4
 80060fe:	f8a6 4402 	strh.w	r4, [r6, #1026]	@ 0x402
 8006102:	f8b3 4050 	ldrh.w	r4, [r3, #80]	@ 0x50
 8006106:	fa15 f484 	uxtah	r4, r5, r4
 800610a:	f8b4 5406 	ldrh.w	r5, [r4, #1030]	@ 0x406
 800610e:	f3c5 0509 	ubfx	r5, r5, #0, #10
 8006112:	f8a4 5406 	strh.w	r5, [r4, #1030]	@ 0x406
 8006116:	b991      	cbnz	r1, 800613e <USB_ActivateEndpoint+0x28e>
 8006118:	f8b4 1406 	ldrh.w	r1, [r4, #1030]	@ 0x406
 800611c:	ea6f 4141 	mvn.w	r1, r1, lsl #17
 8006120:	ea6f 4151 	mvn.w	r1, r1, lsr #17
 8006124:	e016      	b.n	8006154 <USB_ActivateEndpoint+0x2a4>
 8006126:	06cc      	lsls	r4, r1, #27
 8006128:	f8b6 4402 	ldrh.w	r4, [r6, #1026]	@ 0x402
 800612c:	ea4f 1751 	mov.w	r7, r1, lsr #5
 8006130:	bf08      	it	eq
 8006132:	f107 37ff 	addeq.w	r7, r7, #4294967295	@ 0xffffffff
 8006136:	b2a4      	uxth	r4, r4
 8006138:	ea44 2487 	orr.w	r4, r4, r7, lsl #10
 800613c:	e7c2      	b.n	80060c4 <USB_ActivateEndpoint+0x214>
 800613e:	293e      	cmp	r1, #62	@ 0x3e
 8006140:	d826      	bhi.n	8006190 <USB_ActivateEndpoint+0x2e0>
 8006142:	084d      	lsrs	r5, r1, #1
 8006144:	07cf      	lsls	r7, r1, #31
 8006146:	f8b4 1406 	ldrh.w	r1, [r4, #1030]	@ 0x406
 800614a:	bf48      	it	mi
 800614c:	3501      	addmi	r5, #1
 800614e:	b289      	uxth	r1, r1
 8006150:	ea41 2185 	orr.w	r1, r1, r5, lsl #10
 8006154:	b289      	uxth	r1, r1
 8006156:	f8a4 1406 	strh.w	r1, [r4, #1030]	@ 0x406
      PCD_SET_EP_RX_STATUS(USBx, ep->num, USB_EP_RX_VALID);
 800615a:	f833 1022 	ldrh.w	r1, [r3, r2, lsl #2]
 800615e:	f421 4180 	bic.w	r1, r1, #16384	@ 0x4000
 8006162:	f021 0170 	bic.w	r1, r1, #112	@ 0x70
 8006166:	0409      	lsls	r1, r1, #16
 8006168:	0c09      	lsrs	r1, r1, #16
 800616a:	f248 0480 	movw	r4, #32896	@ 0x8080
 800616e:	f481 5140 	eor.w	r1, r1, #12288	@ 0x3000
 8006172:	4321      	orrs	r1, r4
 8006174:	f823 1022 	strh.w	r1, [r3, r2, lsl #2]
      PCD_SET_EP_TX_STATUS(USBx, ep->num, USB_EP_TX_DIS);
 8006178:	f833 1022 	ldrh.w	r1, [r3, r2, lsl #2]
 800617c:	f421 41e0 	bic.w	r1, r1, #28672	@ 0x7000
 8006180:	f021 0140 	bic.w	r1, r1, #64	@ 0x40
 8006184:	0409      	lsls	r1, r1, #16
 8006186:	0c09      	lsrs	r1, r1, #16
 8006188:	430c      	orrs	r4, r1
 800618a:	f823 4022 	strh.w	r4, [r3, r2, lsl #2]
    }
  }
#endif /* (USE_USB_DOUBLE_BUFFER == 1U) */

  return ret;
}
 800618e:	bdf0      	pop	{r4, r5, r6, r7, pc}
      PCD_SET_EP_DBUF_CNT(USBx, ep->num, ep->is_in, ep->maxpacket);
 8006190:	094d      	lsrs	r5, r1, #5
 8006192:	06ce      	lsls	r6, r1, #27
 8006194:	f8b4 1406 	ldrh.w	r1, [r4, #1030]	@ 0x406
 8006198:	bf08      	it	eq
 800619a:	f105 35ff 	addeq.w	r5, r5, #4294967295	@ 0xffffffff
 800619e:	b289      	uxth	r1, r1
 80061a0:	ea41 2185 	orr.w	r1, r1, r5, lsl #10
 80061a4:	e7ba      	b.n	800611c <USB_ActivateEndpoint+0x26c>
      PCD_CLEAR_RX_DTOG(USBx, ep->num);
 80061a6:	f833 1022 	ldrh.w	r1, [r3, r2, lsl #2]
 80061aa:	044c      	lsls	r4, r1, #17
 80061ac:	d50d      	bpl.n	80061ca <USB_ActivateEndpoint+0x31a>
 80061ae:	f833 1022 	ldrh.w	r1, [r3, r2, lsl #2]
 80061b2:	f421 41e0 	bic.w	r1, r1, #28672	@ 0x7000
 80061b6:	f021 0170 	bic.w	r1, r1, #112	@ 0x70
 80061ba:	0409      	lsls	r1, r1, #16
 80061bc:	0c09      	lsrs	r1, r1, #16
 80061be:	f441 4140 	orr.w	r1, r1, #49152	@ 0xc000
 80061c2:	f041 0180 	orr.w	r1, r1, #128	@ 0x80
 80061c6:	f823 1022 	strh.w	r1, [r3, r2, lsl #2]
      PCD_CLEAR_TX_DTOG(USBx, ep->num);
 80061ca:	f833 1022 	ldrh.w	r1, [r3, r2, lsl #2]
 80061ce:	0649      	lsls	r1, r1, #25
 80061d0:	d50d      	bpl.n	80061ee <USB_ActivateEndpoint+0x33e>
 80061d2:	f833 1022 	ldrh.w	r1, [r3, r2, lsl #2]
 80061d6:	f421 41e0 	bic.w	r1, r1, #28672	@ 0x7000
 80061da:	f021 0170 	bic.w	r1, r1, #112	@ 0x70
 80061de:	0409      	lsls	r1, r1, #16
 80061e0:	0c09      	lsrs	r1, r1, #16
 80061e2:	f441 4100 	orr.w	r1, r1, #32768	@ 0x8000
 80061e6:	f041 01c0 	orr.w	r1, r1, #192	@ 0xc0
 80061ea:	f823 1022 	strh.w	r1, [r3, r2, lsl #2]
        PCD_SET_EP_TX_STATUS(USBx, ep->num, USB_EP_TX_NAK);
 80061ee:	f833 1022 	ldrh.w	r1, [r3, r2, lsl #2]
 80061f2:	4c0b      	ldr	r4, [pc, #44]	@ (8006220 <USB_ActivateEndpoint+0x370>)
 80061f4:	b289      	uxth	r1, r1
 80061f6:	4021      	ands	r1, r4
      if (ep->type != EP_TYPE_ISOC)
 80061f8:	2e01      	cmp	r6, #1
        PCD_SET_EP_TX_STATUS(USBx, ep->num, USB_EP_TX_NAK);
 80061fa:	bf18      	it	ne
 80061fc:	f081 0120 	eorne.w	r1, r1, #32
        PCD_SET_EP_TX_STATUS(USBx, ep->num, USB_EP_TX_DIS);
 8006200:	f441 4100 	orr.w	r1, r1, #32768	@ 0x8000
 8006204:	f041 0180 	orr.w	r1, r1, #128	@ 0x80
 8006208:	f823 1022 	strh.w	r1, [r3, r2, lsl #2]
      PCD_SET_EP_RX_STATUS(USBx, ep->num, USB_EP_RX_DIS);
 800620c:	f833 1022 	ldrh.w	r1, [r3, r2, lsl #2]
 8006210:	f421 4180 	bic.w	r1, r1, #16384	@ 0x4000
 8006214:	f021 0170 	bic.w	r1, r1, #112	@ 0x70
 8006218:	0409      	lsls	r1, r1, #16
 800621a:	0c09      	lsrs	r1, r1, #16
 800621c:	e69b      	b.n	8005f56 <USB_ActivateEndpoint+0xa6>
 800621e:	bf00      	nop
 8006220:	ffff8fbf 	.word	0xffff8fbf
 8006224:	ffffbf8f 	.word	0xffffbf8f
 8006228:	ffff8f8f 	.word	0xffff8f8f

0800622c <USB_DeactivateEndpoint>:
  */
HAL_StatusTypeDef USB_DeactivateEndpoint(USB_TypeDef *USBx, USB_EPTypeDef *ep)
{
  if (ep->doublebuffer == 0U)
  {
    if (ep->is_in != 0U)
 800622c:	784a      	ldrb	r2, [r1, #1]
    {
      PCD_CLEAR_TX_DTOG(USBx, ep->num);
 800622e:	780b      	ldrb	r3, [r1, #0]
  if (ep->doublebuffer == 0U)
 8006230:	7b09      	ldrb	r1, [r1, #12]
 8006232:	bbd9      	cbnz	r1, 80062ac <USB_DeactivateEndpoint+0x80>
    if (ep->is_in != 0U)
 8006234:	b30a      	cbz	r2, 800627a <USB_DeactivateEndpoint+0x4e>
      PCD_CLEAR_TX_DTOG(USBx, ep->num);
 8006236:	f830 2023 	ldrh.w	r2, [r0, r3, lsl #2]
 800623a:	0651      	lsls	r1, r2, #25
 800623c:	d50d      	bpl.n	800625a <USB_DeactivateEndpoint+0x2e>
 800623e:	f830 2023 	ldrh.w	r2, [r0, r3, lsl #2]
 8006242:	f422 42e0 	bic.w	r2, r2, #28672	@ 0x7000
 8006246:	f022 0270 	bic.w	r2, r2, #112	@ 0x70
 800624a:	0412      	lsls	r2, r2, #16
 800624c:	0c12      	lsrs	r2, r2, #16
 800624e:	f442 4200 	orr.w	r2, r2, #32768	@ 0x8000
 8006252:	f042 02c0 	orr.w	r2, r2, #192	@ 0xc0
 8006256:	f820 2023 	strh.w	r2, [r0, r3, lsl #2]

      /* Configure DISABLE status for the Endpoint */
      PCD_SET_EP_TX_STATUS(USBx, ep->num, USB_EP_TX_DIS);
 800625a:	f830 2023 	ldrh.w	r2, [r0, r3, lsl #2]
 800625e:	f422 42e0 	bic.w	r2, r2, #28672	@ 0x7000
 8006262:	f022 0240 	bic.w	r2, r2, #64	@ 0x40
    else
    {
      PCD_CLEAR_RX_DTOG(USBx, ep->num);

      /* Configure DISABLE status for the Endpoint */
      PCD_SET_EP_RX_STATUS(USBx, ep->num, USB_EP_RX_DIS);
 8006266:	0412      	lsls	r2, r2, #16
 8006268:	0c12      	lsrs	r2, r2, #16
 800626a:	f442 4200 	orr.w	r2, r2, #32768	@ 0x8000
 800626e:	f042 0280 	orr.w	r2, r2, #128	@ 0x80
 8006272:	f820 2023 	strh.w	r2, [r0, r3, lsl #2]
    }
  }
#endif /* (USE_USB_DOUBLE_BUFFER == 1U) */

  return HAL_OK;
}
 8006276:	2000      	movs	r0, #0
 8006278:	4770      	bx	lr
      PCD_CLEAR_RX_DTOG(USBx, ep->num);
 800627a:	f830 2023 	ldrh.w	r2, [r0, r3, lsl #2]
 800627e:	0452      	lsls	r2, r2, #17
 8006280:	d50d      	bpl.n	800629e <USB_DeactivateEndpoint+0x72>
 8006282:	f830 2023 	ldrh.w	r2, [r0, r3, lsl #2]
 8006286:	f422 42e0 	bic.w	r2, r2, #28672	@ 0x7000
 800628a:	f022 0270 	bic.w	r2, r2, #112	@ 0x70
 800628e:	0412      	lsls	r2, r2, #16
 8006290:	0c12      	lsrs	r2, r2, #16
 8006292:	f442 4240 	orr.w	r2, r2, #49152	@ 0xc000
 8006296:	f042 0280 	orr.w	r2, r2, #128	@ 0x80
 800629a:	f820 2023 	strh.w	r2, [r0, r3, lsl #2]
      PCD_SET_EP_RX_STATUS(USBx, ep->num, USB_EP_RX_DIS);
 800629e:	f830 2023 	ldrh.w	r2, [r0, r3, lsl #2]
 80062a2:	f422 4280 	bic.w	r2, r2, #16384	@ 0x4000
 80062a6:	f022 0270 	bic.w	r2, r2, #112	@ 0x70
 80062aa:	e7dc      	b.n	8006266 <USB_DeactivateEndpoint+0x3a>
    if (ep->is_in == 0U)
 80062ac:	2a00      	cmp	r2, #0
 80062ae:	d14a      	bne.n	8006346 <USB_DeactivateEndpoint+0x11a>
      PCD_CLEAR_RX_DTOG(USBx, ep->num);
 80062b0:	f830 2023 	ldrh.w	r2, [r0, r3, lsl #2]
 80062b4:	0451      	lsls	r1, r2, #17
 80062b6:	d50d      	bpl.n	80062d4 <USB_DeactivateEndpoint+0xa8>
 80062b8:	f830 2023 	ldrh.w	r2, [r0, r3, lsl #2]
 80062bc:	f422 42e0 	bic.w	r2, r2, #28672	@ 0x7000
 80062c0:	f022 0270 	bic.w	r2, r2, #112	@ 0x70
 80062c4:	0412      	lsls	r2, r2, #16
 80062c6:	0c12      	lsrs	r2, r2, #16
 80062c8:	f442 4240 	orr.w	r2, r2, #49152	@ 0xc000
 80062cc:	f042 0280 	orr.w	r2, r2, #128	@ 0x80
 80062d0:	f820 2023 	strh.w	r2, [r0, r3, lsl #2]
      PCD_CLEAR_TX_DTOG(USBx, ep->num);
 80062d4:	f830 2023 	ldrh.w	r2, [r0, r3, lsl #2]
 80062d8:	0652      	lsls	r2, r2, #25
 80062da:	d50d      	bpl.n	80062f8 <USB_DeactivateEndpoint+0xcc>
 80062dc:	f830 2023 	ldrh.w	r2, [r0, r3, lsl #2]
 80062e0:	f422 42e0 	bic.w	r2, r2, #28672	@ 0x7000
 80062e4:	f022 0270 	bic.w	r2, r2, #112	@ 0x70
 80062e8:	0412      	lsls	r2, r2, #16
 80062ea:	0c12      	lsrs	r2, r2, #16
 80062ec:	f442 4200 	orr.w	r2, r2, #32768	@ 0x8000
 80062f0:	f042 02c0 	orr.w	r2, r2, #192	@ 0xc0
 80062f4:	f820 2023 	strh.w	r2, [r0, r3, lsl #2]
      PCD_TX_DTOG(USBx, ep->num);
 80062f8:	f830 2023 	ldrh.w	r2, [r0, r3, lsl #2]
 80062fc:	f422 42e0 	bic.w	r2, r2, #28672	@ 0x7000
 8006300:	f022 0270 	bic.w	r2, r2, #112	@ 0x70
 8006304:	0412      	lsls	r2, r2, #16
 8006306:	0c12      	lsrs	r2, r2, #16
 8006308:	f442 4200 	orr.w	r2, r2, #32768	@ 0x8000
 800630c:	f042 02c0 	orr.w	r2, r2, #192	@ 0xc0
 8006310:	f820 2023 	strh.w	r2, [r0, r3, lsl #2]
      PCD_SET_EP_RX_STATUS(USBx, ep->num, USB_EP_RX_DIS);
 8006314:	f830 2023 	ldrh.w	r2, [r0, r3, lsl #2]
 8006318:	f422 4280 	bic.w	r2, r2, #16384	@ 0x4000
 800631c:	f022 0270 	bic.w	r2, r2, #112	@ 0x70
 8006320:	0412      	lsls	r2, r2, #16
 8006322:	0c12      	lsrs	r2, r2, #16
 8006324:	f248 0180 	movw	r1, #32896	@ 0x8080
 8006328:	430a      	orrs	r2, r1
 800632a:	f820 2023 	strh.w	r2, [r0, r3, lsl #2]
      PCD_SET_EP_TX_STATUS(USBx, ep->num, USB_EP_TX_DIS);
 800632e:	f830 2023 	ldrh.w	r2, [r0, r3, lsl #2]
 8006332:	f422 42e0 	bic.w	r2, r2, #28672	@ 0x7000
 8006336:	f022 0240 	bic.w	r2, r2, #64	@ 0x40
      PCD_SET_EP_RX_STATUS(USBx, ep->num, USB_EP_RX_DIS);
 800633a:	0412      	lsls	r2, r2, #16
 800633c:	0c12      	lsrs	r2, r2, #16
 800633e:	4311      	orrs	r1, r2
 8006340:	f820 1023 	strh.w	r1, [r0, r3, lsl #2]
 8006344:	e797      	b.n	8006276 <USB_DeactivateEndpoint+0x4a>
      PCD_CLEAR_RX_DTOG(USBx, ep->num);
 8006346:	f830 2023 	ldrh.w	r2, [r0, r3, lsl #2]
 800634a:	0451      	lsls	r1, r2, #17
 800634c:	d50d      	bpl.n	800636a <USB_DeactivateEndpoint+0x13e>
 800634e:	f830 2023 	ldrh.w	r2, [r0, r3, lsl #2]
 8006352:	f422 42e0 	bic.w	r2, r2, #28672	@ 0x7000
 8006356:	f022 0270 	bic.w	r2, r2, #112	@ 0x70
 800635a:	0412      	lsls	r2, r2, #16
 800635c:	0c12      	lsrs	r2, r2, #16
 800635e:	f442 4240 	orr.w	r2, r2, #49152	@ 0xc000
 8006362:	f042 0280 	orr.w	r2, r2, #128	@ 0x80
 8006366:	f820 2023 	strh.w	r2, [r0, r3, lsl #2]
      PCD_CLEAR_TX_DTOG(USBx, ep->num);
 800636a:	f830 2023 	ldrh.w	r2, [r0, r3, lsl #2]
 800636e:	0652      	lsls	r2, r2, #25
 8006370:	d50d      	bpl.n	800638e <USB_DeactivateEndpoint+0x162>
 8006372:	f830 2023 	ldrh.w	r2, [r0, r3, lsl #2]
 8006376:	f422 42e0 	bic.w	r2, r2, #28672	@ 0x7000
 800637a:	f022 0270 	bic.w	r2, r2, #112	@ 0x70
 800637e:	0412      	lsls	r2, r2, #16
 8006380:	0c12      	lsrs	r2, r2, #16
 8006382:	f442 4200 	orr.w	r2, r2, #32768	@ 0x8000
 8006386:	f042 02c0 	orr.w	r2, r2, #192	@ 0xc0
 800638a:	f820 2023 	strh.w	r2, [r0, r3, lsl #2]
      PCD_RX_DTOG(USBx, ep->num);
 800638e:	f830 2023 	ldrh.w	r2, [r0, r3, lsl #2]
 8006392:	f422 42e0 	bic.w	r2, r2, #28672	@ 0x7000
 8006396:	f022 0270 	bic.w	r2, r2, #112	@ 0x70
 800639a:	0412      	lsls	r2, r2, #16
 800639c:	0c12      	lsrs	r2, r2, #16
 800639e:	f442 4240 	orr.w	r2, r2, #49152	@ 0xc000
 80063a2:	f042 0280 	orr.w	r2, r2, #128	@ 0x80
 80063a6:	f820 2023 	strh.w	r2, [r0, r3, lsl #2]
      PCD_SET_EP_TX_STATUS(USBx, ep->num, USB_EP_TX_DIS);
 80063aa:	f830 2023 	ldrh.w	r2, [r0, r3, lsl #2]
 80063ae:	f422 42e0 	bic.w	r2, r2, #28672	@ 0x7000
 80063b2:	f022 0240 	bic.w	r2, r2, #64	@ 0x40
 80063b6:	0412      	lsls	r2, r2, #16
 80063b8:	0c12      	lsrs	r2, r2, #16
 80063ba:	f248 0180 	movw	r1, #32896	@ 0x8080
 80063be:	430a      	orrs	r2, r1
 80063c0:	f820 2023 	strh.w	r2, [r0, r3, lsl #2]
      PCD_SET_EP_RX_STATUS(USBx, ep->num, USB_EP_RX_DIS);
 80063c4:	f830 2023 	ldrh.w	r2, [r0, r3, lsl #2]
 80063c8:	f422 4280 	bic.w	r2, r2, #16384	@ 0x4000
 80063cc:	f022 0270 	bic.w	r2, r2, #112	@ 0x70
 80063d0:	e7b3      	b.n	800633a <USB_DeactivateEndpoint+0x10e>

080063d2 <USB_EPSetStall>:
  * @param  ep pointer to endpoint structure
  * @retval HAL status
  */
HAL_StatusTypeDef USB_EPSetStall(USB_TypeDef *USBx, USB_EPTypeDef *ep)
{
  if (ep->is_in != 0U)
 80063d2:	784b      	ldrb	r3, [r1, #1]
  {
    PCD_SET_EP_TX_STATUS(USBx, ep->num, USB_EP_TX_STALL);
 80063d4:	780a      	ldrb	r2, [r1, #0]
  if (ep->is_in != 0U)
 80063d6:	b18b      	cbz	r3, 80063fc <USB_EPSetStall+0x2a>
    PCD_SET_EP_TX_STATUS(USBx, ep->num, USB_EP_TX_STALL);
 80063d8:	f830 3022 	ldrh.w	r3, [r0, r2, lsl #2]
 80063dc:	f423 43e0 	bic.w	r3, r3, #28672	@ 0x7000
 80063e0:	f023 0340 	bic.w	r3, r3, #64	@ 0x40
 80063e4:	041b      	lsls	r3, r3, #16
 80063e6:	0c1b      	lsrs	r3, r3, #16
 80063e8:	f083 0310 	eor.w	r3, r3, #16
  }
  else
  {
    PCD_SET_EP_RX_STATUS(USBx, ep->num, USB_EP_RX_STALL);
 80063ec:	f443 4300 	orr.w	r3, r3, #32768	@ 0x8000
 80063f0:	f043 0380 	orr.w	r3, r3, #128	@ 0x80
 80063f4:	f820 3022 	strh.w	r3, [r0, r2, lsl #2]
  }

  return HAL_OK;
}
 80063f8:	2000      	movs	r0, #0
 80063fa:	4770      	bx	lr
    PCD_SET_EP_RX_STATUS(USBx, ep->num, USB_EP_RX_STALL);
 80063fc:	f830 3022 	ldrh.w	r3, [r0, r2, lsl #2]
 8006400:	f423 4380 	bic.w	r3, r3, #16384	@ 0x4000
 8006404:	f023 0370 	bic.w	r3, r3, #112	@ 0x70
 8006408:	041b      	lsls	r3, r3, #16
 800640a:	0c1b      	lsrs	r3, r3, #16
 800640c:	f483 5380 	eor.w	r3, r3, #4096	@ 0x1000
 8006410:	e7ec      	b.n	80063ec <USB_EPSetStall+0x1a>

08006412 <USB_EPClearStall>:
  * @param  ep pointer to endpoint structure
  * @retval HAL status
  */
HAL_StatusTypeDef USB_EPClearStall(USB_TypeDef *USBx, USB_EPTypeDef *ep)
{
  if (ep->is_in != 0U)
 8006412:	784b      	ldrb	r3, [r1, #1]
  {
    PCD_CLEAR_TX_DTOG(USBx, ep->num);
 8006414:	780a      	ldrb	r2, [r1, #0]
  if (ep->is_in != 0U)
 8006416:	b333      	cbz	r3, 8006466 <USB_EPClearStall+0x54>
    PCD_CLEAR_TX_DTOG(USBx, ep->num);
 8006418:	f830 3022 	ldrh.w	r3, [r0, r2, lsl #2]
 800641c:	065b      	lsls	r3, r3, #25
 800641e:	d50d      	bpl.n	800643c <USB_EPClearStall+0x2a>
 8006420:	f830 3022 	ldrh.w	r3, [r0, r2, lsl #2]
 8006424:	f423 43e0 	bic.w	r3, r3, #28672	@ 0x7000
 8006428:	f023 0370 	bic.w	r3, r3, #112	@ 0x70
 800642c:	041b      	lsls	r3, r3, #16
 800642e:	0c1b      	lsrs	r3, r3, #16
 8006430:	f443 4300 	orr.w	r3, r3, #32768	@ 0x8000
 8006434:	f043 03c0 	orr.w	r3, r3, #192	@ 0xc0
 8006438:	f820 3022 	strh.w	r3, [r0, r2, lsl #2]

    if (ep->type != EP_TYPE_ISOC)
 800643c:	78cb      	ldrb	r3, [r1, #3]
 800643e:	2b01      	cmp	r3, #1
 8006440:	d00f      	beq.n	8006462 <USB_EPClearStall+0x50>
    {
      /* Configure NAK status for the Endpoint */
      PCD_SET_EP_TX_STATUS(USBx, ep->num, USB_EP_TX_NAK);
 8006442:	f830 3022 	ldrh.w	r3, [r0, r2, lsl #2]
 8006446:	f423 43e0 	bic.w	r3, r3, #28672	@ 0x7000
 800644a:	f023 0340 	bic.w	r3, r3, #64	@ 0x40
 800644e:	041b      	lsls	r3, r3, #16
 8006450:	0c1b      	lsrs	r3, r3, #16
 8006452:	f083 0320 	eor.w	r3, r3, #32
  else
  {
    PCD_CLEAR_RX_DTOG(USBx, ep->num);

    /* Configure VALID status for the Endpoint */
    PCD_SET_EP_RX_STATUS(USBx, ep->num, USB_EP_RX_VALID);
 8006456:	f443 4300 	orr.w	r3, r3, #32768	@ 0x8000
 800645a:	f043 0380 	orr.w	r3, r3, #128	@ 0x80
 800645e:	f820 3022 	strh.w	r3, [r0, r2, lsl #2]
  }

  return HAL_OK;
}
 8006462:	2000      	movs	r0, #0
 8006464:	4770      	bx	lr
    PCD_CLEAR_RX_DTOG(USBx, ep->num);
 8006466:	f830 3022 	ldrh.w	r3, [r0, r2, lsl #2]
 800646a:	045b      	lsls	r3, r3, #17
 800646c:	d50d      	bpl.n	800648a <USB_EPClearStall+0x78>
 800646e:	f830 3022 	ldrh.w	r3, [r0, r2, lsl #2]
 8006472:	f423 43e0 	bic.w	r3, r3, #28672	@ 0x7000
 8006476:	f023 0370 	bic.w	r3, r3, #112	@ 0x70
 800647a:	041b      	lsls	r3, r3, #16
 800647c:	0c1b      	lsrs	r3, r3, #16
 800647e:	f443 4340 	orr.w	r3, r3, #49152	@ 0xc000
 8006482:	f043 0380 	orr.w	r3, r3, #128	@ 0x80
 8006486:	f820 3022 	strh.w	r3, [r0, r2, lsl #2]
    PCD_SET_EP_RX_STATUS(USBx, ep->num, USB_EP_RX_VALID);
 800648a:	f830 3022 	ldrh.w	r3, [r0, r2, lsl #2]
 800648e:	f423 4380 	bic.w	r3, r3, #16384	@ 0x4000
 8006492:	f023 0370 	bic.w	r3, r3, #112	@ 0x70
 8006496:	041b      	lsls	r3, r3, #16
 8006498:	0c1b      	lsrs	r3, r3, #16
 800649a:	f483 5340 	eor.w	r3, r3, #12288	@ 0x3000
 800649e:	e7da      	b.n	8006456 <USB_EPClearStall+0x44>

080064a0 <USB_SetDevAddress>:
  *          This parameter can be a value from 0 to 255
  * @retval HAL status
  */
HAL_StatusTypeDef  USB_SetDevAddress(USB_TypeDef *USBx, uint8_t address)
{
  if (address == 0U)
 80064a0:	b911      	cbnz	r1, 80064a8 <USB_SetDevAddress+0x8>
  {
    /* set device address and enable function */
    USBx->DADDR = (uint16_t)USB_DADDR_EF;
 80064a2:	2380      	movs	r3, #128	@ 0x80
 80064a4:	f8a0 304c 	strh.w	r3, [r0, #76]	@ 0x4c
  }

  return HAL_OK;
}
 80064a8:	2000      	movs	r0, #0
 80064aa:	4770      	bx	lr

080064ac <USB_DevConnect>:
  * @retval HAL status
  */
HAL_StatusTypeDef  USB_DevConnect(USB_TypeDef *USBx)
{
  /* Enabling DP Pull-UP bit to Connect internal PU resistor on USB DP line */
  USBx->BCDR |= (uint16_t)USB_BCDR_DPPU;
 80064ac:	f8b0 3058 	ldrh.w	r3, [r0, #88]	@ 0x58
 80064b0:	ea6f 4343 	mvn.w	r3, r3, lsl #17
 80064b4:	ea6f 4353 	mvn.w	r3, r3, lsr #17
 80064b8:	b29b      	uxth	r3, r3
 80064ba:	f8a0 3058 	strh.w	r3, [r0, #88]	@ 0x58

  return HAL_OK;
}
 80064be:	2000      	movs	r0, #0
 80064c0:	4770      	bx	lr

080064c2 <USB_ReadInterrupts>:
  */
uint32_t USB_ReadInterrupts(USB_TypeDef const *USBx)
{
  uint32_t tmpreg;

  tmpreg = USBx->ISTR;
 80064c2:	f8b0 0044 	ldrh.w	r0, [r0, #68]	@ 0x44
  return tmpreg;
}
 80064c6:	b280      	uxth	r0, r0
 80064c8:	4770      	bx	lr

080064ca <USB_WritePMA>:
  uint32_t count;
  uint16_t WrVal;
  __IO uint16_t *pdwVal;
  uint8_t *pBuf = pbUsrBuf;

  pdwVal = (__IO uint16_t *)(BaseAddr + 0x400U + ((uint32_t)wPMABufAddr * PMA_ACCESS));
 80064ca:	f502 6280 	add.w	r2, r2, #1024	@ 0x400
  uint32_t n = ((uint32_t)wNBytes + 1U) >> 1;
 80064ce:	3301      	adds	r3, #1
  pdwVal = (__IO uint16_t *)(BaseAddr + 0x400U + ((uint32_t)wPMABufAddr * PMA_ACCESS));
 80064d0:	4410      	add	r0, r2
  uint32_t n = ((uint32_t)wNBytes + 1U) >> 1;
 80064d2:	085b      	lsrs	r3, r3, #1
 80064d4:	eb01 0343 	add.w	r3, r1, r3, lsl #1
 80064d8:	1a40      	subs	r0, r0, r1

  for (count = n; count != 0U; count--)
 80064da:	428b      	cmp	r3, r1
 80064dc:	d100      	bne.n	80064e0 <USB_WritePMA+0x16>
#endif /* PMA_ACCESS */

    pBuf++;
    pBuf++;
  }
}
 80064de:	4770      	bx	lr
    WrVal |= (uint16_t)pBuf[1] << 8;
 80064e0:	880a      	ldrh	r2, [r1, #0]
    *pdwVal = (WrVal & 0xFFFFU);
 80064e2:	520a      	strh	r2, [r1, r0]
    pBuf++;
 80064e4:	3102      	adds	r1, #2
  for (count = n; count != 0U; count--)
 80064e6:	e7f8      	b.n	80064da <USB_WritePMA+0x10>

080064e8 <USB_EPStartXfer>:
{
 80064e8:	e92d 47f0 	stmdb	sp!, {r4, r5, r6, r7, r8, r9, sl, lr}
  if (ep->is_in == 1U)
 80064ec:	784b      	ldrb	r3, [r1, #1]
    if (ep->doublebuffer == 0U)
 80064ee:	7b0a      	ldrb	r2, [r1, #12]
  if (ep->is_in == 1U)
 80064f0:	2b01      	cmp	r3, #1
{
 80064f2:	4605      	mov	r5, r0
 80064f4:	460c      	mov	r4, r1
  if (ep->is_in == 1U)
 80064f6:	f040 811d 	bne.w	8006734 <USB_EPStartXfer+0x24c>
    if (ep->xfer_len > ep->maxpacket)
 80064fa:	f8d1 a010 	ldr.w	sl, [r1, #16]
 80064fe:	698f      	ldr	r7, [r1, #24]
      USB_WritePMA(USBx, ep->xfer_buff, ep->pmaadress, (uint16_t)len);
 8006500:	6949      	ldr	r1, [r1, #20]
    if (ep->xfer_len > ep->maxpacket)
 8006502:	4557      	cmp	r7, sl
 8006504:	bf28      	it	cs
 8006506:	4657      	movcs	r7, sl
    if (ep->doublebuffer == 0U)
 8006508:	bb12      	cbnz	r2, 8006550 <USB_EPStartXfer+0x68>
      USB_WritePMA(USBx, ep->xfer_buff, ep->pmaadress, (uint16_t)len);
 800650a:	b2bf      	uxth	r7, r7
 800650c:	88e2      	ldrh	r2, [r4, #6]
 800650e:	463b      	mov	r3, r7
 8006510:	f7ff ffdb 	bl	80064ca <USB_WritePMA>
      PCD_SET_EP_TX_CNT(USBx, ep->num, len);
 8006514:	f8b5 2050 	ldrh.w	r2, [r5, #80]	@ 0x50
 8006518:	7823      	ldrb	r3, [r4, #0]
 800651a:	f205 4102 	addw	r1, r5, #1026	@ 0x402
 800651e:	fa11 f282 	uxtah	r2, r1, r2
 8006522:	eb02 02c3 	add.w	r2, r2, r3, lsl #3
 8006526:	8017      	strh	r7, [r2, #0]
    PCD_SET_EP_TX_STATUS(USBx, ep->num, USB_EP_TX_VALID);
 8006528:	7822      	ldrb	r2, [r4, #0]
 800652a:	f835 3022 	ldrh.w	r3, [r5, r2, lsl #2]
 800652e:	f423 43e0 	bic.w	r3, r3, #28672	@ 0x7000
 8006532:	f023 0340 	bic.w	r3, r3, #64	@ 0x40
 8006536:	041b      	lsls	r3, r3, #16
 8006538:	0c1b      	lsrs	r3, r3, #16
 800653a:	f083 0330 	eor.w	r3, r3, #48	@ 0x30
 800653e:	f443 4300 	orr.w	r3, r3, #32768	@ 0x8000
 8006542:	f043 0380 	orr.w	r3, r3, #128	@ 0x80
 8006546:	f825 3022 	strh.w	r3, [r5, r2, lsl #2]
  return HAL_OK;
 800654a:	2000      	movs	r0, #0
}
 800654c:	e8bd 87f0 	ldmia.w	sp!, {r4, r5, r6, r7, r8, r9, sl, pc}
      if (ep->type == EP_TYPE_BULK)
 8006550:	78e3      	ldrb	r3, [r4, #3]
        if (ep->xfer_len_db > ep->maxpacket)
 8006552:	6a26      	ldr	r6, [r4, #32]
            PCD_SET_EP_DBUF1_CNT(USBx, ep->num, ep->is_in, len);
 8006554:	f894 c000 	ldrb.w	ip, [r4]
      if (ep->type == EP_TYPE_BULK)
 8006558:	2b02      	cmp	r3, #2
 800655a:	f040 80d4 	bne.w	8006706 <USB_EPStartXfer+0x21e>
        if (ep->xfer_len_db > ep->maxpacket)
 800655e:	45b2      	cmp	sl, r6
          PCD_SET_BULK_EP_DBUF(USBx, ep->num);
 8006560:	f830 202c 	ldrh.w	r2, [r0, ip, lsl #2]
        if (ep->xfer_len_db > ep->maxpacket)
 8006564:	f080 80b8 	bcs.w	80066d8 <USB_EPStartXfer+0x1f0>
          PCD_SET_BULK_EP_DBUF(USBx, ep->num);
 8006568:	f422 42e0 	bic.w	r2, r2, #28672	@ 0x7000
 800656c:	f022 0270 	bic.w	r2, r2, #112	@ 0x70
 8006570:	0412      	lsls	r2, r2, #16
 8006572:	0c12      	lsrs	r2, r2, #16
 8006574:	f442 4201 	orr.w	r2, r2, #33024	@ 0x8100
 8006578:	f042 0280 	orr.w	r2, r2, #128	@ 0x80
 800657c:	f820 202c 	strh.w	r2, [r0, ip, lsl #2]
          if ((PCD_GET_ENDPOINT(USBx, ep->num) & USB_EP_DTOG_TX) != 0U)
 8006580:	f830 802c 	ldrh.w	r8, [r0, ip, lsl #2]
            PCD_SET_EP_DBUF1_CNT(USBx, ep->num, ep->is_in, len);
 8006584:	f8b0 2050 	ldrh.w	r2, [r0, #80]	@ 0x50
          ep->xfer_len_db -= len;
 8006588:	1bf6      	subs	r6, r6, r7
          if ((PCD_GET_ENDPOINT(USBx, ep->num) & USB_EP_DTOG_TX) != 0U)
 800658a:	f018 0840 	ands.w	r8, r8, #64	@ 0x40
          ep->xfer_len_db -= len;
 800658e:	6226      	str	r6, [r4, #32]
            ep->xfer_buff += len;
 8006590:	eb01 0907 	add.w	r9, r1, r7
      USB_WritePMA(USBx, ep->xfer_buff, ep->pmaadress, (uint16_t)len);
 8006594:	b2bb      	uxth	r3, r7
          if ((PCD_GET_ENDPOINT(USBx, ep->num) & USB_EP_DTOG_TX) != 0U)
 8006596:	d051      	beq.n	800663c <USB_EPStartXfer+0x154>
            PCD_SET_EP_DBUF1_CNT(USBx, ep->num, ep->is_in, len);
 8006598:	f200 4e06 	addw	lr, r0, #1030	@ 0x406
 800659c:	fa1e f282 	uxtah	r2, lr, r2
 80065a0:	f822 303c 	strh.w	r3, [r2, ip, lsl #3]
            USB_WritePMA(USBx, ep->xfer_buff, pmabuffer, (uint16_t)len);
 80065a4:	8962      	ldrh	r2, [r4, #10]
 80065a6:	f7ff ff90 	bl	80064ca <USB_WritePMA>
            if (ep->xfer_len_db > ep->maxpacket)
 80065aa:	45b2      	cmp	sl, r6
            PCD_SET_EP_DBUF0_CNT(USBx, ep->num, ep->is_in, len);
 80065ac:	7862      	ldrb	r2, [r4, #1]
            ep->xfer_buff += len;
 80065ae:	f8c4 9014 	str.w	r9, [r4, #20]
              ep->xfer_len_db -= len;
 80065b2:	bf36      	itet	cc
 80065b4:	1bf3      	subcc	r3, r6, r7
              ep->xfer_len_db = 0U;
 80065b6:	2300      	movcs	r3, #0
 80065b8:	463e      	movcc	r6, r7
 80065ba:	6223      	str	r3, [r4, #32]
            PCD_SET_EP_DBUF0_CNT(USBx, ep->num, ep->is_in, len);
 80065bc:	b2b3      	uxth	r3, r6
 80065be:	bb82      	cbnz	r2, 8006622 <USB_EPStartXfer+0x13a>
 80065c0:	f8b5 2050 	ldrh.w	r2, [r5, #80]	@ 0x50
 80065c4:	7821      	ldrb	r1, [r4, #0]
 80065c6:	f205 4002 	addw	r0, r5, #1026	@ 0x402
 80065ca:	fa10 f282 	uxtah	r2, r0, r2
 80065ce:	eb02 02c1 	add.w	r2, r2, r1, lsl #3
 80065d2:	8811      	ldrh	r1, [r2, #0]
 80065d4:	f3c1 0109 	ubfx	r1, r1, #0, #10
 80065d8:	8011      	strh	r1, [r2, #0]
 80065da:	b92e      	cbnz	r6, 80065e8 <USB_EPStartXfer+0x100>
 80065dc:	8811      	ldrh	r1, [r2, #0]
 80065de:	ea6f 4141 	mvn.w	r1, r1, lsl #17
 80065e2:	ea6f 4151 	mvn.w	r1, r1, lsr #17
 80065e6:	e00a      	b.n	80065fe <USB_EPStartXfer+0x116>
 80065e8:	2e3e      	cmp	r6, #62	@ 0x3e
 80065ea:	d810      	bhi.n	800660e <USB_EPStartXfer+0x126>
 80065ec:	07f1      	lsls	r1, r6, #31
 80065ee:	8811      	ldrh	r1, [r2, #0]
 80065f0:	ea4f 0056 	mov.w	r0, r6, lsr #1
 80065f4:	bf48      	it	mi
 80065f6:	3001      	addmi	r0, #1
 80065f8:	b289      	uxth	r1, r1
 80065fa:	ea41 2180 	orr.w	r1, r1, r0, lsl #10
 80065fe:	b289      	uxth	r1, r1
 8006600:	8011      	strh	r1, [r2, #0]
            USB_WritePMA(USBx, ep->xfer_buff, pmabuffer, (uint16_t)len);
 8006602:	8922      	ldrh	r2, [r4, #8]
            USB_WritePMA(USBx, ep->xfer_buff, pmabuffer, (uint16_t)len);
 8006604:	4649      	mov	r1, r9
 8006606:	4628      	mov	r0, r5
          USB_WritePMA(USBx, ep->xfer_buff, pmabuffer, (uint16_t)len);
 8006608:	f7ff ff5f 	bl	80064ca <USB_WritePMA>
 800660c:	e78c      	b.n	8006528 <USB_EPStartXfer+0x40>
            PCD_SET_EP_DBUF0_CNT(USBx, ep->num, ep->is_in, len);
 800660e:	8811      	ldrh	r1, [r2, #0]
 8006610:	0970      	lsrs	r0, r6, #5
 8006612:	06f7      	lsls	r7, r6, #27
 8006614:	bf08      	it	eq
 8006616:	f100 30ff 	addeq.w	r0, r0, #4294967295	@ 0xffffffff
 800661a:	b289      	uxth	r1, r1
 800661c:	ea41 2180 	orr.w	r1, r1, r0, lsl #10
 8006620:	e7dd      	b.n	80065de <USB_EPStartXfer+0xf6>
 8006622:	2a01      	cmp	r2, #1
 8006624:	d1ed      	bne.n	8006602 <USB_EPStartXfer+0x11a>
 8006626:	f8b5 2050 	ldrh.w	r2, [r5, #80]	@ 0x50
 800662a:	7821      	ldrb	r1, [r4, #0]
 800662c:	f205 4002 	addw	r0, r5, #1026	@ 0x402
 8006630:	fa10 f282 	uxtah	r2, r0, r2
 8006634:	eb02 02c1 	add.w	r2, r2, r1, lsl #3
 8006638:	8013      	strh	r3, [r2, #0]
 800663a:	e7e2      	b.n	8006602 <USB_EPStartXfer+0x11a>
            PCD_SET_EP_DBUF0_CNT(USBx, ep->num, ep->is_in, len);
 800663c:	f200 4e02 	addw	lr, r0, #1026	@ 0x402
 8006640:	fa1e f282 	uxtah	r2, lr, r2
 8006644:	f822 303c 	strh.w	r3, [r2, ip, lsl #3]
            USB_WritePMA(USBx, ep->xfer_buff, pmabuffer, (uint16_t)len);
 8006648:	8922      	ldrh	r2, [r4, #8]
 800664a:	f7ff ff3e 	bl	80064ca <USB_WritePMA>
            if (ep->xfer_len_db > ep->maxpacket)
 800664e:	45b2      	cmp	sl, r6
            PCD_SET_EP_DBUF1_CNT(USBx, ep->num, ep->is_in, len);
 8006650:	7862      	ldrb	r2, [r4, #1]
            ep->xfer_buff += len;
 8006652:	f8c4 9014 	str.w	r9, [r4, #20]
              ep->xfer_len_db -= len;
 8006656:	bf36      	itet	cc
 8006658:	1bf3      	subcc	r3, r6, r7
              ep->xfer_len_db = 0U;
 800665a:	4643      	movcs	r3, r8
 800665c:	463e      	movcc	r6, r7
 800665e:	6223      	str	r3, [r4, #32]
            PCD_SET_EP_DBUF1_CNT(USBx, ep->num, ep->is_in, len);
 8006660:	b2b3      	uxth	r3, r6
 8006662:	bb62      	cbnz	r2, 80066be <USB_EPStartXfer+0x1d6>
 8006664:	f8b5 2050 	ldrh.w	r2, [r5, #80]	@ 0x50
 8006668:	7821      	ldrb	r1, [r4, #0]
 800666a:	f205 4006 	addw	r0, r5, #1030	@ 0x406
 800666e:	fa10 f282 	uxtah	r2, r0, r2
 8006672:	eb02 02c1 	add.w	r2, r2, r1, lsl #3
 8006676:	8811      	ldrh	r1, [r2, #0]
 8006678:	f3c1 0109 	ubfx	r1, r1, #0, #10
 800667c:	8011      	strh	r1, [r2, #0]
 800667e:	b92e      	cbnz	r6, 800668c <USB_EPStartXfer+0x1a4>
 8006680:	8811      	ldrh	r1, [r2, #0]
 8006682:	ea6f 4141 	mvn.w	r1, r1, lsl #17
 8006686:	ea6f 4151 	mvn.w	r1, r1, lsr #17
 800668a:	e009      	b.n	80066a0 <USB_EPStartXfer+0x1b8>
 800668c:	2e3e      	cmp	r6, #62	@ 0x3e
 800668e:	d80b      	bhi.n	80066a8 <USB_EPStartXfer+0x1c0>
 8006690:	8811      	ldrh	r1, [r2, #0]
 8006692:	0870      	lsrs	r0, r6, #1
 8006694:	07f6      	lsls	r6, r6, #31
 8006696:	bf48      	it	mi
 8006698:	3001      	addmi	r0, #1
 800669a:	b289      	uxth	r1, r1
 800669c:	ea41 2180 	orr.w	r1, r1, r0, lsl #10
 80066a0:	b289      	uxth	r1, r1
 80066a2:	8011      	strh	r1, [r2, #0]
            USB_WritePMA(USBx, ep->xfer_buff, pmabuffer, (uint16_t)len);
 80066a4:	8962      	ldrh	r2, [r4, #10]
 80066a6:	e7ad      	b.n	8006604 <USB_EPStartXfer+0x11c>
            PCD_SET_EP_DBUF1_CNT(USBx, ep->num, ep->is_in, len);
 80066a8:	06f1      	lsls	r1, r6, #27
 80066aa:	8811      	ldrh	r1, [r2, #0]
 80066ac:	ea4f 1056 	mov.w	r0, r6, lsr #5
 80066b0:	bf08      	it	eq
 80066b2:	f100 30ff 	addeq.w	r0, r0, #4294967295	@ 0xffffffff
 80066b6:	b289      	uxth	r1, r1
 80066b8:	ea41 2180 	orr.w	r1, r1, r0, lsl #10
 80066bc:	e7e1      	b.n	8006682 <USB_EPStartXfer+0x19a>
 80066be:	2a01      	cmp	r2, #1
 80066c0:	d1f0      	bne.n	80066a4 <USB_EPStartXfer+0x1bc>
 80066c2:	f8b5 2050 	ldrh.w	r2, [r5, #80]	@ 0x50
 80066c6:	7821      	ldrb	r1, [r4, #0]
 80066c8:	f205 4006 	addw	r0, r5, #1030	@ 0x406
 80066cc:	fa10 f282 	uxtah	r2, r0, r2
 80066d0:	eb02 02c1 	add.w	r2, r2, r1, lsl #3
 80066d4:	8013      	strh	r3, [r2, #0]
 80066d6:	e7e5      	b.n	80066a4 <USB_EPStartXfer+0x1bc>
          PCD_CLEAR_BULK_EP_DBUF(USBx, ep->num);
 80066d8:	f422 42e2 	bic.w	r2, r2, #28928	@ 0x7100
 80066dc:	f022 0270 	bic.w	r2, r2, #112	@ 0x70
 80066e0:	0412      	lsls	r2, r2, #16
 80066e2:	0c12      	lsrs	r2, r2, #16
 80066e4:	f442 4200 	orr.w	r2, r2, #32768	@ 0x8000
 80066e8:	f042 0280 	orr.w	r2, r2, #128	@ 0x80
 80066ec:	f820 202c 	strh.w	r2, [r0, ip, lsl #2]
          PCD_SET_EP_TX_CNT(USBx, ep->num, len);
 80066f0:	f8b0 2050 	ldrh.w	r2, [r0, #80]	@ 0x50
 80066f4:	f200 4302 	addw	r3, r0, #1026	@ 0x402
 80066f8:	fa13 f282 	uxtah	r2, r3, r2
 80066fc:	b2b3      	uxth	r3, r6
          PCD_SET_EP_DBUF0_CNT(USBx, ep->num, ep->is_in, len);
 80066fe:	f822 303c 	strh.w	r3, [r2, ip, lsl #3]
          USB_WritePMA(USBx, ep->xfer_buff, pmabuffer, (uint16_t)len);
 8006702:	8922      	ldrh	r2, [r4, #8]
 8006704:	e780      	b.n	8006608 <USB_EPStartXfer+0x120>
        if ((PCD_GET_ENDPOINT(USBx, ep->num) & USB_EP_DTOG_TX) != 0U)
 8006706:	f830 202c 	ldrh.w	r2, [r0, ip, lsl #2]
        ep->xfer_len_db -= len;
 800670a:	1bf6      	subs	r6, r6, r7
        if ((PCD_GET_ENDPOINT(USBx, ep->num) & USB_EP_DTOG_TX) != 0U)
 800670c:	f012 0f40 	tst.w	r2, #64	@ 0x40
        ep->xfer_len_db -= len;
 8006710:	6226      	str	r6, [r4, #32]
          PCD_SET_EP_DBUF1_CNT(USBx, ep->num, ep->is_in, len);
 8006712:	f8b0 2050 	ldrh.w	r2, [r0, #80]	@ 0x50
      USB_WritePMA(USBx, ep->xfer_buff, ep->pmaadress, (uint16_t)len);
 8006716:	b2bb      	uxth	r3, r7
        if ((PCD_GET_ENDPOINT(USBx, ep->num) & USB_EP_DTOG_TX) != 0U)
 8006718:	d007      	beq.n	800672a <USB_EPStartXfer+0x242>
          PCD_SET_EP_DBUF1_CNT(USBx, ep->num, ep->is_in, len);
 800671a:	f200 4606 	addw	r6, r0, #1030	@ 0x406
 800671e:	fa16 f282 	uxtah	r2, r6, r2
 8006722:	f822 303c 	strh.w	r3, [r2, ip, lsl #3]
          USB_WritePMA(USBx, ep->xfer_buff, pmabuffer, (uint16_t)len);
 8006726:	8962      	ldrh	r2, [r4, #10]
 8006728:	e76e      	b.n	8006608 <USB_EPStartXfer+0x120>
          PCD_SET_EP_DBUF0_CNT(USBx, ep->num, ep->is_in, len);
 800672a:	f200 4602 	addw	r6, r0, #1026	@ 0x402
 800672e:	fa16 f282 	uxtah	r2, r6, r2
 8006732:	e7e4      	b.n	80066fe <USB_EPStartXfer+0x216>
    if (ep->doublebuffer == 0U)
 8006734:	bba2      	cbnz	r2, 80067a0 <USB_EPStartXfer+0x2b8>
      if ((ep->xfer_len == 0U) && (ep->type == EP_TYPE_CTRL))
 8006736:	698a      	ldr	r2, [r1, #24]
        PCD_SET_OUT_STATUS(USBx, ep->num);
 8006738:	7809      	ldrb	r1, [r1, #0]
      if ((ep->xfer_len == 0U) && (ep->type == EP_TYPE_CTRL))
 800673a:	b992      	cbnz	r2, 8006762 <USB_EPStartXfer+0x27a>
 800673c:	78e3      	ldrb	r3, [r4, #3]
 800673e:	b983      	cbnz	r3, 8006762 <USB_EPStartXfer+0x27a>
        PCD_SET_OUT_STATUS(USBx, ep->num);
 8006740:	f830 3021 	ldrh.w	r3, [r0, r1, lsl #2]
 8006744:	f423 43e0 	bic.w	r3, r3, #28672	@ 0x7000
 8006748:	f023 0370 	bic.w	r3, r3, #112	@ 0x70
 800674c:	041b      	lsls	r3, r3, #16
 800674e:	0c1b      	lsrs	r3, r3, #16
 8006750:	f443 4301 	orr.w	r3, r3, #33024	@ 0x8100
 8006754:	f043 0380 	orr.w	r3, r3, #128	@ 0x80
 8006758:	f820 3021 	strh.w	r3, [r0, r1, lsl #2]
        ep->xfer_len = 0U;
 800675c:	2300      	movs	r3, #0
 800675e:	61a3      	str	r3, [r4, #24]
 8006760:	e012      	b.n	8006788 <USB_EPStartXfer+0x2a0>
        PCD_CLEAR_OUT_STATUS(USBx, ep->num);
 8006762:	f835 3021 	ldrh.w	r3, [r5, r1, lsl #2]
 8006766:	f423 43e2 	bic.w	r3, r3, #28928	@ 0x7100
 800676a:	f023 0370 	bic.w	r3, r3, #112	@ 0x70
 800676e:	041b      	lsls	r3, r3, #16
 8006770:	0c1b      	lsrs	r3, r3, #16
 8006772:	f443 4300 	orr.w	r3, r3, #32768	@ 0x8000
 8006776:	f043 0380 	orr.w	r3, r3, #128	@ 0x80
 800677a:	f825 3021 	strh.w	r3, [r5, r1, lsl #2]
      if (ep->xfer_len > ep->maxpacket)
 800677e:	6923      	ldr	r3, [r4, #16]
 8006780:	429a      	cmp	r2, r3
 8006782:	d9eb      	bls.n	800675c <USB_EPStartXfer+0x274>
        ep->xfer_len -= ep->maxpacket;
 8006784:	1ad2      	subs	r2, r2, r3
 8006786:	61a2      	str	r2, [r4, #24]
    PCD_SET_EP_RX_STATUS(USBx, ep->num, USB_EP_RX_VALID);
 8006788:	7822      	ldrb	r2, [r4, #0]
 800678a:	f835 3022 	ldrh.w	r3, [r5, r2, lsl #2]
 800678e:	f423 4380 	bic.w	r3, r3, #16384	@ 0x4000
 8006792:	f023 0370 	bic.w	r3, r3, #112	@ 0x70
 8006796:	041b      	lsls	r3, r3, #16
 8006798:	0c1b      	lsrs	r3, r3, #16
 800679a:	f483 5340 	eor.w	r3, r3, #12288	@ 0x3000
 800679e:	e6ce      	b.n	800653e <USB_EPStartXfer+0x56>
      if (ep->type == EP_TYPE_BULK)
 80067a0:	78cb      	ldrb	r3, [r1, #3]
 80067a2:	2b02      	cmp	r3, #2
 80067a4:	d11c      	bne.n	80067e0 <USB_EPStartXfer+0x2f8>
        if (ep->xfer_count != 0U)
 80067a6:	69cb      	ldr	r3, [r1, #28]
 80067a8:	2b00      	cmp	r3, #0
 80067aa:	d0ed      	beq.n	8006788 <USB_EPStartXfer+0x2a0>
          wEPVal = PCD_GET_ENDPOINT(USBx, ep->num);
 80067ac:	780a      	ldrb	r2, [r1, #0]
 80067ae:	f830 1022 	ldrh.w	r1, [r0, r2, lsl #2]
          if ((((wEPVal & USB_EP_DTOG_RX) != 0U) && ((wEPVal & USB_EP_DTOG_TX) != 0U)) ||
 80067b2:	f244 0340 	movw	r3, #16448	@ 0x4040
 80067b6:	ea03 0001 	and.w	r0, r3, r1
 80067ba:	438b      	bics	r3, r1
 80067bc:	d001      	beq.n	80067c2 <USB_EPStartXfer+0x2da>
 80067be:	2800      	cmp	r0, #0
 80067c0:	d1e2      	bne.n	8006788 <USB_EPStartXfer+0x2a0>
            PCD_FREE_USER_BUFFER(USBx, ep->num, 0U);
 80067c2:	f835 3022 	ldrh.w	r3, [r5, r2, lsl #2]
 80067c6:	f423 43e0 	bic.w	r3, r3, #28672	@ 0x7000
 80067ca:	f023 0370 	bic.w	r3, r3, #112	@ 0x70
 80067ce:	041b      	lsls	r3, r3, #16
 80067d0:	0c1b      	lsrs	r3, r3, #16
 80067d2:	f443 4300 	orr.w	r3, r3, #32768	@ 0x8000
 80067d6:	f043 03c0 	orr.w	r3, r3, #192	@ 0xc0
 80067da:	f825 3022 	strh.w	r3, [r5, r2, lsl #2]
 80067de:	e7d3      	b.n	8006788 <USB_EPStartXfer+0x2a0>
      else if (ep->type == EP_TYPE_ISOC)
 80067e0:	2b01      	cmp	r3, #1
 80067e2:	d0bb      	beq.n	800675c <USB_EPStartXfer+0x274>
        return HAL_ERROR;
 80067e4:	2001      	movs	r0, #1
 80067e6:	e6b1      	b.n	800654c <USB_EPStartXfer+0x64>

080067e8 <USB_ReadPMA>:
  uint32_t count;
  uint32_t RdVal;
  __IO uint16_t *pdwVal;
  uint8_t *pBuf = pbUsrBuf;

  pdwVal = (__IO uint16_t *)(BaseAddr + 0x400U + ((uint32_t)wPMABufAddr * PMA_ACCESS));
 80067e8:	f502 6280 	add.w	r2, r2, #1024	@ 0x400
{
 80067ec:	b5f0      	push	{r4, r5, r6, r7, lr}
  pdwVal = (__IO uint16_t *)(BaseAddr + 0x400U + ((uint32_t)wPMABufAddr * PMA_ACCESS));
 80067ee:	4410      	add	r0, r2
  uint32_t n = (uint32_t)wNBytes >> 1;
 80067f0:	085d      	lsrs	r5, r3, #1

  for (count = n; count != 0U; count--)
 80067f2:	460c      	mov	r4, r1
 80067f4:	462e      	mov	r6, r5
 80067f6:	1a47      	subs	r7, r0, r1
 80067f8:	193a      	adds	r2, r7, r4
 80067fa:	3402      	adds	r4, #2
 80067fc:	b936      	cbnz	r6, 800680c <USB_ReadPMA+0x24>
#if PMA_ACCESS > 1U
    pdwVal++;
#endif /* PMA_ACCESS */
  }

  if ((wNBytes % 2U) != 0U)
 80067fe:	07db      	lsls	r3, r3, #31
  {
    RdVal = *pdwVal;
 8006800:	bf44      	itt	mi
 8006802:	f830 3015 	ldrhmi.w	r3, [r0, r5, lsl #1]
    *pBuf = (uint8_t)((RdVal >> 0) & 0xFFU);
 8006806:	f801 3015 	strbmi.w	r3, [r1, r5, lsl #1]
  }
}
 800680a:	bdf0      	pop	{r4, r5, r6, r7, pc}
    RdVal = *(__IO uint16_t *)pdwVal;
 800680c:	8812      	ldrh	r2, [r2, #0]
 800680e:	b292      	uxth	r2, r2
    *pBuf = (uint8_t)((RdVal >> 0) & 0xFFU);
 8006810:	f804 2c02 	strb.w	r2, [r4, #-2]
    *pBuf = (uint8_t)((RdVal >> 8) & 0xFFU);
 8006814:	0a12      	lsrs	r2, r2, #8
 8006816:	f804 2c01 	strb.w	r2, [r4, #-1]
  for (count = n; count != 0U; count--)
 800681a:	3e01      	subs	r6, #1
 800681c:	e7ec      	b.n	80067f8 <USB_ReadPMA+0x10>

0800681e <USBD_CDC_EP0_RxReady>:
  *         Handle EP0 Rx Ready event
  * @param  pdev: device instance
  * @retval status
  */
static uint8_t USBD_CDC_EP0_RxReady(USBD_HandleTypeDef *pdev)
{
 800681e:	b510      	push	{r4, lr}
  USBD_CDC_HandleTypeDef *hcdc = (USBD_CDC_HandleTypeDef *)pdev->pClassData;
 8006820:	f8d0 42bc 	ldr.w	r4, [r0, #700]	@ 0x2bc

  if (hcdc == NULL)
 8006824:	b18c      	cbz	r4, 800684a <USBD_CDC_EP0_RxReady+0x2c>
  {
    return (uint8_t)USBD_FAIL;
  }

  if ((pdev->pUserData != NULL) && (hcdc->CmdOpCode != 0xFFU))
 8006826:	f8d0 32c0 	ldr.w	r3, [r0, #704]	@ 0x2c0
 800682a:	b11b      	cbz	r3, 8006834 <USBD_CDC_EP0_RxReady+0x16>
 800682c:	f894 0200 	ldrb.w	r0, [r4, #512]	@ 0x200
 8006830:	28ff      	cmp	r0, #255	@ 0xff
 8006832:	d101      	bne.n	8006838 <USBD_CDC_EP0_RxReady+0x1a>
                                                      (uint8_t *)hcdc->data,
                                                      (uint16_t)hcdc->CmdLength);
    hcdc->CmdOpCode = 0xFFU;
  }

  return (uint8_t)USBD_OK;
 8006834:	2000      	movs	r0, #0
}
 8006836:	bd10      	pop	{r4, pc}
    ((USBD_CDC_ItfTypeDef *)pdev->pUserData)->Control(hcdc->CmdOpCode,
 8006838:	689b      	ldr	r3, [r3, #8]
 800683a:	f894 2201 	ldrb.w	r2, [r4, #513]	@ 0x201
 800683e:	4621      	mov	r1, r4
 8006840:	4798      	blx	r3
    hcdc->CmdOpCode = 0xFFU;
 8006842:	23ff      	movs	r3, #255	@ 0xff
 8006844:	f884 3200 	strb.w	r3, [r4, #512]	@ 0x200
 8006848:	e7f4      	b.n	8006834 <USBD_CDC_EP0_RxReady+0x16>
    return (uint8_t)USBD_FAIL;
 800684a:	2003      	movs	r0, #3
 800684c:	e7f3      	b.n	8006836 <USBD_CDC_EP0_RxReady+0x18>
	...

08006850 <USBD_CDC_GetFSCfgDesc>:
  * @param  length : pointer data length
  * @retval pointer to descriptor buffer
  */
static uint8_t *USBD_CDC_GetFSCfgDesc(uint16_t *length)
{
  *length = (uint16_t)sizeof(USBD_CDC_CfgFSDesc);
 8006850:	2343      	movs	r3, #67	@ 0x43
 8006852:	8003      	strh	r3, [r0, #0]

  return USBD_CDC_CfgFSDesc;
}
 8006854:	4800      	ldr	r0, [pc, #0]	@ (8006858 <USBD_CDC_GetFSCfgDesc+0x8>)
 8006856:	4770      	bx	lr
 8006858:	20000094 	.word	0x20000094

0800685c <USBD_CDC_GetHSCfgDesc>:
  * @param  length : pointer data length
  * @retval pointer to descriptor buffer
  */
static uint8_t *USBD_CDC_GetHSCfgDesc(uint16_t *length)
{
  *length = (uint16_t)sizeof(USBD_CDC_CfgHSDesc);
 800685c:	2343      	movs	r3, #67	@ 0x43
 800685e:	8003      	strh	r3, [r0, #0]

  return USBD_CDC_CfgHSDesc;
}
 8006860:	4800      	ldr	r0, [pc, #0]	@ (8006864 <USBD_CDC_GetHSCfgDesc+0x8>)
 8006862:	4770      	bx	lr
 8006864:	200000d8 	.word	0x200000d8

08006868 <USBD_CDC_GetOtherSpeedCfgDesc>:
  * @param  length : pointer data length
  * @retval pointer to descriptor buffer
  */
static uint8_t *USBD_CDC_GetOtherSpeedCfgDesc(uint16_t *length)
{
  *length = (uint16_t)sizeof(USBD_CDC_OtherSpeedCfgDesc);
 8006868:	2343      	movs	r3, #67	@ 0x43
 800686a:	8003      	strh	r3, [r0, #0]

  return USBD_CDC_OtherSpeedCfgDesc;
}
 800686c:	4800      	ldr	r0, [pc, #0]	@ (8006870 <USBD_CDC_GetOtherSpeedCfgDesc+0x8>)
 800686e:	4770      	bx	lr
 8006870:	20000050 	.word	0x20000050

08006874 <USBD_CDC_GetDeviceQualifierDescriptor>:
  * @param  length : pointer data length
  * @retval pointer to descriptor buffer
  */
uint8_t *USBD_CDC_GetDeviceQualifierDescriptor(uint16_t *length)
{
  *length = (uint16_t)sizeof(USBD_CDC_DeviceQualifierDesc);
 8006874:	230a      	movs	r3, #10
 8006876:	8003      	strh	r3, [r0, #0]

  return USBD_CDC_DeviceQualifierDesc;
}
 8006878:	4800      	ldr	r0, [pc, #0]	@ (800687c <USBD_CDC_GetDeviceQualifierDescriptor+0x8>)
 800687a:	4770      	bx	lr
 800687c:	20000154 	.word	0x20000154

08006880 <USBD_CDC_DataOut>:
{
 8006880:	b538      	push	{r3, r4, r5, lr}
  USBD_CDC_HandleTypeDef *hcdc = (USBD_CDC_HandleTypeDef *)pdev->pClassData;
 8006882:	f8d0 42bc 	ldr.w	r4, [r0, #700]	@ 0x2bc
{
 8006886:	4605      	mov	r5, r0
  if (pdev->pClassData == NULL)
 8006888:	b16c      	cbz	r4, 80068a6 <USBD_CDC_DataOut+0x26>
  hcdc->RxLength = USBD_LL_GetRxDataSize(pdev, epnum);
 800688a:	f000 ff4a 	bl	8007722 <USBD_LL_GetRxDataSize>
  ((USBD_CDC_ItfTypeDef *)pdev->pUserData)->Receive(hcdc->RxBuffer, &hcdc->RxLength);
 800688e:	f8d5 32c0 	ldr.w	r3, [r5, #704]	@ 0x2c0
  hcdc->RxLength = USBD_LL_GetRxDataSize(pdev, epnum);
 8006892:	f8c4 020c 	str.w	r0, [r4, #524]	@ 0x20c
  ((USBD_CDC_ItfTypeDef *)pdev->pUserData)->Receive(hcdc->RxBuffer, &hcdc->RxLength);
 8006896:	68db      	ldr	r3, [r3, #12]
 8006898:	f8d4 0204 	ldr.w	r0, [r4, #516]	@ 0x204
 800689c:	f504 7103 	add.w	r1, r4, #524	@ 0x20c
 80068a0:	4798      	blx	r3
  return (uint8_t)USBD_OK;
 80068a2:	2000      	movs	r0, #0
}
 80068a4:	bd38      	pop	{r3, r4, r5, pc}
    return (uint8_t)USBD_FAIL;
 80068a6:	2003      	movs	r0, #3
 80068a8:	e7fc      	b.n	80068a4 <USBD_CDC_DataOut+0x24>

080068aa <USBD_CDC_DataIn>:
{
 80068aa:	b5f8      	push	{r3, r4, r5, r6, r7, lr}
  if (pdev->pClassData == NULL)
 80068ac:	f8d0 52bc 	ldr.w	r5, [r0, #700]	@ 0x2bc
  PCD_HandleTypeDef *hpcd = pdev->pData;
 80068b0:	f8d0 72c4 	ldr.w	r7, [r0, #708]	@ 0x2c4
{
 80068b4:	4604      	mov	r4, r0
 80068b6:	460a      	mov	r2, r1
  if (pdev->pClassData == NULL)
 80068b8:	b315      	cbz	r5, 8006900 <USBD_CDC_DataIn+0x56>
  if ((pdev->ep_in[epnum].total_length > 0U) &&
 80068ba:	2614      	movs	r6, #20
 80068bc:	fb06 0601 	mla	r6, r6, r1, r0
 80068c0:	69b3      	ldr	r3, [r6, #24]
 80068c2:	b17b      	cbz	r3, 80068e4 <USBD_CDC_DataIn+0x3a>
      ((pdev->ep_in[epnum].total_length % hpcd->IN_ep[epnum].maxpacket) == 0U))
 80068c4:	f04f 0c28 	mov.w	ip, #40	@ 0x28
 80068c8:	fb0c 7701 	mla	r7, ip, r1, r7
 80068cc:	6a3f      	ldr	r7, [r7, #32]
 80068ce:	fbb3 fcf7 	udiv	ip, r3, r7
 80068d2:	fb07 331c 	mls	r3, r7, ip, r3
  if ((pdev->ep_in[epnum].total_length > 0U) &&
 80068d6:	b92b      	cbnz	r3, 80068e4 <USBD_CDC_DataIn+0x3a>
    pdev->ep_in[epnum].total_length = 0U;
 80068d8:	61b3      	str	r3, [r6, #24]
    (void)USBD_LL_Transmit(pdev, epnum, NULL, 0U);
 80068da:	461a      	mov	r2, r3
 80068dc:	f000 ff0f 	bl	80076fe <USBD_LL_Transmit>
  return (uint8_t)USBD_OK;
 80068e0:	2000      	movs	r0, #0
}
 80068e2:	bdf8      	pop	{r3, r4, r5, r6, r7, pc}
    hcdc->TxState = 0U;
 80068e4:	2300      	movs	r3, #0
 80068e6:	f8c5 3214 	str.w	r3, [r5, #532]	@ 0x214
    if (((USBD_CDC_ItfTypeDef *)pdev->pUserData)->TransmitCplt != NULL)
 80068ea:	f8d4 32c0 	ldr.w	r3, [r4, #704]	@ 0x2c0
 80068ee:	691b      	ldr	r3, [r3, #16]
 80068f0:	2b00      	cmp	r3, #0
 80068f2:	d0f5      	beq.n	80068e0 <USBD_CDC_DataIn+0x36>
      ((USBD_CDC_ItfTypeDef *)pdev->pUserData)->TransmitCplt(hcdc->TxBuffer, &hcdc->TxLength, epnum);
 80068f4:	f8d5 0208 	ldr.w	r0, [r5, #520]	@ 0x208
 80068f8:	f505 7104 	add.w	r1, r5, #528	@ 0x210
 80068fc:	4798      	blx	r3
 80068fe:	e7ef      	b.n	80068e0 <USBD_CDC_DataIn+0x36>
    return (uint8_t)USBD_FAIL;
 8006900:	2003      	movs	r0, #3
 8006902:	e7ee      	b.n	80068e2 <USBD_CDC_DataIn+0x38>

08006904 <USBD_CDC_Setup>:
{
 8006904:	b5f7      	push	{r0, r1, r2, r4, r5, r6, r7, lr}
  USBD_CDC_HandleTypeDef *hcdc = (USBD_CDC_HandleTypeDef *)pdev->pClassData;
 8006906:	f8d0 62bc 	ldr.w	r6, [r0, #700]	@ 0x2bc
  uint8_t ifalt = 0U;
 800690a:	2300      	movs	r3, #0
{
 800690c:	4604      	mov	r4, r0
 800690e:	460d      	mov	r5, r1
  uint8_t ifalt = 0U;
 8006910:	f88d 3005 	strb.w	r3, [sp, #5]
  uint16_t status_info = 0U;
 8006914:	f8ad 3006 	strh.w	r3, [sp, #6]
  if (hcdc == NULL)
 8006918:	2e00      	cmp	r6, #0
 800691a:	d05f      	beq.n	80069dc <USBD_CDC_Setup+0xd8>
  switch (req->bmRequest & USB_REQ_TYPE_MASK)
 800691c:	780f      	ldrb	r7, [r1, #0]
 800691e:	f017 0360 	ands.w	r3, r7, #96	@ 0x60
 8006922:	d025      	beq.n	8006970 <USBD_CDC_Setup+0x6c>
 8006924:	2b20      	cmp	r3, #32
 8006926:	d155      	bne.n	80069d4 <USBD_CDC_Setup+0xd0>
      if (req->wLength != 0U)
 8006928:	88ca      	ldrh	r2, [r1, #6]
          ((USBD_CDC_ItfTypeDef *)pdev->pUserData)->Control(req->bRequest,
 800692a:	784b      	ldrb	r3, [r1, #1]
      if (req->wLength != 0U)
 800692c:	b1d2      	cbz	r2, 8006964 <USBD_CDC_Setup+0x60>
        if ((req->bmRequest & 0x80U) != 0U)
 800692e:	0639      	lsls	r1, r7, #24
 8006930:	d50e      	bpl.n	8006950 <USBD_CDC_Setup+0x4c>
          ((USBD_CDC_ItfTypeDef *)pdev->pUserData)->Control(req->bRequest,
 8006932:	f8d0 12c0 	ldr.w	r1, [r0, #704]	@ 0x2c0
 8006936:	4618      	mov	r0, r3
 8006938:	688f      	ldr	r7, [r1, #8]
 800693a:	4631      	mov	r1, r6
 800693c:	47b8      	blx	r7
          len = MIN(CDC_REQ_MAX_DATA_SIZE, req->wLength);
 800693e:	88ea      	ldrh	r2, [r5, #6]
          (void)USBD_CtlSendData(pdev, (uint8_t *)hcdc->data, len);
 8006940:	2a07      	cmp	r2, #7
 8006942:	bf28      	it	cs
 8006944:	2207      	movcs	r2, #7
 8006946:	4631      	mov	r1, r6
            (void)USBD_CtlSendData(pdev, (uint8_t *)&status_info, 2U);
 8006948:	4620      	mov	r0, r4
 800694a:	f000 fc95 	bl	8007278 <USBD_CtlSendData>
 800694e:	e006      	b.n	800695e <USBD_CDC_Setup+0x5a>
          hcdc->CmdOpCode = req->bRequest;
 8006950:	f886 3200 	strb.w	r3, [r6, #512]	@ 0x200
          hcdc->CmdLength = (uint8_t)req->wLength;
 8006954:	f886 2201 	strb.w	r2, [r6, #513]	@ 0x201
          (void)USBD_CtlPrepareRx(pdev, (uint8_t *)hcdc->data, req->wLength);
 8006958:	4631      	mov	r1, r6
 800695a:	f000 fca2 	bl	80072a2 <USBD_CtlPrepareRx>
    return (uint8_t)USBD_FAIL;
 800695e:	2000      	movs	r0, #0
}
 8006960:	b003      	add	sp, #12
 8006962:	bdf0      	pop	{r4, r5, r6, r7, pc}
        ((USBD_CDC_ItfTypeDef *)pdev->pUserData)->Control(req->bRequest,
 8006964:	f8d0 02c0 	ldr.w	r0, [r0, #704]	@ 0x2c0
 8006968:	6884      	ldr	r4, [r0, #8]
 800696a:	4618      	mov	r0, r3
 800696c:	47a0      	blx	r4
 800696e:	e7f6      	b.n	800695e <USBD_CDC_Setup+0x5a>
      switch (req->bRequest)
 8006970:	784b      	ldrb	r3, [r1, #1]
 8006972:	2b0b      	cmp	r3, #11
 8006974:	d82e      	bhi.n	80069d4 <USBD_CDC_Setup+0xd0>
 8006976:	a201      	add	r2, pc, #4	@ (adr r2, 800697c <USBD_CDC_Setup+0x78>)
 8006978:	f852 f023 	ldr.w	pc, [r2, r3, lsl #2]
 800697c:	080069ad 	.word	0x080069ad
 8006980:	0800695f 	.word	0x0800695f
 8006984:	080069d5 	.word	0x080069d5
 8006988:	080069d5 	.word	0x080069d5
 800698c:	080069d5 	.word	0x080069d5
 8006990:	080069d5 	.word	0x080069d5
 8006994:	080069d5 	.word	0x080069d5
 8006998:	080069d5 	.word	0x080069d5
 800699c:	080069d5 	.word	0x080069d5
 80069a0:	080069d5 	.word	0x080069d5
 80069a4:	080069bd 	.word	0x080069bd
 80069a8:	080069cd 	.word	0x080069cd
          if (pdev->dev_state == USBD_STATE_CONFIGURED)
 80069ac:	f890 329c 	ldrb.w	r3, [r0, #668]	@ 0x29c
 80069b0:	2b03      	cmp	r3, #3
 80069b2:	d10f      	bne.n	80069d4 <USBD_CDC_Setup+0xd0>
            (void)USBD_CtlSendData(pdev, (uint8_t *)&status_info, 2U);
 80069b4:	2202      	movs	r2, #2
 80069b6:	f10d 0106 	add.w	r1, sp, #6
 80069ba:	e7c5      	b.n	8006948 <USBD_CDC_Setup+0x44>
          if (pdev->dev_state == USBD_STATE_CONFIGURED)
 80069bc:	f890 329c 	ldrb.w	r3, [r0, #668]	@ 0x29c
 80069c0:	2b03      	cmp	r3, #3
 80069c2:	d107      	bne.n	80069d4 <USBD_CDC_Setup+0xd0>
            (void)USBD_CtlSendData(pdev, &ifalt, 1U);
 80069c4:	2201      	movs	r2, #1
 80069c6:	f10d 0105 	add.w	r1, sp, #5
 80069ca:	e7bd      	b.n	8006948 <USBD_CDC_Setup+0x44>
          if (pdev->dev_state != USBD_STATE_CONFIGURED)
 80069cc:	f890 329c 	ldrb.w	r3, [r0, #668]	@ 0x29c
 80069d0:	2b03      	cmp	r3, #3
 80069d2:	d0c4      	beq.n	800695e <USBD_CDC_Setup+0x5a>
          USBD_CtlError(pdev, req);
 80069d4:	4629      	mov	r1, r5
 80069d6:	4620      	mov	r0, r4
 80069d8:	f000 fc27 	bl	800722a <USBD_CtlError>
    return (uint8_t)USBD_FAIL;
 80069dc:	2003      	movs	r0, #3
 80069de:	e7bf      	b.n	8006960 <USBD_CDC_Setup+0x5c>

080069e0 <USBD_CDC_DeInit>:
{
 80069e0:	b538      	push	{r3, r4, r5, lr}
 80069e2:	4604      	mov	r4, r0
  pdev->ep_in[CDC_IN_EP & 0xFU].is_used = 0U;
 80069e4:	2500      	movs	r5, #0
  (void)USBD_LL_CloseEP(pdev, CDC_IN_EP);
 80069e6:	2181      	movs	r1, #129	@ 0x81
 80069e8:	f000 fe53 	bl	8007692 <USBD_LL_CloseEP>
  (void)USBD_LL_CloseEP(pdev, CDC_OUT_EP);
 80069ec:	2101      	movs	r1, #1
  pdev->ep_in[CDC_IN_EP & 0xFU].is_used = 0U;
 80069ee:	8725      	strh	r5, [r4, #56]	@ 0x38
  (void)USBD_LL_CloseEP(pdev, CDC_OUT_EP);
 80069f0:	4620      	mov	r0, r4
 80069f2:	f000 fe4e 	bl	8007692 <USBD_LL_CloseEP>
  pdev->ep_out[CDC_OUT_EP & 0xFU].is_used = 0U;
 80069f6:	f8a4 5178 	strh.w	r5, [r4, #376]	@ 0x178
  (void)USBD_LL_CloseEP(pdev, CDC_CMD_EP);
 80069fa:	2182      	movs	r1, #130	@ 0x82
 80069fc:	4620      	mov	r0, r4
 80069fe:	f000 fe48 	bl	8007692 <USBD_LL_CloseEP>
  if (pdev->pClassData != NULL)
 8006a02:	f8d4 32bc 	ldr.w	r3, [r4, #700]	@ 0x2bc
  pdev->ep_in[CDC_CMD_EP & 0xFU].is_used = 0U;
 8006a06:	64e5      	str	r5, [r4, #76]	@ 0x4c
  if (pdev->pClassData != NULL)
 8006a08:	b14b      	cbz	r3, 8006a1e <USBD_CDC_DeInit+0x3e>
    ((USBD_CDC_ItfTypeDef *)pdev->pUserData)->DeInit();
 8006a0a:	f8d4 32c0 	ldr.w	r3, [r4, #704]	@ 0x2c0
 8006a0e:	685b      	ldr	r3, [r3, #4]
 8006a10:	4798      	blx	r3
    (void)USBD_free(pdev->pClassData);
 8006a12:	f8d4 02bc 	ldr.w	r0, [r4, #700]	@ 0x2bc
 8006a16:	f000 feb1 	bl	800777c <USBD_static_free>
    pdev->pClassData = NULL;
 8006a1a:	f8c4 52bc 	str.w	r5, [r4, #700]	@ 0x2bc
}
 8006a1e:	2000      	movs	r0, #0
 8006a20:	bd38      	pop	{r3, r4, r5, pc}

08006a22 <USBD_CDC_Init>:
{
 8006a22:	b570      	push	{r4, r5, r6, lr}
 8006a24:	4604      	mov	r4, r0
  hcdc = USBD_malloc(sizeof(USBD_CDC_HandleTypeDef));
 8006a26:	f44f 7007 	mov.w	r0, #540	@ 0x21c
 8006a2a:	f000 fea3 	bl	8007774 <USBD_static_malloc>
  if (hcdc == NULL)
 8006a2e:	4605      	mov	r5, r0
    pdev->pClassData = NULL;
 8006a30:	f8c4 02bc 	str.w	r0, [r4, #700]	@ 0x2bc
  if (hcdc == NULL)
 8006a34:	b908      	cbnz	r0, 8006a3a <USBD_CDC_Init+0x18>
    return (uint8_t)USBD_EMEM;
 8006a36:	2002      	movs	r0, #2
}
 8006a38:	bd70      	pop	{r4, r5, r6, pc}
  if (pdev->dev_speed == USBD_SPEED_HIGH)
 8006a3a:	7c23      	ldrb	r3, [r4, #16]
 8006a3c:	bb8b      	cbnz	r3, 8006aa2 <USBD_CDC_Init+0x80>
    (void)USBD_LL_OpenEP(pdev, CDC_IN_EP, USBD_EP_TYPE_BULK,
 8006a3e:	f44f 7300 	mov.w	r3, #512	@ 0x200
 8006a42:	2181      	movs	r1, #129	@ 0x81
 8006a44:	2202      	movs	r2, #2
 8006a46:	4620      	mov	r0, r4
 8006a48:	f000 fe17 	bl	800767a <USBD_LL_OpenEP>
    pdev->ep_in[CDC_IN_EP & 0xFU].is_used = 1U;
 8006a4c:	2101      	movs	r1, #1
 8006a4e:	8721      	strh	r1, [r4, #56]	@ 0x38
    (void)USBD_LL_OpenEP(pdev, CDC_OUT_EP, USBD_EP_TYPE_BULK,
 8006a50:	f44f 7300 	mov.w	r3, #512	@ 0x200
    (void)USBD_LL_OpenEP(pdev, CDC_OUT_EP, USBD_EP_TYPE_BULK,
 8006a54:	2202      	movs	r2, #2
 8006a56:	4620      	mov	r0, r4
 8006a58:	f000 fe0f 	bl	800767a <USBD_LL_OpenEP>
    pdev->ep_out[CDC_OUT_EP & 0xFU].is_used = 1U;
 8006a5c:	2601      	movs	r6, #1
    pdev->ep_in[CDC_CMD_EP & 0xFU].bInterval = CDC_HS_BINTERVAL;
 8006a5e:	2310      	movs	r3, #16
 8006a60:	f8a4 304e 	strh.w	r3, [r4, #78]	@ 0x4e
  (void)USBD_LL_OpenEP(pdev, CDC_CMD_EP, USBD_EP_TYPE_INTR, CDC_CMD_PACKET_SIZE);
 8006a64:	2203      	movs	r2, #3
 8006a66:	2308      	movs	r3, #8
 8006a68:	2182      	movs	r1, #130	@ 0x82
    pdev->ep_out[CDC_OUT_EP & 0xFU].is_used = 1U;
 8006a6a:	f8a4 6178 	strh.w	r6, [r4, #376]	@ 0x178
  (void)USBD_LL_OpenEP(pdev, CDC_CMD_EP, USBD_EP_TYPE_INTR, CDC_CMD_PACKET_SIZE);
 8006a6e:	4620      	mov	r0, r4
 8006a70:	f000 fe03 	bl	800767a <USBD_LL_OpenEP>
  ((USBD_CDC_ItfTypeDef *)pdev->pUserData)->Init();
 8006a74:	f8d4 32c0 	ldr.w	r3, [r4, #704]	@ 0x2c0
  pdev->ep_in[CDC_CMD_EP & 0xFU].is_used = 1U;
 8006a78:	f8a4 604c 	strh.w	r6, [r4, #76]	@ 0x4c
  ((USBD_CDC_ItfTypeDef *)pdev->pUserData)->Init();
 8006a7c:	681b      	ldr	r3, [r3, #0]
 8006a7e:	4798      	blx	r3
  hcdc->TxState = 0U;
 8006a80:	2300      	movs	r3, #0
 8006a82:	f8c5 3214 	str.w	r3, [r5, #532]	@ 0x214
  hcdc->RxState = 0U;
 8006a86:	f8c5 3218 	str.w	r3, [r5, #536]	@ 0x218
  if (pdev->dev_speed == USBD_SPEED_HIGH)
 8006a8a:	7c23      	ldrb	r3, [r4, #16]
 8006a8c:	b99b      	cbnz	r3, 8006ab6 <USBD_CDC_Init+0x94>
    (void)USBD_LL_PrepareReceive(pdev, CDC_OUT_EP, hcdc->RxBuffer,
 8006a8e:	f44f 7300 	mov.w	r3, #512	@ 0x200
 8006a92:	f8d5 2204 	ldr.w	r2, [r5, #516]	@ 0x204
 8006a96:	4631      	mov	r1, r6
 8006a98:	4620      	mov	r0, r4
 8006a9a:	f000 fe39 	bl	8007710 <USBD_LL_PrepareReceive>
  return (uint8_t)USBD_OK;
 8006a9e:	2000      	movs	r0, #0
 8006aa0:	e7ca      	b.n	8006a38 <USBD_CDC_Init+0x16>
    (void)USBD_LL_OpenEP(pdev, CDC_IN_EP, USBD_EP_TYPE_BULK,
 8006aa2:	2340      	movs	r3, #64	@ 0x40
 8006aa4:	2181      	movs	r1, #129	@ 0x81
 8006aa6:	2202      	movs	r2, #2
 8006aa8:	4620      	mov	r0, r4
 8006aaa:	f000 fde6 	bl	800767a <USBD_LL_OpenEP>
    pdev->ep_in[CDC_IN_EP & 0xFU].is_used = 1U;
 8006aae:	2101      	movs	r1, #1
 8006ab0:	8721      	strh	r1, [r4, #56]	@ 0x38
    (void)USBD_LL_OpenEP(pdev, CDC_OUT_EP, USBD_EP_TYPE_BULK,
 8006ab2:	2340      	movs	r3, #64	@ 0x40
 8006ab4:	e7ce      	b.n	8006a54 <USBD_CDC_Init+0x32>
    (void)USBD_LL_PrepareReceive(pdev, CDC_OUT_EP, hcdc->RxBuffer,
 8006ab6:	2340      	movs	r3, #64	@ 0x40
 8006ab8:	e7eb      	b.n	8006a92 <USBD_CDC_Init+0x70>

08006aba <USBD_CDC_RegisterInterface>:
  * @retval status
  */
uint8_t USBD_CDC_RegisterInterface(USBD_HandleTypeDef *pdev,
                                   USBD_CDC_ItfTypeDef *fops)
{
  if (fops == NULL)
 8006aba:	b119      	cbz	r1, 8006ac4 <USBD_CDC_RegisterInterface+0xa>
  {
    return (uint8_t)USBD_FAIL;
  }

  pdev->pUserData = fops;
 8006abc:	f8c0 12c0 	str.w	r1, [r0, #704]	@ 0x2c0

  return (uint8_t)USBD_OK;
 8006ac0:	2000      	movs	r0, #0
 8006ac2:	4770      	bx	lr
    return (uint8_t)USBD_FAIL;
 8006ac4:	2003      	movs	r0, #3
}
 8006ac6:	4770      	bx	lr

08006ac8 <USBD_CDC_SetTxBuffer>:
  * @retval status
  */
uint8_t USBD_CDC_SetTxBuffer(USBD_HandleTypeDef *pdev,
                             uint8_t *pbuff, uint32_t length)
{
  USBD_CDC_HandleTypeDef *hcdc = (USBD_CDC_HandleTypeDef *)pdev->pClassData;
 8006ac8:	f8d0 32bc 	ldr.w	r3, [r0, #700]	@ 0x2bc

  if (hcdc == NULL)
 8006acc:	b12b      	cbz	r3, 8006ada <USBD_CDC_SetTxBuffer+0x12>
  {
    return (uint8_t)USBD_FAIL;
  }

  hcdc->TxBuffer = pbuff;
 8006ace:	f8c3 1208 	str.w	r1, [r3, #520]	@ 0x208
  hcdc->TxLength = length;
 8006ad2:	f8c3 2210 	str.w	r2, [r3, #528]	@ 0x210

  return (uint8_t)USBD_OK;
 8006ad6:	2000      	movs	r0, #0
 8006ad8:	4770      	bx	lr
    return (uint8_t)USBD_FAIL;
 8006ada:	2003      	movs	r0, #3
}
 8006adc:	4770      	bx	lr

08006ade <USBD_CDC_SetRxBuffer>:
  * @param  pbuff: Rx Buffer
  * @retval status
  */
uint8_t USBD_CDC_SetRxBuffer(USBD_HandleTypeDef *pdev, uint8_t *pbuff)
{
  USBD_CDC_HandleTypeDef *hcdc = (USBD_CDC_HandleTypeDef *)pdev->pClassData;
 8006ade:	f8d0 32bc 	ldr.w	r3, [r0, #700]	@ 0x2bc

  if (hcdc == NULL)
 8006ae2:	b11b      	cbz	r3, 8006aec <USBD_CDC_SetRxBuffer+0xe>
  {
    return (uint8_t)USBD_FAIL;
  }

  hcdc->RxBuffer = pbuff;
 8006ae4:	f8c3 1204 	str.w	r1, [r3, #516]	@ 0x204

  return (uint8_t)USBD_OK;
 8006ae8:	2000      	movs	r0, #0
 8006aea:	4770      	bx	lr
    return (uint8_t)USBD_FAIL;
 8006aec:	2003      	movs	r0, #3
}
 8006aee:	4770      	bx	lr

08006af0 <USBD_CDC_TransmitPacket>:
  * @param  pdev: device instance
  * @retval status
  */
uint8_t USBD_CDC_TransmitPacket(USBD_HandleTypeDef *pdev)
{
  USBD_CDC_HandleTypeDef *hcdc = (USBD_CDC_HandleTypeDef *)pdev->pClassData;
 8006af0:	f8d0 22bc 	ldr.w	r2, [r0, #700]	@ 0x2bc
{
 8006af4:	b510      	push	{r4, lr}
  USBD_StatusTypeDef ret = USBD_BUSY;

  if (pdev->pClassData == NULL)
 8006af6:	b17a      	cbz	r2, 8006b18 <USBD_CDC_TransmitPacket+0x28>
  {
    return (uint8_t)USBD_FAIL;
  }

  if (hcdc->TxState == 0U)
 8006af8:	f8d2 4214 	ldr.w	r4, [r2, #532]	@ 0x214
 8006afc:	2301      	movs	r3, #1
 8006afe:	b96c      	cbnz	r4, 8006b1c <USBD_CDC_TransmitPacket+0x2c>
  {
    /* Tx Transfer in progress */
    hcdc->TxState = 1U;
 8006b00:	f8c2 3214 	str.w	r3, [r2, #532]	@ 0x214

    /* Update the packet total length */
    pdev->ep_in[CDC_IN_EP & 0xFU].total_length = hcdc->TxLength;
 8006b04:	f8d2 3210 	ldr.w	r3, [r2, #528]	@ 0x210
 8006b08:	62c3      	str	r3, [r0, #44]	@ 0x2c

    /* Transmit next packet */
    (void)USBD_LL_Transmit(pdev, CDC_IN_EP, hcdc->TxBuffer, hcdc->TxLength);
 8006b0a:	f8d2 2208 	ldr.w	r2, [r2, #520]	@ 0x208
 8006b0e:	2181      	movs	r1, #129	@ 0x81
 8006b10:	f000 fdf5 	bl	80076fe <USBD_LL_Transmit>

    ret = USBD_OK;
 8006b14:	4620      	mov	r0, r4
  }

  return (uint8_t)ret;
}
 8006b16:	bd10      	pop	{r4, pc}
    return (uint8_t)USBD_FAIL;
 8006b18:	2003      	movs	r0, #3
 8006b1a:	e7fc      	b.n	8006b16 <USBD_CDC_TransmitPacket+0x26>
  USBD_StatusTypeDef ret = USBD_BUSY;
 8006b1c:	4618      	mov	r0, r3
 8006b1e:	e7fa      	b.n	8006b16 <USBD_CDC_TransmitPacket+0x26>

08006b20 <USBD_CDC_ReceivePacket>:
  * @param  pdev: device instance
  * @retval status
  */
uint8_t USBD_CDC_ReceivePacket(USBD_HandleTypeDef *pdev)
{
  USBD_CDC_HandleTypeDef *hcdc = (USBD_CDC_HandleTypeDef *)pdev->pClassData;
 8006b20:	f8d0 22bc 	ldr.w	r2, [r0, #700]	@ 0x2bc
{
 8006b24:	b508      	push	{r3, lr}

  if (pdev->pClassData == NULL)
 8006b26:	b162      	cbz	r2, 8006b42 <USBD_CDC_ReceivePacket+0x22>
  {
    return (uint8_t)USBD_FAIL;
  }

  if (pdev->dev_speed == USBD_SPEED_HIGH)
 8006b28:	7c03      	ldrb	r3, [r0, #16]
  {
    /* Prepare Out endpoint to receive next packet */
    (void)USBD_LL_PrepareReceive(pdev, CDC_OUT_EP, hcdc->RxBuffer,
 8006b2a:	f8d2 2204 	ldr.w	r2, [r2, #516]	@ 0x204
  if (pdev->dev_speed == USBD_SPEED_HIGH)
 8006b2e:	b933      	cbnz	r3, 8006b3e <USBD_CDC_ReceivePacket+0x1e>
    (void)USBD_LL_PrepareReceive(pdev, CDC_OUT_EP, hcdc->RxBuffer,
 8006b30:	f44f 7300 	mov.w	r3, #512	@ 0x200
 8006b34:	2101      	movs	r1, #1
 8006b36:	f000 fdeb 	bl	8007710 <USBD_LL_PrepareReceive>
    /* Prepare Out endpoint to receive next packet */
    (void)USBD_LL_PrepareReceive(pdev, CDC_OUT_EP, hcdc->RxBuffer,
                                 CDC_DATA_FS_OUT_PACKET_SIZE);
  }

  return (uint8_t)USBD_OK;
 8006b3a:	2000      	movs	r0, #0
}
 8006b3c:	bd08      	pop	{r3, pc}
    (void)USBD_LL_PrepareReceive(pdev, CDC_OUT_EP, hcdc->RxBuffer,
 8006b3e:	2340      	movs	r3, #64	@ 0x40
 8006b40:	e7f8      	b.n	8006b34 <USBD_CDC_ReceivePacket+0x14>
    return (uint8_t)USBD_FAIL;
 8006b42:	2003      	movs	r0, #3
 8006b44:	e7fa      	b.n	8006b3c <USBD_CDC_ReceivePacket+0x1c>

08006b46 <USBD_Init>:
                             USBD_DescriptorsTypeDef *pdesc, uint8_t id)
{
  USBD_StatusTypeDef ret;

  /* Check whether the USB Host handle is valid */
  if (pdev == NULL)
 8006b46:	b178      	cbz	r0, 8006b68 <USBD_Init+0x22>
#endif
    return USBD_FAIL;
  }

  /* Unlink previous class resources */
  pdev->pClass = NULL;
 8006b48:	2300      	movs	r3, #0
 8006b4a:	f8c0 32b8 	str.w	r3, [r0, #696]	@ 0x2b8
  pdev->pUserData = NULL;
 8006b4e:	f8c0 32c0 	str.w	r3, [r0, #704]	@ 0x2c0
  pdev->pConfDesc = NULL;
 8006b52:	f8c0 32cc 	str.w	r3, [r0, #716]	@ 0x2cc

  /* Assign USBD Descriptors */
  if (pdesc != NULL)
 8006b56:	b109      	cbz	r1, 8006b5c <USBD_Init+0x16>
  {
    pdev->pDesc = pdesc;
 8006b58:	f8c0 12b4 	str.w	r1, [r0, #692]	@ 0x2b4
  }

  /* Set Device initial State */
  pdev->dev_state = USBD_STATE_DEFAULT;
 8006b5c:	2301      	movs	r3, #1
 8006b5e:	f880 329c 	strb.w	r3, [r0, #668]	@ 0x29c
  pdev->id = id;
 8006b62:	7002      	strb	r2, [r0, #0]

  /* Initialize low level driver */
  ret = USBD_LL_Init(pdev);
 8006b64:	f000 bd40 	b.w	80075e8 <USBD_LL_Init>

  return ret;
}
 8006b68:	2003      	movs	r0, #3
 8006b6a:	4770      	bx	lr

08006b6c <USBD_RegisterClass>:
  * @param  pDevice : Device Handle
  * @param  pclass: Class handle
  * @retval USBD Status
  */
USBD_StatusTypeDef USBD_RegisterClass(USBD_HandleTypeDef *pdev, USBD_ClassTypeDef *pclass)
{
 8006b6c:	b513      	push	{r0, r1, r4, lr}
  uint16_t len = 0U;
 8006b6e:	2300      	movs	r3, #0
{
 8006b70:	4604      	mov	r4, r0
  uint16_t len = 0U;
 8006b72:	f8ad 3006 	strh.w	r3, [sp, #6]

  if (pclass == NULL)
 8006b76:	b161      	cbz	r1, 8006b92 <USBD_RegisterClass+0x26>
  if (pdev->pClass->GetHSConfigDescriptor != NULL)
  {
    pdev->pConfDesc = (void *)pdev->pClass->GetHSConfigDescriptor(&len);
  }
#else /* Default USE_USB_FS */
  if (pdev->pClass->GetFSConfigDescriptor != NULL)
 8006b78:	6acb      	ldr	r3, [r1, #44]	@ 0x2c
  pdev->pClass = pclass;
 8006b7a:	f8c0 12b8 	str.w	r1, [r0, #696]	@ 0x2b8
  if (pdev->pClass->GetFSConfigDescriptor != NULL)
 8006b7e:	b913      	cbnz	r3, 8006b86 <USBD_RegisterClass+0x1a>
  {
    pdev->pConfDesc = (void *)pdev->pClass->GetFSConfigDescriptor(&len);
  }
#endif /* USE_USB_FS */

  return USBD_OK;
 8006b80:	2000      	movs	r0, #0
}
 8006b82:	b002      	add	sp, #8
 8006b84:	bd10      	pop	{r4, pc}
    pdev->pConfDesc = (void *)pdev->pClass->GetFSConfigDescriptor(&len);
 8006b86:	f10d 0006 	add.w	r0, sp, #6
 8006b8a:	4798      	blx	r3
 8006b8c:	f8c4 02cc 	str.w	r0, [r4, #716]	@ 0x2cc
 8006b90:	e7f6      	b.n	8006b80 <USBD_RegisterClass+0x14>
    return USBD_FAIL;
 8006b92:	2003      	movs	r0, #3
 8006b94:	e7f5      	b.n	8006b82 <USBD_RegisterClass+0x16>

08006b96 <USBD_Start>:
  * @retval USBD Status
  */
USBD_StatusTypeDef USBD_Start(USBD_HandleTypeDef *pdev)
{
  /* Start the low level driver  */
  return USBD_LL_Start(pdev);
 8006b96:	f000 bd67 	b.w	8007668 <USBD_LL_Start>

08006b9a <USBD_SetClassConfig>:

USBD_StatusTypeDef USBD_SetClassConfig(USBD_HandleTypeDef *pdev, uint8_t cfgidx)
{
  USBD_StatusTypeDef ret = USBD_FAIL;

  if (pdev->pClass != NULL)
 8006b9a:	f8d0 32b8 	ldr.w	r3, [r0, #696]	@ 0x2b8
 8006b9e:	b10b      	cbz	r3, 8006ba4 <USBD_SetClassConfig+0xa>
  {
    /* Set configuration and Start the Class */
    ret = (USBD_StatusTypeDef)pdev->pClass->Init(pdev, cfgidx);
 8006ba0:	681b      	ldr	r3, [r3, #0]
 8006ba2:	4718      	bx	r3
  }

  return ret;
}
 8006ba4:	2003      	movs	r0, #3
 8006ba6:	4770      	bx	lr

08006ba8 <USBD_ClrClassConfig>:
  * @param  pdev: device instance
  * @param  cfgidx: configuration index
  * @retval status: USBD_StatusTypeDef
  */
USBD_StatusTypeDef USBD_ClrClassConfig(USBD_HandleTypeDef *pdev, uint8_t cfgidx)
{
 8006ba8:	b508      	push	{r3, lr}
  /* Clear configuration and De-initialize the Class process */
  if (pdev->pClass != NULL)
 8006baa:	f8d0 32b8 	ldr.w	r3, [r0, #696]	@ 0x2b8
 8006bae:	b10b      	cbz	r3, 8006bb4 <USBD_ClrClassConfig+0xc>
  {
    pdev->pClass->DeInit(pdev, cfgidx);
 8006bb0:	685b      	ldr	r3, [r3, #4]
 8006bb2:	4798      	blx	r3
  }

  return USBD_OK;
}
 8006bb4:	2000      	movs	r0, #0
 8006bb6:	bd08      	pop	{r3, pc}

08006bb8 <USBD_LL_SetupStage>:
  *         Handle the setup stage
  * @param  pdev: device instance
  * @retval status
  */
USBD_StatusTypeDef USBD_LL_SetupStage(USBD_HandleTypeDef *pdev, uint8_t *psetup)
{
 8006bb8:	b538      	push	{r3, r4, r5, lr}
 8006bba:	4604      	mov	r4, r0
  USBD_StatusTypeDef ret;

  USBD_ParseSetupRequest(&pdev->request, psetup);
 8006bbc:	f200 25aa 	addw	r5, r0, #682	@ 0x2aa
 8006bc0:	4628      	mov	r0, r5
 8006bc2:	f000 fb27 	bl	8007214 <USBD_ParseSetupRequest>

  pdev->ep0_state = USBD_EP0_SETUP;
 8006bc6:	2301      	movs	r3, #1

  pdev->ep0_data_len = pdev->request.wLength;

  switch (pdev->request.bmRequest & 0x1FU)
 8006bc8:	f894 12aa 	ldrb.w	r1, [r4, #682]	@ 0x2aa
  pdev->ep0_state = USBD_EP0_SETUP;
 8006bcc:	f8c4 3294 	str.w	r3, [r4, #660]	@ 0x294
  pdev->ep0_data_len = pdev->request.wLength;
 8006bd0:	f8b4 32b0 	ldrh.w	r3, [r4, #688]	@ 0x2b0
 8006bd4:	f8c4 3298 	str.w	r3, [r4, #664]	@ 0x298
  switch (pdev->request.bmRequest & 0x1FU)
 8006bd8:	f001 031f 	and.w	r3, r1, #31
 8006bdc:	2b01      	cmp	r3, #1
 8006bde:	d008      	beq.n	8006bf2 <USBD_LL_SetupStage+0x3a>
 8006be0:	2b02      	cmp	r3, #2
 8006be2:	d00c      	beq.n	8006bfe <USBD_LL_SetupStage+0x46>
 8006be4:	b98b      	cbnz	r3, 8006c0a <USBD_LL_SetupStage+0x52>
  {
    case USB_REQ_RECIPIENT_DEVICE:
      ret = USBD_StdDevReq(pdev, &pdev->request);
 8006be6:	4629      	mov	r1, r5
 8006be8:	4620      	mov	r0, r4
      ret = USBD_LL_StallEP(pdev, (pdev->request.bmRequest & 0x80U));
      break;
  }

  return ret;
}
 8006bea:	e8bd 4038 	ldmia.w	sp!, {r3, r4, r5, lr}
      ret = USBD_StdDevReq(pdev, &pdev->request);
 8006bee:	f000 b8ef 	b.w	8006dd0 <USBD_StdDevReq>
      ret = USBD_StdItfReq(pdev, &pdev->request);
 8006bf2:	4629      	mov	r1, r5
 8006bf4:	4620      	mov	r0, r4
}
 8006bf6:	e8bd 4038 	ldmia.w	sp!, {r3, r4, r5, lr}
      ret = USBD_StdItfReq(pdev, &pdev->request);
 8006bfa:	f000 ba53 	b.w	80070a4 <USBD_StdItfReq>
      ret = USBD_StdEPReq(pdev, &pdev->request);
 8006bfe:	4629      	mov	r1, r5
 8006c00:	4620      	mov	r0, r4
}
 8006c02:	e8bd 4038 	ldmia.w	sp!, {r3, r4, r5, lr}
      ret = USBD_StdEPReq(pdev, &pdev->request);
 8006c06:	f000 ba73 	b.w	80070f0 <USBD_StdEPReq>
      ret = USBD_LL_StallEP(pdev, (pdev->request.bmRequest & 0x80U));
 8006c0a:	4620      	mov	r0, r4
 8006c0c:	f001 0180 	and.w	r1, r1, #128	@ 0x80
}
 8006c10:	e8bd 4038 	ldmia.w	sp!, {r3, r4, r5, lr}
      ret = USBD_LL_StallEP(pdev, (pdev->request.bmRequest & 0x80U));
 8006c14:	f000 bd46 	b.w	80076a4 <USBD_LL_StallEP>

08006c18 <USBD_LL_DataOutStage>:
  * @param  pdata: data pointer
  * @retval status
  */
USBD_StatusTypeDef USBD_LL_DataOutStage(USBD_HandleTypeDef *pdev,
                                        uint8_t epnum, uint8_t *pdata)
{
 8006c18:	b570      	push	{r4, r5, r6, lr}
 8006c1a:	4604      	mov	r4, r0
 8006c1c:	4615      	mov	r5, r2
  USBD_EndpointTypeDef *pep;
  USBD_StatusTypeDef ret;

  if (epnum == 0U)
 8006c1e:	b9f9      	cbnz	r1, 8006c60 <USBD_LL_DataOutStage+0x48>
  {
    pep = &pdev->ep_out[0];

    if (pdev->ep0_state == USBD_EP0_DATA_OUT)
 8006c20:	f8d0 3294 	ldr.w	r3, [r0, #660]	@ 0x294
 8006c24:	2b03      	cmp	r3, #3
 8006c26:	d10c      	bne.n	8006c42 <USBD_LL_DataOutStage+0x2a>
    {
      if (pep->rem_length > pep->maxpacket)
 8006c28:	e9d0 3257 	ldrd	r3, r2, [r0, #348]	@ 0x15c
 8006c2c:	4293      	cmp	r3, r2
 8006c2e:	d90a      	bls.n	8006c46 <USBD_LL_DataOutStage+0x2e>
      {
        pep->rem_length -= pep->maxpacket;
 8006c30:	1a9b      	subs	r3, r3, r2

        (void)USBD_CtlContinueRx(pdev, pdata, MIN(pep->rem_length, pep->maxpacket));
 8006c32:	429a      	cmp	r2, r3
        pep->rem_length -= pep->maxpacket;
 8006c34:	f8c0 315c 	str.w	r3, [r0, #348]	@ 0x15c
        (void)USBD_CtlContinueRx(pdev, pdata, MIN(pep->rem_length, pep->maxpacket));
 8006c38:	bf28      	it	cs
 8006c3a:	461a      	movcs	r2, r3
 8006c3c:	4629      	mov	r1, r5
 8006c3e:	f000 fb3d 	bl	80072bc <USBD_CtlContinueRx>
      }
    }
  }

  return USBD_OK;
}
 8006c42:	2000      	movs	r0, #0
 8006c44:	bd70      	pop	{r4, r5, r6, pc}
        if (pdev->dev_state == USBD_STATE_CONFIGURED)
 8006c46:	f890 329c 	ldrb.w	r3, [r0, #668]	@ 0x29c
 8006c4a:	2b03      	cmp	r3, #3
 8006c4c:	d104      	bne.n	8006c58 <USBD_LL_DataOutStage+0x40>
          if (pdev->pClass->EP0_RxReady != NULL)
 8006c4e:	f8d0 32b8 	ldr.w	r3, [r0, #696]	@ 0x2b8
 8006c52:	691b      	ldr	r3, [r3, #16]
 8006c54:	b103      	cbz	r3, 8006c58 <USBD_LL_DataOutStage+0x40>
            pdev->pClass->EP0_RxReady(pdev);
 8006c56:	4798      	blx	r3
        (void)USBD_CtlSendStatus(pdev);
 8006c58:	4620      	mov	r0, r4
 8006c5a:	f000 fb37 	bl	80072cc <USBD_CtlSendStatus>
 8006c5e:	e7f0      	b.n	8006c42 <USBD_LL_DataOutStage+0x2a>
    if (pdev->dev_state == USBD_STATE_CONFIGURED)
 8006c60:	f890 329c 	ldrb.w	r3, [r0, #668]	@ 0x29c
 8006c64:	2b03      	cmp	r3, #3
 8006c66:	d1ec      	bne.n	8006c42 <USBD_LL_DataOutStage+0x2a>
      if (pdev->pClass->DataOut != NULL)
 8006c68:	f8d0 32b8 	ldr.w	r3, [r0, #696]	@ 0x2b8
 8006c6c:	699b      	ldr	r3, [r3, #24]
 8006c6e:	2b00      	cmp	r3, #0
 8006c70:	d0e7      	beq.n	8006c42 <USBD_LL_DataOutStage+0x2a>
}
 8006c72:	e8bd 4070 	ldmia.w	sp!, {r4, r5, r6, lr}
        ret = (USBD_StatusTypeDef)pdev->pClass->DataOut(pdev, epnum);
 8006c76:	4718      	bx	r3

08006c78 <USBD_LL_DataInStage>:
  * @param  epnum: endpoint index
  * @retval status
  */
USBD_StatusTypeDef USBD_LL_DataInStage(USBD_HandleTypeDef *pdev,
                                       uint8_t epnum, uint8_t *pdata)
{
 8006c78:	b570      	push	{r4, r5, r6, lr}
 8006c7a:	4604      	mov	r4, r0
 8006c7c:	4616      	mov	r6, r2
  USBD_EndpointTypeDef *pep;
  USBD_StatusTypeDef ret;

  if (epnum == 0U)
 8006c7e:	460d      	mov	r5, r1
 8006c80:	bbd9      	cbnz	r1, 8006cfa <USBD_LL_DataInStage+0x82>
  {
    pep = &pdev->ep_in[0];

    if (pdev->ep0_state == USBD_EP0_DATA_IN)
 8006c82:	f8d0 3294 	ldr.w	r3, [r0, #660]	@ 0x294
 8006c86:	2b02      	cmp	r3, #2
 8006c88:	d10e      	bne.n	8006ca8 <USBD_LL_DataInStage+0x30>
    {
      if (pep->rem_length > pep->maxpacket)
 8006c8a:	e9d0 3207 	ldrd	r3, r2, [r0, #28]
 8006c8e:	4293      	cmp	r3, r2
 8006c90:	d913      	bls.n	8006cba <USBD_LL_DataInStage+0x42>
      {
        pep->rem_length -= pep->maxpacket;
 8006c92:	1a9a      	subs	r2, r3, r2
 8006c94:	61c2      	str	r2, [r0, #28]

        (void)USBD_CtlContinueSendData(pdev, pdata, pep->rem_length);
 8006c96:	4631      	mov	r1, r6
 8006c98:	f000 fafb 	bl	8007292 <USBD_CtlContinueSendData>
        {
          (void)USBD_CtlContinueSendData(pdev, NULL, 0U);
          pdev->ep0_data_len = 0U;

          /* Prepare endpoint for premature end of transfer */
          (void)USBD_LL_PrepareReceive(pdev, 0U, NULL, 0U);
 8006c9c:	462b      	mov	r3, r5
 8006c9e:	462a      	mov	r2, r5
 8006ca0:	4629      	mov	r1, r5
 8006ca2:	4620      	mov	r0, r4
 8006ca4:	f000 fd34 	bl	8007710 <USBD_LL_PrepareReceive>
        (void)USBD_LL_StallEP(pdev, 0x80U);
      }
#endif
    }

    if (pdev->dev_test_mode == 1U)
 8006ca8:	f894 32a0 	ldrb.w	r3, [r4, #672]	@ 0x2a0
 8006cac:	2b01      	cmp	r3, #1
 8006cae:	d102      	bne.n	8006cb6 <USBD_LL_DataInStage+0x3e>
    {
      (void)USBD_RunTestMode(pdev);
      pdev->dev_test_mode = 0U;
 8006cb0:	2300      	movs	r3, #0
 8006cb2:	f884 32a0 	strb.w	r3, [r4, #672]	@ 0x2a0
      }
    }
  }

  return USBD_OK;
}
 8006cb6:	2000      	movs	r0, #0
 8006cb8:	bd70      	pop	{r4, r5, r6, pc}
        if ((pep->maxpacket == pep->rem_length) &&
 8006cba:	d10c      	bne.n	8006cd6 <USBD_LL_DataInStage+0x5e>
            (pep->total_length >= pep->maxpacket) &&
 8006cbc:	6982      	ldr	r2, [r0, #24]
        if ((pep->maxpacket == pep->rem_length) &&
 8006cbe:	4293      	cmp	r3, r2
 8006cc0:	d809      	bhi.n	8006cd6 <USBD_LL_DataInStage+0x5e>
            (pep->total_length >= pep->maxpacket) &&
 8006cc2:	f8d0 3298 	ldr.w	r3, [r0, #664]	@ 0x298
 8006cc6:	429a      	cmp	r2, r3
 8006cc8:	d205      	bcs.n	8006cd6 <USBD_LL_DataInStage+0x5e>
          (void)USBD_CtlContinueSendData(pdev, NULL, 0U);
 8006cca:	460a      	mov	r2, r1
 8006ccc:	f000 fae1 	bl	8007292 <USBD_CtlContinueSendData>
          pdev->ep0_data_len = 0U;
 8006cd0:	f8c4 5298 	str.w	r5, [r4, #664]	@ 0x298
 8006cd4:	e7e2      	b.n	8006c9c <USBD_LL_DataInStage+0x24>
          if (pdev->dev_state == USBD_STATE_CONFIGURED)
 8006cd6:	f894 329c 	ldrb.w	r3, [r4, #668]	@ 0x29c
 8006cda:	2b03      	cmp	r3, #3
 8006cdc:	d105      	bne.n	8006cea <USBD_LL_DataInStage+0x72>
            if (pdev->pClass->EP0_TxSent != NULL)
 8006cde:	f8d4 32b8 	ldr.w	r3, [r4, #696]	@ 0x2b8
 8006ce2:	68db      	ldr	r3, [r3, #12]
 8006ce4:	b10b      	cbz	r3, 8006cea <USBD_LL_DataInStage+0x72>
              pdev->pClass->EP0_TxSent(pdev);
 8006ce6:	4620      	mov	r0, r4
 8006ce8:	4798      	blx	r3
          (void)USBD_LL_StallEP(pdev, 0x80U);
 8006cea:	2180      	movs	r1, #128	@ 0x80
 8006cec:	4620      	mov	r0, r4
 8006cee:	f000 fcd9 	bl	80076a4 <USBD_LL_StallEP>
          (void)USBD_CtlReceiveStatus(pdev);
 8006cf2:	4620      	mov	r0, r4
 8006cf4:	f000 faf5 	bl	80072e2 <USBD_CtlReceiveStatus>
 8006cf8:	e7d6      	b.n	8006ca8 <USBD_LL_DataInStage+0x30>
    if (pdev->dev_state == USBD_STATE_CONFIGURED)
 8006cfa:	f890 329c 	ldrb.w	r3, [r0, #668]	@ 0x29c
 8006cfe:	2b03      	cmp	r3, #3
 8006d00:	d1d9      	bne.n	8006cb6 <USBD_LL_DataInStage+0x3e>
      if (pdev->pClass->DataIn != NULL)
 8006d02:	f8d0 32b8 	ldr.w	r3, [r0, #696]	@ 0x2b8
 8006d06:	695b      	ldr	r3, [r3, #20]
 8006d08:	2b00      	cmp	r3, #0
 8006d0a:	d0d4      	beq.n	8006cb6 <USBD_LL_DataInStage+0x3e>
}
 8006d0c:	e8bd 4070 	ldmia.w	sp!, {r4, r5, r6, lr}
        ret = (USBD_StatusTypeDef)pdev->pClass->DataIn(pdev, epnum);
 8006d10:	4718      	bx	r3

08006d12 <USBD_LL_Reset>:
  */

USBD_StatusTypeDef USBD_LL_Reset(USBD_HandleTypeDef *pdev)
{
  /* Upon Reset call user call back */
  pdev->dev_state = USBD_STATE_DEFAULT;
 8006d12:	2301      	movs	r3, #1
{
 8006d14:	b570      	push	{r4, r5, r6, lr}
  pdev->dev_state = USBD_STATE_DEFAULT;
 8006d16:	f880 329c 	strb.w	r3, [r0, #668]	@ 0x29c
  pdev->ep0_state = USBD_EP0_IDLE;
  pdev->dev_config = 0U;
  pdev->dev_remote_wakeup = 0U;

  if (pdev->pClass == NULL)
 8006d1a:	f8d0 32b8 	ldr.w	r3, [r0, #696]	@ 0x2b8
  pdev->ep0_state = USBD_EP0_IDLE;
 8006d1e:	2100      	movs	r1, #0
{
 8006d20:	4604      	mov	r4, r0
  pdev->ep0_state = USBD_EP0_IDLE;
 8006d22:	f8c0 1294 	str.w	r1, [r0, #660]	@ 0x294
  pdev->dev_config = 0U;
 8006d26:	6041      	str	r1, [r0, #4]
  pdev->dev_remote_wakeup = 0U;
 8006d28:	f8c0 12a4 	str.w	r1, [r0, #676]	@ 0x2a4
  if (pdev->pClass == NULL)
 8006d2c:	b1db      	cbz	r3, 8006d66 <USBD_LL_Reset+0x54>
  {
    return USBD_FAIL;
  }

  if (pdev->pClassData != NULL)
 8006d2e:	f8d0 22bc 	ldr.w	r2, [r0, #700]	@ 0x2bc
 8006d32:	b112      	cbz	r2, 8006d3a <USBD_LL_Reset+0x28>
  {
    if (pdev->pClass->DeInit != NULL)
 8006d34:	685b      	ldr	r3, [r3, #4]
 8006d36:	b103      	cbz	r3, 8006d3a <USBD_LL_Reset+0x28>
    {
      (void)pdev->pClass->DeInit(pdev, (uint8_t)pdev->dev_config);
 8006d38:	4798      	blx	r3
    }
  }

  /* Open EP0 OUT */
  (void)USBD_LL_OpenEP(pdev, 0x00U, USBD_EP_TYPE_CTRL, USB_MAX_EP0_SIZE);
 8006d3a:	2200      	movs	r2, #0
 8006d3c:	4611      	mov	r1, r2
  pdev->ep_out[0x00U & 0xFU].is_used = 1U;

  pdev->ep_out[0].maxpacket = USB_MAX_EP0_SIZE;
 8006d3e:	2540      	movs	r5, #64	@ 0x40
  (void)USBD_LL_OpenEP(pdev, 0x00U, USBD_EP_TYPE_CTRL, USB_MAX_EP0_SIZE);
 8006d40:	2340      	movs	r3, #64	@ 0x40
  pdev->ep_out[0x00U & 0xFU].is_used = 1U;
 8006d42:	2601      	movs	r6, #1
  (void)USBD_LL_OpenEP(pdev, 0x00U, USBD_EP_TYPE_CTRL, USB_MAX_EP0_SIZE);
 8006d44:	4620      	mov	r0, r4
 8006d46:	f000 fc98 	bl	800767a <USBD_LL_OpenEP>
  pdev->ep_out[0x00U & 0xFU].is_used = 1U;
 8006d4a:	f8a4 6164 	strh.w	r6, [r4, #356]	@ 0x164
  pdev->ep_out[0].maxpacket = USB_MAX_EP0_SIZE;
 8006d4e:	f8c4 5160 	str.w	r5, [r4, #352]	@ 0x160

  /* Open EP0 IN */
  (void)USBD_LL_OpenEP(pdev, 0x80U, USBD_EP_TYPE_CTRL, USB_MAX_EP0_SIZE);
 8006d52:	462b      	mov	r3, r5
 8006d54:	2200      	movs	r2, #0
 8006d56:	2180      	movs	r1, #128	@ 0x80
 8006d58:	4620      	mov	r0, r4
 8006d5a:	f000 fc8e 	bl	800767a <USBD_LL_OpenEP>
  pdev->ep_in[0x80U & 0xFU].is_used = 1U;
 8006d5e:	84a6      	strh	r6, [r4, #36]	@ 0x24

  pdev->ep_in[0].maxpacket = USB_MAX_EP0_SIZE;
 8006d60:	6225      	str	r5, [r4, #32]

  return USBD_OK;
 8006d62:	2000      	movs	r0, #0
}
 8006d64:	bd70      	pop	{r4, r5, r6, pc}
    return USBD_FAIL;
 8006d66:	2003      	movs	r0, #3
 8006d68:	e7fc      	b.n	8006d64 <USBD_LL_Reset+0x52>

08006d6a <USBD_LL_SetSpeed>:
  * @retval status
  */
USBD_StatusTypeDef USBD_LL_SetSpeed(USBD_HandleTypeDef *pdev,
                                    USBD_SpeedTypeDef speed)
{
  pdev->dev_speed = speed;
 8006d6a:	7401      	strb	r1, [r0, #16]

  return USBD_OK;
}
 8006d6c:	2000      	movs	r0, #0
 8006d6e:	4770      	bx	lr

08006d70 <USBD_LL_Suspend>:
  * @retval status
  */

USBD_StatusTypeDef USBD_LL_Suspend(USBD_HandleTypeDef *pdev)
{
  pdev->dev_old_state = pdev->dev_state;
 8006d70:	f890 329c 	ldrb.w	r3, [r0, #668]	@ 0x29c
 8006d74:	b2db      	uxtb	r3, r3
 8006d76:	f880 329d 	strb.w	r3, [r0, #669]	@ 0x29d
  pdev->dev_state = USBD_STATE_SUSPENDED;
 8006d7a:	2304      	movs	r3, #4
 8006d7c:	f880 329c 	strb.w	r3, [r0, #668]	@ 0x29c

  return USBD_OK;
}
 8006d80:	2000      	movs	r0, #0
 8006d82:	4770      	bx	lr

08006d84 <USBD_LL_Resume>:
  * @retval status
  */

USBD_StatusTypeDef USBD_LL_Resume(USBD_HandleTypeDef *pdev)
{
  if (pdev->dev_state == USBD_STATE_SUSPENDED)
 8006d84:	f890 329c 	ldrb.w	r3, [r0, #668]	@ 0x29c
 8006d88:	2b04      	cmp	r3, #4
  {
    pdev->dev_state = pdev->dev_old_state;
 8006d8a:	bf02      	ittt	eq
 8006d8c:	f890 329d 	ldrbeq.w	r3, [r0, #669]	@ 0x29d
 8006d90:	b2db      	uxtbeq	r3, r3
 8006d92:	f880 329c 	strbeq.w	r3, [r0, #668]	@ 0x29c
  }

  return USBD_OK;
}
 8006d96:	2000      	movs	r0, #0
 8006d98:	4770      	bx	lr

08006d9a <USBD_LL_SOF>:
  * @retval status
  */

USBD_StatusTypeDef USBD_LL_SOF(USBD_HandleTypeDef *pdev)
{
  if (pdev->pClass == NULL)
 8006d9a:	f8d0 22b8 	ldr.w	r2, [r0, #696]	@ 0x2b8
{
 8006d9e:	b508      	push	{r3, lr}
  if (pdev->pClass == NULL)
 8006da0:	b14a      	cbz	r2, 8006db6 <USBD_LL_SOF+0x1c>
  {
    return USBD_FAIL;
  }

  if (pdev->dev_state == USBD_STATE_CONFIGURED)
 8006da2:	f890 329c 	ldrb.w	r3, [r0, #668]	@ 0x29c
 8006da6:	2b03      	cmp	r3, #3
 8006da8:	d101      	bne.n	8006dae <USBD_LL_SOF+0x14>
  {
    if (pdev->pClass->SOF != NULL)
 8006daa:	69d3      	ldr	r3, [r2, #28]
 8006dac:	b90b      	cbnz	r3, 8006db2 <USBD_LL_SOF+0x18>
    {
      (void)pdev->pClass->SOF(pdev);
    }
  }

  return USBD_OK;
 8006dae:	2000      	movs	r0, #0
}
 8006db0:	bd08      	pop	{r3, pc}
      (void)pdev->pClass->SOF(pdev);
 8006db2:	4798      	blx	r3
 8006db4:	e7fb      	b.n	8006dae <USBD_LL_SOF+0x14>
    return USBD_FAIL;
 8006db6:	2003      	movs	r0, #3
 8006db8:	e7fa      	b.n	8006db0 <USBD_LL_SOF+0x16>

08006dba <USBD_CtlError.constprop.0>:
  *         Handle USB low level Error
  * @param  pdev: device instance
  * @param  req: usb request
  * @retval None
  */
void USBD_CtlError(USBD_HandleTypeDef *pdev, USBD_SetupReqTypedef *req)
 8006dba:	b510      	push	{r4, lr}
{
  UNUSED(req);

  (void)USBD_LL_StallEP(pdev, 0x80U);
 8006dbc:	2180      	movs	r1, #128	@ 0x80
void USBD_CtlError(USBD_HandleTypeDef *pdev, USBD_SetupReqTypedef *req)
 8006dbe:	4604      	mov	r4, r0
  (void)USBD_LL_StallEP(pdev, 0x80U);
 8006dc0:	f000 fc70 	bl	80076a4 <USBD_LL_StallEP>
  (void)USBD_LL_StallEP(pdev, 0U);
 8006dc4:	4620      	mov	r0, r4
 8006dc6:	2100      	movs	r1, #0
}
 8006dc8:	e8bd 4010 	ldmia.w	sp!, {r4, lr}
  (void)USBD_LL_StallEP(pdev, 0U);
 8006dcc:	f000 bc6a 	b.w	80076a4 <USBD_LL_StallEP>

08006dd0 <USBD_StdDevReq>:
{
 8006dd0:	b537      	push	{r0, r1, r2, r4, r5, lr}
 8006dd2:	780b      	ldrb	r3, [r1, #0]
 8006dd4:	f003 0360 	and.w	r3, r3, #96	@ 0x60
  switch (req->bmRequest & USB_REQ_TYPE_MASK)
 8006dd8:	2b20      	cmp	r3, #32
{
 8006dda:	4604      	mov	r4, r0
 8006ddc:	460d      	mov	r5, r1
  switch (req->bmRequest & USB_REQ_TYPE_MASK)
 8006dde:	d006      	beq.n	8006dee <USBD_StdDevReq+0x1e>
 8006de0:	2b40      	cmp	r3, #64	@ 0x40
 8006de2:	d004      	beq.n	8006dee <USBD_StdDevReq+0x1e>
 8006de4:	b163      	cbz	r3, 8006e00 <USBD_StdDevReq+0x30>
        USBD_CtlError(pdev, req);
 8006de6:	4620      	mov	r0, r4
 8006de8:	f7ff ffe7 	bl	8006dba <USBD_CtlError.constprop.0>
        break;
 8006dec:	e0cc      	b.n	8006f88 <USBD_StdDevReq+0x1b8>
      ret = (USBD_StatusTypeDef)pdev->pClass->Setup(pdev, req);
 8006dee:	f8d4 32b8 	ldr.w	r3, [r4, #696]	@ 0x2b8
 8006df2:	689b      	ldr	r3, [r3, #8]
 8006df4:	4629      	mov	r1, r5
 8006df6:	4620      	mov	r0, r4
}
 8006df8:	b003      	add	sp, #12
 8006dfa:	e8bd 4030 	ldmia.w	sp!, {r4, r5, lr}
      ret = (USBD_StatusTypeDef)pdev->pClass->Setup(pdev, req);
 8006dfe:	4718      	bx	r3
      switch (req->bRequest)
 8006e00:	784b      	ldrb	r3, [r1, #1]
 8006e02:	2b09      	cmp	r3, #9
 8006e04:	d8ef      	bhi.n	8006de6 <USBD_StdDevReq+0x16>
 8006e06:	a201      	add	r2, pc, #4	@ (adr r2, 8006e0c <USBD_StdDevReq+0x3c>)
 8006e08:	f852 f023 	ldr.w	pc, [r2, r3, lsl #2]
 8006e0c:	08007055 	.word	0x08007055
 8006e10:	08007089 	.word	0x08007089
 8006e14:	08006de7 	.word	0x08006de7
 8006e18:	0800707d 	.word	0x0800707d
 8006e1c:	08006de7 	.word	0x08006de7
 8006e20:	08006f4d 	.word	0x08006f4d
 8006e24:	08006e35 	.word	0x08006e35
 8006e28:	08006de7 	.word	0x08006de7
 8006e2c:	08007029 	.word	0x08007029
 8006e30:	08006f95 	.word	0x08006f95
  uint16_t len = 0U;
 8006e34:	2300      	movs	r3, #0
 8006e36:	f8ad 3006 	strh.w	r3, [sp, #6]
  switch (req->wValue >> 8)
 8006e3a:	884b      	ldrh	r3, [r1, #2]
 8006e3c:	0a1a      	lsrs	r2, r3, #8
 8006e3e:	3a01      	subs	r2, #1
 8006e40:	2a0e      	cmp	r2, #14
 8006e42:	d8d0      	bhi.n	8006de6 <USBD_StdDevReq+0x16>
 8006e44:	a101      	add	r1, pc, #4	@ (adr r1, 8006e4c <USBD_StdDevReq+0x7c>)
 8006e46:	f851 f022 	ldr.w	pc, [r1, r2, lsl #2]
 8006e4a:	bf00      	nop
 8006e4c:	08006e93 	.word	0x08006e93
 8006e50:	08006ec5 	.word	0x08006ec5
 8006e54:	08006edf 	.word	0x08006edf
 8006e58:	08006de7 	.word	0x08006de7
 8006e5c:	08006de7 	.word	0x08006de7
 8006e60:	08006f1f 	.word	0x08006f1f
 8006e64:	08006f35 	.word	0x08006f35
 8006e68:	08006de7 	.word	0x08006de7
 8006e6c:	08006de7 	.word	0x08006de7
 8006e70:	08006de7 	.word	0x08006de7
 8006e74:	08006de7 	.word	0x08006de7
 8006e78:	08006de7 	.word	0x08006de7
 8006e7c:	08006de7 	.word	0x08006de7
 8006e80:	08006de7 	.word	0x08006de7
 8006e84:	08006e89 	.word	0x08006e89
      if (pdev->pDesc->GetBOSDescriptor != NULL)
 8006e88:	f8d0 32b4 	ldr.w	r3, [r0, #692]	@ 0x2b4
 8006e8c:	69db      	ldr	r3, [r3, #28]
          if (pdev->pDesc->GetInterfaceStrDescriptor != NULL)
 8006e8e:	b91b      	cbnz	r3, 8006e98 <USBD_StdDevReq+0xc8>
 8006e90:	e7a9      	b.n	8006de6 <USBD_StdDevReq+0x16>
      pbuf = pdev->pDesc->GetDeviceDescriptor(pdev->dev_speed, &len);
 8006e92:	f8d0 32b4 	ldr.w	r3, [r0, #692]	@ 0x2b4
 8006e96:	681b      	ldr	r3, [r3, #0]
 8006e98:	7c20      	ldrb	r0, [r4, #16]
 8006e9a:	f10d 0106 	add.w	r1, sp, #6
 8006e9e:	4798      	blx	r3
  if (req->wLength != 0U)
 8006ea0:	88ea      	ldrh	r2, [r5, #6]
 8006ea2:	2a00      	cmp	r2, #0
 8006ea4:	f000 80a3 	beq.w	8006fee <USBD_StdDevReq+0x21e>
    if (len != 0U)
 8006ea8:	f8bd 3006 	ldrh.w	r3, [sp, #6]
 8006eac:	2b00      	cmp	r3, #0
 8006eae:	d09a      	beq.n	8006de6 <USBD_StdDevReq+0x16>
      len = MIN(len, req->wLength);
 8006eb0:	429a      	cmp	r2, r3
 8006eb2:	bf28      	it	cs
 8006eb4:	461a      	movcs	r2, r3
 8006eb6:	f8ad 2006 	strh.w	r2, [sp, #6]
      (void)USBD_CtlSendData(pdev, pbuf, len);
 8006eba:	4601      	mov	r1, r0
        (void)USBD_CtlSendData(pdev, (uint8_t *)&pdev->dev_default_config, 1U);
 8006ebc:	4620      	mov	r0, r4
 8006ebe:	f000 f9db 	bl	8007278 <USBD_CtlSendData>
        break;
 8006ec2:	e061      	b.n	8006f88 <USBD_StdDevReq+0x1b8>
      if (pdev->dev_speed == USBD_SPEED_HIGH)
 8006ec4:	7c02      	ldrb	r2, [r0, #16]
      ret = (USBD_StatusTypeDef)pdev->pClass->Setup(pdev, req);
 8006ec6:	f8d0 32b8 	ldr.w	r3, [r0, #696]	@ 0x2b8
      if (pdev->dev_speed == USBD_SPEED_HIGH)
 8006eca:	b932      	cbnz	r2, 8006eda <USBD_StdDevReq+0x10a>
        pbuf = pdev->pClass->GetHSConfigDescriptor(&len);
 8006ecc:	6a9b      	ldr	r3, [r3, #40]	@ 0x28
        pbuf = pdev->pClass->GetFSConfigDescriptor(&len);
 8006ece:	f10d 0006 	add.w	r0, sp, #6
 8006ed2:	4798      	blx	r3
        pbuf[1] = USB_DESC_TYPE_CONFIGURATION;
 8006ed4:	2302      	movs	r3, #2
        pbuf[1] = USB_DESC_TYPE_OTHER_SPEED_CONFIGURATION;
 8006ed6:	7043      	strb	r3, [r0, #1]
  if (err != 0U)
 8006ed8:	e7e2      	b.n	8006ea0 <USBD_StdDevReq+0xd0>
        pbuf = pdev->pClass->GetFSConfigDescriptor(&len);
 8006eda:	6adb      	ldr	r3, [r3, #44]	@ 0x2c
 8006edc:	e7f7      	b.n	8006ece <USBD_StdDevReq+0xfe>
      switch ((uint8_t)(req->wValue))
 8006ede:	b2db      	uxtb	r3, r3
 8006ee0:	2b05      	cmp	r3, #5
 8006ee2:	d880      	bhi.n	8006de6 <USBD_StdDevReq+0x16>
 8006ee4:	e8df f003 	tbb	[pc, r3]
 8006ee8:	0f0b0703 	.word	0x0f0b0703
 8006eec:	1713      	.short	0x1713
          if (pdev->pDesc->GetLangIDStrDescriptor != NULL)
 8006eee:	f8d0 32b4 	ldr.w	r3, [r0, #692]	@ 0x2b4
 8006ef2:	685b      	ldr	r3, [r3, #4]
 8006ef4:	e7cb      	b.n	8006e8e <USBD_StdDevReq+0xbe>
          if (pdev->pDesc->GetManufacturerStrDescriptor != NULL)
 8006ef6:	f8d0 32b4 	ldr.w	r3, [r0, #692]	@ 0x2b4
 8006efa:	689b      	ldr	r3, [r3, #8]
 8006efc:	e7c7      	b.n	8006e8e <USBD_StdDevReq+0xbe>
          if (pdev->pDesc->GetProductStrDescriptor != NULL)
 8006efe:	f8d0 32b4 	ldr.w	r3, [r0, #692]	@ 0x2b4
 8006f02:	68db      	ldr	r3, [r3, #12]
 8006f04:	e7c3      	b.n	8006e8e <USBD_StdDevReq+0xbe>
          if (pdev->pDesc->GetSerialStrDescriptor != NULL)
 8006f06:	f8d0 32b4 	ldr.w	r3, [r0, #692]	@ 0x2b4
 8006f0a:	691b      	ldr	r3, [r3, #16]
 8006f0c:	e7bf      	b.n	8006e8e <USBD_StdDevReq+0xbe>
          if (pdev->pDesc->GetConfigurationStrDescriptor != NULL)
 8006f0e:	f8d0 32b4 	ldr.w	r3, [r0, #692]	@ 0x2b4
 8006f12:	695b      	ldr	r3, [r3, #20]
 8006f14:	e7bb      	b.n	8006e8e <USBD_StdDevReq+0xbe>
          if (pdev->pDesc->GetInterfaceStrDescriptor != NULL)
 8006f16:	f8d0 32b4 	ldr.w	r3, [r0, #692]	@ 0x2b4
 8006f1a:	699b      	ldr	r3, [r3, #24]
 8006f1c:	e7b7      	b.n	8006e8e <USBD_StdDevReq+0xbe>
      if (pdev->dev_speed == USBD_SPEED_HIGH)
 8006f1e:	7c03      	ldrb	r3, [r0, #16]
 8006f20:	2b00      	cmp	r3, #0
 8006f22:	f47f af60 	bne.w	8006de6 <USBD_StdDevReq+0x16>
        pbuf = pdev->pClass->GetDeviceQualifierDescriptor(&len);
 8006f26:	f8d0 32b8 	ldr.w	r3, [r0, #696]	@ 0x2b8
 8006f2a:	f10d 0006 	add.w	r0, sp, #6
 8006f2e:	6b5b      	ldr	r3, [r3, #52]	@ 0x34
 8006f30:	4798      	blx	r3
  if (err != 0U)
 8006f32:	e7b5      	b.n	8006ea0 <USBD_StdDevReq+0xd0>
      if (pdev->dev_speed == USBD_SPEED_HIGH)
 8006f34:	7c03      	ldrb	r3, [r0, #16]
 8006f36:	2b00      	cmp	r3, #0
 8006f38:	f47f af55 	bne.w	8006de6 <USBD_StdDevReq+0x16>
        pbuf = pdev->pClass->GetOtherSpeedConfigDescriptor(&len);
 8006f3c:	f8d0 32b8 	ldr.w	r3, [r0, #696]	@ 0x2b8
 8006f40:	f10d 0006 	add.w	r0, sp, #6
 8006f44:	6b1b      	ldr	r3, [r3, #48]	@ 0x30
 8006f46:	4798      	blx	r3
        pbuf[1] = USB_DESC_TYPE_OTHER_SPEED_CONFIGURATION;
 8006f48:	2307      	movs	r3, #7
 8006f4a:	e7c4      	b.n	8006ed6 <USBD_StdDevReq+0x106>
  if ((req->wIndex == 0U) && (req->wLength == 0U) && (req->wValue < 128U))
 8006f4c:	888b      	ldrh	r3, [r1, #4]
 8006f4e:	2b00      	cmp	r3, #0
 8006f50:	f47f af49 	bne.w	8006de6 <USBD_StdDevReq+0x16>
 8006f54:	88cb      	ldrh	r3, [r1, #6]
 8006f56:	2b00      	cmp	r3, #0
 8006f58:	f47f af45 	bne.w	8006de6 <USBD_StdDevReq+0x16>
 8006f5c:	884d      	ldrh	r5, [r1, #2]
 8006f5e:	2d7f      	cmp	r5, #127	@ 0x7f
 8006f60:	f63f af41 	bhi.w	8006de6 <USBD_StdDevReq+0x16>
    if (pdev->dev_state == USBD_STATE_CONFIGURED)
 8006f64:	f890 329c 	ldrb.w	r3, [r0, #668]	@ 0x29c
 8006f68:	2b03      	cmp	r3, #3
 8006f6a:	f43f af3c 	beq.w	8006de6 <USBD_StdDevReq+0x16>
    dev_addr = (uint8_t)(req->wValue) & 0x7FU;
 8006f6e:	b2ed      	uxtb	r5, r5
      pdev->dev_address = dev_addr;
 8006f70:	f880 529e 	strb.w	r5, [r0, #670]	@ 0x29e
      (void)USBD_LL_SetUSBAddress(pdev, dev_addr);
 8006f74:	4629      	mov	r1, r5
 8006f76:	f000 fbb9 	bl	80076ec <USBD_LL_SetUSBAddress>
      (void)USBD_CtlSendStatus(pdev);
 8006f7a:	4620      	mov	r0, r4
 8006f7c:	f000 f9a6 	bl	80072cc <USBD_CtlSendStatus>
      if (dev_addr != 0U)
 8006f80:	b135      	cbz	r5, 8006f90 <USBD_StdDevReq+0x1c0>
        pdev->dev_state = USBD_STATE_ADDRESSED;
 8006f82:	2302      	movs	r3, #2
          pdev->dev_state = USBD_STATE_CONFIGURED;
 8006f84:	f884 329c 	strb.w	r3, [r4, #668]	@ 0x29c
  USBD_StatusTypeDef ret = USBD_OK;
 8006f88:	2500      	movs	r5, #0
}
 8006f8a:	4628      	mov	r0, r5
 8006f8c:	b003      	add	sp, #12
 8006f8e:	bd30      	pop	{r4, r5, pc}
        pdev->dev_state = USBD_STATE_DEFAULT;
 8006f90:	2301      	movs	r3, #1
 8006f92:	e7f7      	b.n	8006f84 <USBD_StdDevReq+0x1b4>
  cfgidx = (uint8_t)(req->wValue);
 8006f94:	7889      	ldrb	r1, [r1, #2]
 8006f96:	4d42      	ldr	r5, [pc, #264]	@ (80070a0 <USBD_StdDevReq+0x2d0>)
  if (cfgidx > USBD_MAX_NUM_CONFIGURATION)
 8006f98:	2901      	cmp	r1, #1
  cfgidx = (uint8_t)(req->wValue);
 8006f9a:	7029      	strb	r1, [r5, #0]
  if (cfgidx > USBD_MAX_NUM_CONFIGURATION)
 8006f9c:	d903      	bls.n	8006fa6 <USBD_StdDevReq+0x1d6>
    USBD_CtlError(pdev, req);
 8006f9e:	f7ff ff0c 	bl	8006dba <USBD_CtlError.constprop.0>
    return USBD_FAIL;
 8006fa2:	2503      	movs	r5, #3
 8006fa4:	e7f1      	b.n	8006f8a <USBD_StdDevReq+0x1ba>
  switch (pdev->dev_state)
 8006fa6:	f890 329c 	ldrb.w	r3, [r0, #668]	@ 0x29c
 8006faa:	2b02      	cmp	r3, #2
 8006fac:	b2da      	uxtb	r2, r3
 8006fae:	d008      	beq.n	8006fc2 <USBD_StdDevReq+0x1f2>
 8006fb0:	2a03      	cmp	r2, #3
 8006fb2:	d015      	beq.n	8006fe0 <USBD_StdDevReq+0x210>
      USBD_CtlError(pdev, req);
 8006fb4:	f7ff ff01 	bl	8006dba <USBD_CtlError.constprop.0>
      (void)USBD_ClrClassConfig(pdev, cfgidx);
 8006fb8:	7829      	ldrb	r1, [r5, #0]
 8006fba:	4620      	mov	r0, r4
 8006fbc:	f7ff fdf4 	bl	8006ba8 <USBD_ClrClassConfig>
      break;
 8006fc0:	e7ef      	b.n	8006fa2 <USBD_StdDevReq+0x1d2>
      if (cfgidx != 0U)
 8006fc2:	b1a1      	cbz	r1, 8006fee <USBD_StdDevReq+0x21e>
        pdev->dev_config = cfgidx;
 8006fc4:	2101      	movs	r1, #1
 8006fc6:	6041      	str	r1, [r0, #4]
        ret = USBD_SetClassConfig(pdev, cfgidx);
 8006fc8:	f7ff fde7 	bl	8006b9a <USBD_SetClassConfig>
        if (ret != USBD_OK)
 8006fcc:	4605      	mov	r5, r0
          USBD_CtlError(pdev, req);
 8006fce:	4620      	mov	r0, r4
        if (ret != USBD_OK)
 8006fd0:	b115      	cbz	r5, 8006fd8 <USBD_StdDevReq+0x208>
          USBD_CtlError(pdev, req);
 8006fd2:	f7ff fef2 	bl	8006dba <USBD_CtlError.constprop.0>
 8006fd6:	e7d8      	b.n	8006f8a <USBD_StdDevReq+0x1ba>
          (void)USBD_CtlSendStatus(pdev);
 8006fd8:	f000 f978 	bl	80072cc <USBD_CtlSendStatus>
          pdev->dev_state = USBD_STATE_CONFIGURED;
 8006fdc:	2303      	movs	r3, #3
 8006fde:	e7d1      	b.n	8006f84 <USBD_StdDevReq+0x1b4>
      if (cfgidx == 0U)
 8006fe0:	b949      	cbnz	r1, 8006ff6 <USBD_StdDevReq+0x226>
        pdev->dev_state = USBD_STATE_ADDRESSED;
 8006fe2:	2302      	movs	r3, #2
 8006fe4:	f880 329c 	strb.w	r3, [r0, #668]	@ 0x29c
        pdev->dev_config = cfgidx;
 8006fe8:	6041      	str	r1, [r0, #4]
        (void)USBD_ClrClassConfig(pdev, cfgidx);
 8006fea:	f7ff fddd 	bl	8006ba8 <USBD_ClrClassConfig>
        (void)USBD_CtlSendStatus(pdev);
 8006fee:	4620      	mov	r0, r4
 8006ff0:	f000 f96c 	bl	80072cc <USBD_CtlSendStatus>
 8006ff4:	e7c8      	b.n	8006f88 <USBD_StdDevReq+0x1b8>
      else if (cfgidx != pdev->dev_config)
 8006ff6:	6841      	ldr	r1, [r0, #4]
 8006ff8:	2901      	cmp	r1, #1
 8006ffa:	d0f8      	beq.n	8006fee <USBD_StdDevReq+0x21e>
        (void)USBD_ClrClassConfig(pdev, (uint8_t)pdev->dev_config);
 8006ffc:	b2c9      	uxtb	r1, r1
 8006ffe:	f7ff fdd3 	bl	8006ba8 <USBD_ClrClassConfig>
        pdev->dev_config = cfgidx;
 8007002:	7829      	ldrb	r1, [r5, #0]
 8007004:	6061      	str	r1, [r4, #4]
        ret = USBD_SetClassConfig(pdev, cfgidx);
 8007006:	4620      	mov	r0, r4
 8007008:	f7ff fdc7 	bl	8006b9a <USBD_SetClassConfig>
        if (ret != USBD_OK)
 800700c:	4605      	mov	r5, r0
 800700e:	2800      	cmp	r0, #0
 8007010:	d0ed      	beq.n	8006fee <USBD_StdDevReq+0x21e>
          USBD_CtlError(pdev, req);
 8007012:	4620      	mov	r0, r4
 8007014:	f7ff fed1 	bl	8006dba <USBD_CtlError.constprop.0>
          (void)USBD_ClrClassConfig(pdev, (uint8_t)pdev->dev_config);
 8007018:	7921      	ldrb	r1, [r4, #4]
 800701a:	4620      	mov	r0, r4
 800701c:	f7ff fdc4 	bl	8006ba8 <USBD_ClrClassConfig>
          pdev->dev_state = USBD_STATE_ADDRESSED;
 8007020:	2302      	movs	r3, #2
 8007022:	f884 329c 	strb.w	r3, [r4, #668]	@ 0x29c
 8007026:	e7b0      	b.n	8006f8a <USBD_StdDevReq+0x1ba>
  if (req->wLength != 1U)
 8007028:	88ca      	ldrh	r2, [r1, #6]
 800702a:	2a01      	cmp	r2, #1
 800702c:	f47f aedb 	bne.w	8006de6 <USBD_StdDevReq+0x16>
    switch (pdev->dev_state)
 8007030:	f890 129c 	ldrb.w	r1, [r0, #668]	@ 0x29c
 8007034:	2902      	cmp	r1, #2
 8007036:	b2cb      	uxtb	r3, r1
 8007038:	d807      	bhi.n	800704a <USBD_StdDevReq+0x27a>
 800703a:	2b00      	cmp	r3, #0
 800703c:	f43f aed3 	beq.w	8006de6 <USBD_StdDevReq+0x16>
        pdev->dev_default_config = 0U;
 8007040:	4601      	mov	r1, r0
 8007042:	2300      	movs	r3, #0
 8007044:	f841 3f08 	str.w	r3, [r1, #8]!
 8007048:	e738      	b.n	8006ebc <USBD_StdDevReq+0xec>
    switch (pdev->dev_state)
 800704a:	2b03      	cmp	r3, #3
 800704c:	f47f aecb 	bne.w	8006de6 <USBD_StdDevReq+0x16>
        (void)USBD_CtlSendData(pdev, (uint8_t *)&pdev->dev_config, 1U);
 8007050:	1d01      	adds	r1, r0, #4
 8007052:	e733      	b.n	8006ebc <USBD_StdDevReq+0xec>
  switch (pdev->dev_state)
 8007054:	f890 329c 	ldrb.w	r3, [r0, #668]	@ 0x29c
 8007058:	3b01      	subs	r3, #1
 800705a:	2b02      	cmp	r3, #2
 800705c:	f63f aec3 	bhi.w	8006de6 <USBD_StdDevReq+0x16>
      if (req->wLength != 0x2U)
 8007060:	88ca      	ldrh	r2, [r1, #6]
 8007062:	2a02      	cmp	r2, #2
 8007064:	f47f aebf 	bne.w	8006de6 <USBD_StdDevReq+0x16>
      if (pdev->dev_remote_wakeup != 0U)
 8007068:	f8d0 32a4 	ldr.w	r3, [r0, #676]	@ 0x2a4
 800706c:	4601      	mov	r1, r0
        pdev->dev_config_status |= USB_CONFIG_REMOTE_WAKEUP;
 800706e:	2b00      	cmp	r3, #0
 8007070:	bf0c      	ite	eq
 8007072:	2301      	moveq	r3, #1
 8007074:	2303      	movne	r3, #3
 8007076:	f841 3f0c 	str.w	r3, [r1, #12]!
      (void)USBD_CtlSendData(pdev, (uint8_t *)&pdev->dev_config_status, 2U);
 800707a:	e71f      	b.n	8006ebc <USBD_StdDevReq+0xec>
  if (req->wValue == USB_FEATURE_REMOTE_WAKEUP)
 800707c:	884b      	ldrh	r3, [r1, #2]
 800707e:	2b01      	cmp	r3, #1
 8007080:	d182      	bne.n	8006f88 <USBD_StdDevReq+0x1b8>
        pdev->dev_remote_wakeup = 0U;
 8007082:	f8c4 32a4 	str.w	r3, [r4, #676]	@ 0x2a4
 8007086:	e7b2      	b.n	8006fee <USBD_StdDevReq+0x21e>
  switch (pdev->dev_state)
 8007088:	f890 329c 	ldrb.w	r3, [r0, #668]	@ 0x29c
 800708c:	3b01      	subs	r3, #1
 800708e:	2b02      	cmp	r3, #2
 8007090:	f63f aea9 	bhi.w	8006de6 <USBD_StdDevReq+0x16>
      if (req->wValue == USB_FEATURE_REMOTE_WAKEUP)
 8007094:	884b      	ldrh	r3, [r1, #2]
 8007096:	2b01      	cmp	r3, #1
 8007098:	f47f af76 	bne.w	8006f88 <USBD_StdDevReq+0x1b8>
        pdev->dev_remote_wakeup = 0U;
 800709c:	2300      	movs	r3, #0
 800709e:	e7f0      	b.n	8007082 <USBD_StdDevReq+0x2b2>
 80070a0:	200009ac 	.word	0x200009ac

080070a4 <USBD_StdItfReq>:
{
 80070a4:	b570      	push	{r4, r5, r6, lr}
  switch (req->bmRequest & USB_REQ_TYPE_MASK)
 80070a6:	780b      	ldrb	r3, [r1, #0]
 80070a8:	f003 0260 	and.w	r2, r3, #96	@ 0x60
 80070ac:	065b      	lsls	r3, r3, #25
{
 80070ae:	4604      	mov	r4, r0
 80070b0:	460d      	mov	r5, r1
  switch (req->bmRequest & USB_REQ_TYPE_MASK)
 80070b2:	d501      	bpl.n	80070b8 <USBD_StdItfReq+0x14>
 80070b4:	2a40      	cmp	r2, #64	@ 0x40
 80070b6:	d116      	bne.n	80070e6 <USBD_StdItfReq+0x42>
      switch (pdev->dev_state)
 80070b8:	f894 329c 	ldrb.w	r3, [r4, #668]	@ 0x29c
 80070bc:	3b01      	subs	r3, #1
 80070be:	2b02      	cmp	r3, #2
 80070c0:	d811      	bhi.n	80070e6 <USBD_StdItfReq+0x42>
          if (LOBYTE(req->wIndex) <= USBD_MAX_NUM_INTERFACES)
 80070c2:	792b      	ldrb	r3, [r5, #4]
 80070c4:	2b01      	cmp	r3, #1
 80070c6:	d80e      	bhi.n	80070e6 <USBD_StdItfReq+0x42>
            ret = (USBD_StatusTypeDef)pdev->pClass->Setup(pdev, req);
 80070c8:	f8d4 32b8 	ldr.w	r3, [r4, #696]	@ 0x2b8
 80070cc:	4629      	mov	r1, r5
 80070ce:	689b      	ldr	r3, [r3, #8]
 80070d0:	4620      	mov	r0, r4
 80070d2:	4798      	blx	r3
            if ((req->wLength == 0U) && (ret == USBD_OK))
 80070d4:	88eb      	ldrh	r3, [r5, #6]
            ret = (USBD_StatusTypeDef)pdev->pClass->Setup(pdev, req);
 80070d6:	4606      	mov	r6, r0
            if ((req->wLength == 0U) && (ret == USBD_OK))
 80070d8:	b91b      	cbnz	r3, 80070e2 <USBD_StdItfReq+0x3e>
 80070da:	b910      	cbnz	r0, 80070e2 <USBD_StdItfReq+0x3e>
              (void)USBD_CtlSendStatus(pdev);
 80070dc:	4620      	mov	r0, r4
 80070de:	f000 f8f5 	bl	80072cc <USBD_CtlSendStatus>
}
 80070e2:	4630      	mov	r0, r6
 80070e4:	bd70      	pop	{r4, r5, r6, pc}
            USBD_CtlError(pdev, req);
 80070e6:	4620      	mov	r0, r4
 80070e8:	f7ff fe67 	bl	8006dba <USBD_CtlError.constprop.0>
  USBD_StatusTypeDef ret = USBD_OK;
 80070ec:	2600      	movs	r6, #0
 80070ee:	e7f8      	b.n	80070e2 <USBD_StdItfReq+0x3e>

080070f0 <USBD_StdEPReq>:
{
 80070f0:	b570      	push	{r4, r5, r6, lr}
 80070f2:	780b      	ldrb	r3, [r1, #0]
  ep_addr = LOBYTE(req->wIndex);
 80070f4:	888a      	ldrh	r2, [r1, #4]
 80070f6:	f003 0360 	and.w	r3, r3, #96	@ 0x60
  switch (req->bmRequest & USB_REQ_TYPE_MASK)
 80070fa:	2b20      	cmp	r3, #32
{
 80070fc:	4604      	mov	r4, r0
 80070fe:	460d      	mov	r5, r1
  switch (req->bmRequest & USB_REQ_TYPE_MASK)
 8007100:	d056      	beq.n	80071b0 <USBD_StdEPReq+0xc0>
 8007102:	2b40      	cmp	r3, #64	@ 0x40
 8007104:	d054      	beq.n	80071b0 <USBD_StdEPReq+0xc0>
 8007106:	b11b      	cbz	r3, 8007110 <USBD_StdEPReq+0x20>
              USBD_CtlError(pdev, req);
 8007108:	4620      	mov	r0, r4
 800710a:	f7ff fe56 	bl	8006dba <USBD_CtlError.constprop.0>
              break;
 800710e:	e03c      	b.n	800718a <USBD_StdEPReq+0x9a>
      switch (req->bRequest)
 8007110:	786b      	ldrb	r3, [r5, #1]
 8007112:	2b01      	cmp	r3, #1
  ep_addr = LOBYTE(req->wIndex);
 8007114:	b2d1      	uxtb	r1, r2
      switch (req->bRequest)
 8007116:	d03a      	beq.n	800718e <USBD_StdEPReq+0x9e>
 8007118:	2b03      	cmp	r3, #3
 800711a:	d024      	beq.n	8007166 <USBD_StdEPReq+0x76>
 800711c:	2b00      	cmp	r3, #0
 800711e:	d1f3      	bne.n	8007108 <USBD_StdEPReq+0x18>
          switch (pdev->dev_state)
 8007120:	f890 329c 	ldrb.w	r3, [r0, #668]	@ 0x29c
 8007124:	2b02      	cmp	r3, #2
 8007126:	b2d8      	uxtb	r0, r3
 8007128:	d053      	beq.n	80071d2 <USBD_StdEPReq+0xe2>
 800712a:	2803      	cmp	r0, #3
 800712c:	d1ec      	bne.n	8007108 <USBD_StdEPReq+0x18>
                if (pdev->ep_in[ep_addr & 0xFU].is_used == 0U)
 800712e:	f001 030f 	and.w	r3, r1, #15
              if ((ep_addr & 0x80U) == 0x80U)
 8007132:	f012 0f80 	tst.w	r2, #128	@ 0x80
 8007136:	f04f 0214 	mov.w	r2, #20
                if (pdev->ep_in[ep_addr & 0xFU].is_used == 0U)
 800713a:	fb02 4303 	mla	r3, r2, r3, r4
              if ((ep_addr & 0x80U) == 0x80U)
 800713e:	d057      	beq.n	80071f0 <USBD_StdEPReq+0x100>
                if (pdev->ep_in[ep_addr & 0xFU].is_used == 0U)
 8007140:	8c9b      	ldrh	r3, [r3, #36]	@ 0x24
 8007142:	2b00      	cmp	r3, #0
 8007144:	d0e0      	beq.n	8007108 <USBD_StdEPReq+0x18>
              pep = ((ep_addr & 0x80U) == 0x80U) ? &pdev->ep_in[ep_addr & 0x7FU] : \
 8007146:	f001 057f 	and.w	r5, r1, #127	@ 0x7f
 800714a:	3501      	adds	r5, #1
 800714c:	eb05 0585 	add.w	r5, r5, r5, lsl #2
              if ((ep_addr == 0x00U) || (ep_addr == 0x80U))
 8007150:	2980      	cmp	r1, #128	@ 0x80
              pep = ((ep_addr & 0x80U) == 0x80U) ? &pdev->ep_in[ep_addr & 0x7FU] : \
 8007152:	eb04 0585 	add.w	r5, r4, r5, lsl #2
              if ((ep_addr == 0x00U) || (ep_addr == 0x80U))
 8007156:	d056      	beq.n	8007206 <USBD_StdEPReq+0x116>
              else if (USBD_LL_IsStallEP(pdev, ep_addr) != 0U)
 8007158:	4620      	mov	r0, r4
 800715a:	f000 fab5 	bl	80076c8 <USBD_LL_IsStallEP>
 800715e:	2800      	cmp	r0, #0
 8007160:	d056      	beq.n	8007210 <USBD_StdEPReq+0x120>
                pep->status = 0x0001U;
 8007162:	2301      	movs	r3, #1
 8007164:	e050      	b.n	8007208 <USBD_StdEPReq+0x118>
          switch (pdev->dev_state)
 8007166:	f890 329c 	ldrb.w	r3, [r0, #668]	@ 0x29c
 800716a:	2b02      	cmp	r3, #2
 800716c:	b2da      	uxtb	r2, r3
 800716e:	d027      	beq.n	80071c0 <USBD_StdEPReq+0xd0>
 8007170:	2a03      	cmp	r2, #3
 8007172:	d1c9      	bne.n	8007108 <USBD_StdEPReq+0x18>
              if (req->wValue == USB_FEATURE_EP_HALT)
 8007174:	886b      	ldrh	r3, [r5, #2]
 8007176:	b92b      	cbnz	r3, 8007184 <USBD_StdEPReq+0x94>
                if ((ep_addr != 0x00U) && (ep_addr != 0x80U) && (req->wLength == 0x00U))
 8007178:	064a      	lsls	r2, r1, #25
 800717a:	d003      	beq.n	8007184 <USBD_StdEPReq+0x94>
 800717c:	88eb      	ldrh	r3, [r5, #6]
 800717e:	b90b      	cbnz	r3, 8007184 <USBD_StdEPReq+0x94>
                  (void)USBD_LL_StallEP(pdev, ep_addr);
 8007180:	f000 fa90 	bl	80076a4 <USBD_LL_StallEP>
              (void)USBD_CtlSendStatus(pdev);
 8007184:	4620      	mov	r0, r4
 8007186:	f000 f8a1 	bl	80072cc <USBD_CtlSendStatus>
}
 800718a:	2000      	movs	r0, #0
 800718c:	bd70      	pop	{r4, r5, r6, pc}
          switch (pdev->dev_state)
 800718e:	f890 329c 	ldrb.w	r3, [r0, #668]	@ 0x29c
 8007192:	2b02      	cmp	r3, #2
 8007194:	b2da      	uxtb	r2, r3
 8007196:	d013      	beq.n	80071c0 <USBD_StdEPReq+0xd0>
 8007198:	2a03      	cmp	r2, #3
 800719a:	d1b5      	bne.n	8007108 <USBD_StdEPReq+0x18>
              if (req->wValue == USB_FEATURE_EP_HALT)
 800719c:	886b      	ldrh	r3, [r5, #2]
 800719e:	2b00      	cmp	r3, #0
 80071a0:	d1f3      	bne.n	800718a <USBD_StdEPReq+0x9a>
                if ((ep_addr & 0x7FU) != 0x00U)
 80071a2:	064e      	lsls	r6, r1, #25
 80071a4:	d001      	beq.n	80071aa <USBD_StdEPReq+0xba>
                  (void)USBD_LL_ClearStallEP(pdev, ep_addr);
 80071a6:	f000 fa86 	bl	80076b6 <USBD_LL_ClearStallEP>
                (void)USBD_CtlSendStatus(pdev);
 80071aa:	4620      	mov	r0, r4
 80071ac:	f000 f88e 	bl	80072cc <USBD_CtlSendStatus>
                ret = (USBD_StatusTypeDef)pdev->pClass->Setup(pdev, req);
 80071b0:	f8d4 32b8 	ldr.w	r3, [r4, #696]	@ 0x2b8
 80071b4:	4629      	mov	r1, r5
 80071b6:	4620      	mov	r0, r4
 80071b8:	689b      	ldr	r3, [r3, #8]
}
 80071ba:	e8bd 4070 	ldmia.w	sp!, {r4, r5, r6, lr}
                ret = (USBD_StatusTypeDef)pdev->pClass->Setup(pdev, req);
 80071be:	4718      	bx	r3
              if ((ep_addr != 0x00U) && (ep_addr != 0x80U))
 80071c0:	064b      	lsls	r3, r1, #25
 80071c2:	d0a1      	beq.n	8007108 <USBD_StdEPReq+0x18>
                (void)USBD_LL_StallEP(pdev, ep_addr);
 80071c4:	f000 fa6e 	bl	80076a4 <USBD_LL_StallEP>
                (void)USBD_LL_StallEP(pdev, 0x80U);
 80071c8:	2180      	movs	r1, #128	@ 0x80
 80071ca:	4620      	mov	r0, r4
 80071cc:	f000 fa6a 	bl	80076a4 <USBD_LL_StallEP>
 80071d0:	e7db      	b.n	800718a <USBD_StdEPReq+0x9a>
              if ((ep_addr != 0x00U) && (ep_addr != 0x80U))
 80071d2:	0649      	lsls	r1, r1, #25
 80071d4:	d198      	bne.n	8007108 <USBD_StdEPReq+0x18>
              pep = ((ep_addr & 0x80U) == 0x80U) ? &pdev->ep_in[ep_addr & 0x7FU] : \
 80071d6:	0613      	lsls	r3, r2, #24
 80071d8:	bf4c      	ite	mi
 80071da:	f104 0114 	addmi.w	r1, r4, #20
 80071de:	f504 71aa 	addpl.w	r1, r4, #340	@ 0x154
              pep->status = 0x0000U;
 80071e2:	2300      	movs	r3, #0
 80071e4:	600b      	str	r3, [r1, #0]
              (void)USBD_CtlSendData(pdev, (uint8_t *)&pep->status, 2U);
 80071e6:	2202      	movs	r2, #2
              (void)USBD_CtlSendData(pdev, (uint8_t *)&pep->status, 2U);
 80071e8:	4620      	mov	r0, r4
 80071ea:	f000 f845 	bl	8007278 <USBD_CtlSendData>
              break;
 80071ee:	e7cc      	b.n	800718a <USBD_StdEPReq+0x9a>
                if (pdev->ep_out[ep_addr & 0xFU].is_used == 0U)
 80071f0:	f8b3 3164 	ldrh.w	r3, [r3, #356]	@ 0x164
 80071f4:	2b00      	cmp	r3, #0
 80071f6:	d087      	beq.n	8007108 <USBD_StdEPReq+0x18>
              pep = ((ep_addr & 0x80U) == 0x80U) ? &pdev->ep_in[ep_addr & 0x7FU] : \
 80071f8:	2514      	movs	r5, #20
 80071fa:	fb05 4501 	mla	r5, r5, r1, r4
 80071fe:	f505 75aa 	add.w	r5, r5, #340	@ 0x154
              if ((ep_addr == 0x00U) || (ep_addr == 0x80U))
 8007202:	2900      	cmp	r1, #0
 8007204:	d1a8      	bne.n	8007158 <USBD_StdEPReq+0x68>
                pep->status = 0x0000U;
 8007206:	2300      	movs	r3, #0
                pep->status = 0x0001U;
 8007208:	602b      	str	r3, [r5, #0]
              (void)USBD_CtlSendData(pdev, (uint8_t *)&pep->status, 2U);
 800720a:	2202      	movs	r2, #2
 800720c:	4629      	mov	r1, r5
 800720e:	e7eb      	b.n	80071e8 <USBD_StdEPReq+0xf8>
                pep->status = 0x0000U;
 8007210:	6028      	str	r0, [r5, #0]
 8007212:	e7fa      	b.n	800720a <USBD_StdEPReq+0x11a>

08007214 <USBD_ParseSetupRequest>:
  req->bmRequest = *(uint8_t *)(pbuff);
 8007214:	780b      	ldrb	r3, [r1, #0]
 8007216:	7003      	strb	r3, [r0, #0]
  req->bRequest = *(uint8_t *)(pbuff);
 8007218:	784b      	ldrb	r3, [r1, #1]
 800721a:	7043      	strb	r3, [r0, #1]
  req->wValue = SWAPBYTE(pbuff);
 800721c:	884b      	ldrh	r3, [r1, #2]
 800721e:	8043      	strh	r3, [r0, #2]
  req->wIndex = SWAPBYTE(pbuff);
 8007220:	888b      	ldrh	r3, [r1, #4]
 8007222:	8083      	strh	r3, [r0, #4]
  req->wLength = SWAPBYTE(pbuff);
 8007224:	88cb      	ldrh	r3, [r1, #6]
 8007226:	80c3      	strh	r3, [r0, #6]
}
 8007228:	4770      	bx	lr

0800722a <USBD_CtlError>:
{
 800722a:	b510      	push	{r4, lr}
  (void)USBD_LL_StallEP(pdev, 0x80U);
 800722c:	2180      	movs	r1, #128	@ 0x80
{
 800722e:	4604      	mov	r4, r0
  (void)USBD_LL_StallEP(pdev, 0x80U);
 8007230:	f000 fa38 	bl	80076a4 <USBD_LL_StallEP>
  (void)USBD_LL_StallEP(pdev, 0U);
 8007234:	4620      	mov	r0, r4
 8007236:	2100      	movs	r1, #0
}
 8007238:	e8bd 4010 	ldmia.w	sp!, {r4, lr}
  (void)USBD_LL_StallEP(pdev, 0U);
 800723c:	f000 ba32 	b.w	80076a4 <USBD_LL_StallEP>

08007240 <USBD_GetString>:
  * @param  unicode : Formatted string buffer (unicode)
  * @param  len : descriptor length
  * @retval None
  */
void USBD_GetString(uint8_t *desc, uint8_t *unicode, uint16_t *len)
{
 8007240:	b570      	push	{r4, r5, r6, lr}
 8007242:	460d      	mov	r5, r1
 8007244:	4616      	mov	r6, r2
  uint8_t idx = 0U;
  uint8_t *pdesc;

  if (desc == NULL)
 8007246:	4604      	mov	r4, r0
 8007248:	b170      	cbz	r0, 8007268 <USBD_GetString+0x28>
static uint8_t USBD_GetLen(uint8_t *buf)
{
  uint8_t  len = 0U;
  uint8_t *pbuff = buf;

  while (*pbuff != (uint8_t)'\0')
 800724a:	f7f9 f839 	bl	80002c0 <strlen>
  *len = ((uint16_t)USBD_GetLen(pdesc) * 2U) + 2U;
 800724e:	b2c3      	uxtb	r3, r0
 8007250:	3301      	adds	r3, #1
 8007252:	005b      	lsls	r3, r3, #1
 8007254:	8033      	strh	r3, [r6, #0]
  unicode[idx] = *(uint8_t *)len;
 8007256:	702b      	strb	r3, [r5, #0]
  unicode[idx] = USB_DESC_TYPE_STRING;
 8007258:	2303      	movs	r3, #3
 800725a:	706b      	strb	r3, [r5, #1]
  while (*pdesc != (uint8_t)'\0')
 800725c:	3c01      	subs	r4, #1
  idx++;
 800725e:	2302      	movs	r3, #2
    unicode[idx] = 0U;
 8007260:	2100      	movs	r1, #0
  while (*pdesc != (uint8_t)'\0')
 8007262:	f814 2f01 	ldrb.w	r2, [r4, #1]!
 8007266:	b902      	cbnz	r2, 800726a <USBD_GetString+0x2a>
}
 8007268:	bd70      	pop	{r4, r5, r6, pc}
    unicode[idx] = *pdesc;
 800726a:	54ea      	strb	r2, [r5, r3]
    idx++;
 800726c:	1c5a      	adds	r2, r3, #1
    unicode[idx] = 0U;
 800726e:	b2d2      	uxtb	r2, r2
    idx++;
 8007270:	3302      	adds	r3, #2
    unicode[idx] = 0U;
 8007272:	54a9      	strb	r1, [r5, r2]
    idx++;
 8007274:	b2db      	uxtb	r3, r3
 8007276:	e7f4      	b.n	8007262 <USBD_GetString+0x22>

08007278 <USBD_CtlSendData>:
  * @param  len: length of data to be sent
  * @retval status
  */
USBD_StatusTypeDef USBD_CtlSendData(USBD_HandleTypeDef *pdev,
                                    uint8_t *pbuf, uint32_t len)
{
 8007278:	b510      	push	{r4, lr}
 800727a:	4613      	mov	r3, r2
  /* Set EP0 State */
  pdev->ep0_state = USBD_EP0_DATA_IN;
 800727c:	2202      	movs	r2, #2
  pdev->ep_in[0].total_length = len;

#ifdef USBD_AVOID_PACKET_SPLIT_MPS
  pdev->ep_in[0].rem_length = 0U;
#else
  pdev->ep_in[0].rem_length = len;
 800727e:	e9c0 3306 	strd	r3, r3, [r0, #24]
  pdev->ep0_state = USBD_EP0_DATA_IN;
 8007282:	f8c0 2294 	str.w	r2, [r0, #660]	@ 0x294
#endif

  /* Start the transfer */
  (void)USBD_LL_Transmit(pdev, 0x00U, pbuf, len);
 8007286:	460a      	mov	r2, r1
 8007288:	2100      	movs	r1, #0
 800728a:	f000 fa38 	bl	80076fe <USBD_LL_Transmit>

  return USBD_OK;
}
 800728e:	2000      	movs	r0, #0
 8007290:	bd10      	pop	{r4, pc}

08007292 <USBD_CtlContinueSendData>:
  * @param  len: length of data to be sent
  * @retval status
  */
USBD_StatusTypeDef USBD_CtlContinueSendData(USBD_HandleTypeDef *pdev,
                                            uint8_t *pbuf, uint32_t len)
{
 8007292:	b508      	push	{r3, lr}
 8007294:	4613      	mov	r3, r2
  /* Start the next transfer */
  (void)USBD_LL_Transmit(pdev, 0x00U, pbuf, len);
 8007296:	460a      	mov	r2, r1
 8007298:	2100      	movs	r1, #0
 800729a:	f000 fa30 	bl	80076fe <USBD_LL_Transmit>

  return USBD_OK;
}
 800729e:	2000      	movs	r0, #0
 80072a0:	bd08      	pop	{r3, pc}

080072a2 <USBD_CtlPrepareRx>:
  * @param  len: length of data to be received
  * @retval status
  */
USBD_StatusTypeDef USBD_CtlPrepareRx(USBD_HandleTypeDef *pdev,
                                     uint8_t *pbuf, uint32_t len)
{
 80072a2:	b510      	push	{r4, lr}
 80072a4:	4613      	mov	r3, r2
  /* Set EP0 State */
  pdev->ep0_state = USBD_EP0_DATA_OUT;
 80072a6:	2203      	movs	r2, #3
  pdev->ep_out[0].total_length = len;

#ifdef USBD_AVOID_PACKET_SPLIT_MPS
  pdev->ep_out[0].rem_length = 0U;
#else
  pdev->ep_out[0].rem_length = len;
 80072a8:	e9c0 3356 	strd	r3, r3, [r0, #344]	@ 0x158
  pdev->ep0_state = USBD_EP0_DATA_OUT;
 80072ac:	f8c0 2294 	str.w	r2, [r0, #660]	@ 0x294
#endif

  /* Start the transfer */
  (void)USBD_LL_PrepareReceive(pdev, 0U, pbuf, len);
 80072b0:	460a      	mov	r2, r1
 80072b2:	2100      	movs	r1, #0
 80072b4:	f000 fa2c 	bl	8007710 <USBD_LL_PrepareReceive>

  return USBD_OK;
}
 80072b8:	2000      	movs	r0, #0
 80072ba:	bd10      	pop	{r4, pc}

080072bc <USBD_CtlContinueRx>:
  * @param  len: length of data to be received
  * @retval status
  */
USBD_StatusTypeDef USBD_CtlContinueRx(USBD_HandleTypeDef *pdev,
                                      uint8_t *pbuf, uint32_t len)
{
 80072bc:	b508      	push	{r3, lr}
 80072be:	4613      	mov	r3, r2
  (void)USBD_LL_PrepareReceive(pdev, 0U, pbuf, len);
 80072c0:	460a      	mov	r2, r1
 80072c2:	2100      	movs	r1, #0
 80072c4:	f000 fa24 	bl	8007710 <USBD_LL_PrepareReceive>

  return USBD_OK;
}
 80072c8:	2000      	movs	r0, #0
 80072ca:	bd08      	pop	{r3, pc}

080072cc <USBD_CtlSendStatus>:
  *         send zero lzngth packet on the ctl pipe
  * @param  pdev: device instance
  * @retval status
  */
USBD_StatusTypeDef USBD_CtlSendStatus(USBD_HandleTypeDef *pdev)
{
 80072cc:	b508      	push	{r3, lr}
  /* Set EP0 State */
  pdev->ep0_state = USBD_EP0_STATUS_IN;
 80072ce:	2204      	movs	r2, #4

  /* Start the transfer */
  (void)USBD_LL_Transmit(pdev, 0x00U, NULL, 0U);
 80072d0:	2300      	movs	r3, #0
  pdev->ep0_state = USBD_EP0_STATUS_IN;
 80072d2:	f8c0 2294 	str.w	r2, [r0, #660]	@ 0x294
  (void)USBD_LL_Transmit(pdev, 0x00U, NULL, 0U);
 80072d6:	4619      	mov	r1, r3
 80072d8:	461a      	mov	r2, r3
 80072da:	f000 fa10 	bl	80076fe <USBD_LL_Transmit>

  return USBD_OK;
}
 80072de:	2000      	movs	r0, #0
 80072e0:	bd08      	pop	{r3, pc}

080072e2 <USBD_CtlReceiveStatus>:
  *         receive zero lzngth packet on the ctl pipe
  * @param  pdev: device instance
  * @retval status
  */
USBD_StatusTypeDef USBD_CtlReceiveStatus(USBD_HandleTypeDef *pdev)
{
 80072e2:	b508      	push	{r3, lr}
  /* Set EP0 State */
  pdev->ep0_state = USBD_EP0_STATUS_OUT;
 80072e4:	2205      	movs	r2, #5

  /* Start the transfer */
  (void)USBD_LL_PrepareReceive(pdev, 0U, NULL, 0U);
 80072e6:	2300      	movs	r3, #0
  pdev->ep0_state = USBD_EP0_STATUS_OUT;
 80072e8:	f8c0 2294 	str.w	r2, [r0, #660]	@ 0x294
  (void)USBD_LL_PrepareReceive(pdev, 0U, NULL, 0U);
 80072ec:	4619      	mov	r1, r3
 80072ee:	461a      	mov	r2, r3
 80072f0:	f000 fa0e 	bl	8007710 <USBD_LL_PrepareReceive>

  return USBD_OK;
}
 80072f4:	2000      	movs	r0, #0
 80072f6:	bd08      	pop	{r3, pc}

080072f8 <MX_USB_Device_Init>:
/**
  * Init USB device Library, add supported class and start the library
  * @retval None
  */
void MX_USB_Device_Init(void)
{
 80072f8:	b508      	push	{r3, lr}
  /* USER CODE BEGIN USB_Device_Init_PreTreatment */

  /* USER CODE END USB_Device_Init_PreTreatment */

  /* Init Device Library, add supported class and start the library. */
  if (USBD_Init(&hUsbDeviceFS, &CDC_Desc, DEVICE_FS) != USBD_OK) {
 80072fa:	490f      	ldr	r1, [pc, #60]	@ (8007338 <MX_USB_Device_Init+0x40>)
 80072fc:	480f      	ldr	r0, [pc, #60]	@ (800733c <MX_USB_Device_Init+0x44>)
 80072fe:	2200      	movs	r2, #0
 8007300:	f7ff fc21 	bl	8006b46 <USBD_Init>
 8007304:	b108      	cbz	r0, 800730a <MX_USB_Device_Init+0x12>
    Error_Handler();
 8007306:	f7fa fd95 	bl	8001e34 <Error_Handler>
  }
  if (USBD_RegisterClass(&hUsbDeviceFS, &USBD_CDC) != USBD_OK) {
 800730a:	490d      	ldr	r1, [pc, #52]	@ (8007340 <MX_USB_Device_Init+0x48>)
 800730c:	480b      	ldr	r0, [pc, #44]	@ (800733c <MX_USB_Device_Init+0x44>)
 800730e:	f7ff fc2d 	bl	8006b6c <USBD_RegisterClass>
 8007312:	b108      	cbz	r0, 8007318 <MX_USB_Device_Init+0x20>
    Error_Handler();
 8007314:	f7fa fd8e 	bl	8001e34 <Error_Handler>
  }
  if (USBD_CDC_RegisterInterface(&hUsbDeviceFS, &USBD_Interface_fops_FS) != USBD_OK) {
 8007318:	490a      	ldr	r1, [pc, #40]	@ (8007344 <MX_USB_Device_Init+0x4c>)
 800731a:	4808      	ldr	r0, [pc, #32]	@ (800733c <MX_USB_Device_Init+0x44>)
 800731c:	f7ff fbcd 	bl	8006aba <USBD_CDC_RegisterInterface>
 8007320:	b108      	cbz	r0, 8007326 <MX_USB_Device_Init+0x2e>
    Error_Handler();
 8007322:	f7fa fd87 	bl	8001e34 <Error_Handler>
  }
  if (USBD_Start(&hUsbDeviceFS) != USBD_OK) {
 8007326:	4805      	ldr	r0, [pc, #20]	@ (800733c <MX_USB_Device_Init+0x44>)
 8007328:	f7ff fc35 	bl	8006b96 <USBD_Start>
 800732c:	b118      	cbz	r0, 8007336 <MX_USB_Device_Init+0x3e>
    Error_Handler();
  }
  /* USER CODE BEGIN USB_Device_Init_PostTreatment */

  /* USER CODE END USB_Device_Init_PostTreatment */
}
 800732e:	e8bd 4008 	ldmia.w	sp!, {r3, lr}
    Error_Handler();
 8007332:	f7fa bd7f 	b.w	8001e34 <Error_Handler>
}
 8007336:	bd08      	pop	{r3, pc}
 8007338:	200001a8 	.word	0x200001a8
 800733c:	200009b0 	.word	0x200009b0
 8007340:	2000011c 	.word	0x2000011c
 8007344:	20000160 	.word	0x20000160

08007348 <CDC_DeInit_FS>:
static int8_t CDC_DeInit_FS(void)
{
  /* USER CODE BEGIN 4 */
  return (USBD_OK);
  /* USER CODE END 4 */
}
 8007348:	2000      	movs	r0, #0
 800734a:	4770      	bx	lr

0800734c <CDC_Control_FS>:
    break;
  }

  return (USBD_OK);
  /* USER CODE END 5 */
}
 800734c:	2000      	movs	r0, #0
 800734e:	4770      	bx	lr

08007350 <CDC_TransmitCplt_FS>:
  UNUSED(Buf);
  UNUSED(Len);
  UNUSED(epnum);
  /* USER CODE END 13 */
  return result;
}
 8007350:	2000      	movs	r0, #0
 8007352:	4770      	bx	lr

08007354 <CDC_Receive_FS>:
{
 8007354:	b570      	push	{r4, r5, r6, lr}
  USBD_CDC_SetRxBuffer(&hUsbDeviceFS, &Buf[0]);
 8007356:	4e0c      	ldr	r6, [pc, #48]	@ (8007388 <CDC_Receive_FS+0x34>)
{
 8007358:	4604      	mov	r4, r0
 800735a:	460d      	mov	r5, r1
  USBD_CDC_SetRxBuffer(&hUsbDeviceFS, &Buf[0]);
 800735c:	4601      	mov	r1, r0
 800735e:	4630      	mov	r0, r6
 8007360:	f7ff fbbd 	bl	8006ade <USBD_CDC_SetRxBuffer>
  USBD_CDC_ReceivePacket(&hUsbDeviceFS);
 8007364:	4630      	mov	r0, r6
 8007366:	f7ff fbdb 	bl	8006b20 <USBD_CDC_ReceivePacket>
  memcpy (usbBuffer, Buf, len);
 800736a:	4b08      	ldr	r3, [pc, #32]	@ (800738c <CDC_Receive_FS+0x38>)
 800736c:	782d      	ldrb	r5, [r5, #0]
 800736e:	4621      	mov	r1, r4
 8007370:	462a      	mov	r2, r5
 8007372:	4618      	mov	r0, r3
 8007374:	f000 ffe5 	bl	8008342 <memcpy>
  SystemState_UpdateFromUSB(&state, usbBuffer, len);
 8007378:	462a      	mov	r2, r5
 800737a:	4601      	mov	r1, r0
 800737c:	4804      	ldr	r0, [pc, #16]	@ (8007390 <CDC_Receive_FS+0x3c>)
 800737e:	f7fb f9e9 	bl	8002754 <SystemState_UpdateFromUSB>
}
 8007382:	2000      	movs	r0, #0
 8007384:	bd70      	pop	{r4, r5, r6, pc}
 8007386:	bf00      	nop
 8007388:	200009b0 	.word	0x200009b0
 800738c:	20000438 	.word	0x20000438
 8007390:	200003ec 	.word	0x200003ec

08007394 <CDC_Init_FS>:
{
 8007394:	b510      	push	{r4, lr}
  USBD_CDC_SetTxBuffer(&hUsbDeviceFS, UserTxBufferFS, 0);
 8007396:	4c06      	ldr	r4, [pc, #24]	@ (80073b0 <CDC_Init_FS+0x1c>)
 8007398:	4906      	ldr	r1, [pc, #24]	@ (80073b4 <CDC_Init_FS+0x20>)
 800739a:	2200      	movs	r2, #0
 800739c:	4620      	mov	r0, r4
 800739e:	f7ff fb93 	bl	8006ac8 <USBD_CDC_SetTxBuffer>
  USBD_CDC_SetRxBuffer(&hUsbDeviceFS, UserRxBufferFS);
 80073a2:	4905      	ldr	r1, [pc, #20]	@ (80073b8 <CDC_Init_FS+0x24>)
 80073a4:	4620      	mov	r0, r4
 80073a6:	f7ff fb9a 	bl	8006ade <USBD_CDC_SetRxBuffer>
}
 80073aa:	2000      	movs	r0, #0
 80073ac:	bd10      	pop	{r4, pc}
 80073ae:	bf00      	nop
 80073b0:	200009b0 	.word	0x200009b0
 80073b4:	20000c80 	.word	0x20000c80
 80073b8:	20001480 	.word	0x20001480

080073bc <CDC_Transmit_FS>:
{
 80073bc:	b510      	push	{r4, lr}
  USBD_CDC_HandleTypeDef *hcdc = (USBD_CDC_HandleTypeDef*)hUsbDeviceFS.pClassData;
 80073be:	4c09      	ldr	r4, [pc, #36]	@ (80073e4 <CDC_Transmit_FS+0x28>)
 80073c0:	f8d4 32bc 	ldr.w	r3, [r4, #700]	@ 0x2bc
  if (hcdc->TxState != 0){
 80073c4:	f8d3 3214 	ldr.w	r3, [r3, #532]	@ 0x214
{
 80073c8:	460a      	mov	r2, r1
  if (hcdc->TxState != 0){
 80073ca:	b943      	cbnz	r3, 80073de <CDC_Transmit_FS+0x22>
  USBD_CDC_SetTxBuffer(&hUsbDeviceFS, Buf, Len);
 80073cc:	4601      	mov	r1, r0
 80073ce:	4620      	mov	r0, r4
 80073d0:	f7ff fb7a 	bl	8006ac8 <USBD_CDC_SetTxBuffer>
  result = USBD_CDC_TransmitPacket(&hUsbDeviceFS);
 80073d4:	4620      	mov	r0, r4
}
 80073d6:	e8bd 4010 	ldmia.w	sp!, {r4, lr}
  result = USBD_CDC_TransmitPacket(&hUsbDeviceFS);
 80073da:	f7ff bb89 	b.w	8006af0 <USBD_CDC_TransmitPacket>
}
 80073de:	2001      	movs	r0, #1
 80073e0:	bd10      	pop	{r4, pc}
 80073e2:	bf00      	nop
 80073e4:	200009b0 	.word	0x200009b0

080073e8 <USBD_CDC_DeviceDescriptor>:
  * @retval Pointer to descriptor buffer
  */
uint8_t * USBD_CDC_DeviceDescriptor(USBD_SpeedTypeDef speed, uint16_t *length)
{
  UNUSED(speed);
  *length = sizeof(USBD_CDC_DeviceDesc);
 80073e8:	2312      	movs	r3, #18
  return USBD_CDC_DeviceDesc;
}
 80073ea:	4801      	ldr	r0, [pc, #4]	@ (80073f0 <USBD_CDC_DeviceDescriptor+0x8>)
  *length = sizeof(USBD_CDC_DeviceDesc);
 80073ec:	800b      	strh	r3, [r1, #0]
}
 80073ee:	4770      	bx	lr
 80073f0:	20000194 	.word	0x20000194

080073f4 <USBD_CDC_LangIDStrDescriptor>:
  * @retval Pointer to descriptor buffer
  */
uint8_t * USBD_CDC_LangIDStrDescriptor(USBD_SpeedTypeDef speed, uint16_t *length)
{
  UNUSED(speed);
  *length = sizeof(USBD_LangIDDesc);
 80073f4:	2304      	movs	r3, #4
  return USBD_LangIDDesc;
}
 80073f6:	4801      	ldr	r0, [pc, #4]	@ (80073fc <USBD_CDC_LangIDStrDescriptor+0x8>)
  *length = sizeof(USBD_LangIDDesc);
 80073f8:	800b      	strh	r3, [r1, #0]
}
 80073fa:	4770      	bx	lr
 80073fc:	20000190 	.word	0x20000190

08007400 <IntToUnicode>:
  * @param  pbuf: pointer to the buffer
  * @param  len: buffer length
  * @retval None
  */
static void IntToUnicode(uint32_t value, uint8_t * pbuf, uint8_t len)
{
 8007400:	2300      	movs	r3, #0
 8007402:	b570      	push	{r4, r5, r6, lr}
      pbuf[2 * idx] = (value >> 28) + 'A' - 10;
    }

    value = value << 4;

    pbuf[2 * idx + 1] = 0;
 8007404:	1c4d      	adds	r5, r1, #1
 8007406:	461e      	mov	r6, r3
      pbuf[2 * idx] = (value >> 28) + '0';
 8007408:	0f04      	lsrs	r4, r0, #28
    if (((value >> 28)) < 0xA)
 800740a:	f1b0 4f20 	cmp.w	r0, #2684354560	@ 0xa0000000
      pbuf[2 * idx] = (value >> 28) + '0';
 800740e:	bf34      	ite	cc
 8007410:	3430      	addcc	r4, #48	@ 0x30
      pbuf[2 * idx] = (value >> 28) + 'A' - 10;
 8007412:	3437      	addcs	r4, #55	@ 0x37
      pbuf[2 * idx] = (value >> 28) + '0';
 8007414:	f801 4013 	strb.w	r4, [r1, r3, lsl #1]
    pbuf[2 * idx + 1] = 0;
 8007418:	f805 6013 	strb.w	r6, [r5, r3, lsl #1]
  for (idx = 0; idx < len; idx++)
 800741c:	3301      	adds	r3, #1
 800741e:	b2dc      	uxtb	r4, r3
 8007420:	42a2      	cmp	r2, r4
    value = value << 4;
 8007422:	ea4f 1000 	mov.w	r0, r0, lsl #4
  for (idx = 0; idx < len; idx++)
 8007426:	d8ef      	bhi.n	8007408 <IntToUnicode+0x8>
  }
}
 8007428:	bd70      	pop	{r4, r5, r6, pc}
	...

0800742c <USBD_CDC_SerialStrDescriptor>:
  *length = USB_SIZ_STRING_SERIAL;
 800742c:	231a      	movs	r3, #26
{
 800742e:	b510      	push	{r4, lr}
  *length = USB_SIZ_STRING_SERIAL;
 8007430:	800b      	strh	r3, [r1, #0]
  deviceserial0 = *(uint32_t *) DEVICE_ID1;
 8007432:	4b0a      	ldr	r3, [pc, #40]	@ (800745c <USBD_CDC_SerialStrDescriptor+0x30>)
 8007434:	f8d3 0590 	ldr.w	r0, [r3, #1424]	@ 0x590
  deviceserial0 += deviceserial2;
 8007438:	f8d3 2598 	ldr.w	r2, [r3, #1432]	@ 0x598
  if (deviceserial0 != 0)
 800743c:	1880      	adds	r0, r0, r2
 800743e:	d00a      	beq.n	8007456 <USBD_CDC_SerialStrDescriptor+0x2a>
  deviceserial1 = *(uint32_t *) DEVICE_ID2;
 8007440:	f8d3 4594 	ldr.w	r4, [r3, #1428]	@ 0x594
    IntToUnicode(deviceserial0, &USBD_StringSerial[2], 8);
 8007444:	4906      	ldr	r1, [pc, #24]	@ (8007460 <USBD_CDC_SerialStrDescriptor+0x34>)
 8007446:	2208      	movs	r2, #8
 8007448:	f7ff ffda 	bl	8007400 <IntToUnicode>
    IntToUnicode(deviceserial1, &USBD_StringSerial[18], 4);
 800744c:	2204      	movs	r2, #4
 800744e:	3110      	adds	r1, #16
 8007450:	4620      	mov	r0, r4
 8007452:	f7ff ffd5 	bl	8007400 <IntToUnicode>
}
 8007456:	4803      	ldr	r0, [pc, #12]	@ (8007464 <USBD_CDC_SerialStrDescriptor+0x38>)
 8007458:	bd10      	pop	{r4, pc}
 800745a:	bf00      	nop
 800745c:	1fff7000 	.word	0x1fff7000
 8007460:	20000176 	.word	0x20000176
 8007464:	20000174 	.word	0x20000174

08007468 <USBD_CDC_ManufacturerStrDescriptor>:
{
 8007468:	b510      	push	{r4, lr}
  USBD_GetString((uint8_t *)USBD_MANUFACTURER_STRING, USBD_StrDesc, length);
 800746a:	4c04      	ldr	r4, [pc, #16]	@ (800747c <USBD_CDC_ManufacturerStrDescriptor+0x14>)
 800746c:	4804      	ldr	r0, [pc, #16]	@ (8007480 <USBD_CDC_ManufacturerStrDescriptor+0x18>)
{
 800746e:	460a      	mov	r2, r1
  USBD_GetString((uint8_t *)USBD_MANUFACTURER_STRING, USBD_StrDesc, length);
 8007470:	4621      	mov	r1, r4
 8007472:	f7ff fee5 	bl	8007240 <USBD_GetString>
}
 8007476:	4620      	mov	r0, r4
 8007478:	bd10      	pop	{r4, pc}
 800747a:	bf00      	nop
 800747c:	20001c80 	.word	0x20001c80
 8007480:	0800a0c4 	.word	0x0800a0c4

08007484 <USBD_CDC_ProductStrDescriptor>:
{
 8007484:	b510      	push	{r4, lr}
    USBD_GetString((uint8_t *)USBD_PRODUCT_STRING, USBD_StrDesc, length);
 8007486:	4c04      	ldr	r4, [pc, #16]	@ (8007498 <USBD_CDC_ProductStrDescriptor+0x14>)
 8007488:	4804      	ldr	r0, [pc, #16]	@ (800749c <USBD_CDC_ProductStrDescriptor+0x18>)
{
 800748a:	460a      	mov	r2, r1
    USBD_GetString((uint8_t *)USBD_PRODUCT_STRING, USBD_StrDesc, length);
 800748c:	4621      	mov	r1, r4
 800748e:	f7ff fed7 	bl	8007240 <USBD_GetString>
}
 8007492:	4620      	mov	r0, r4
 8007494:	bd10      	pop	{r4, pc}
 8007496:	bf00      	nop
 8007498:	20001c80 	.word	0x20001c80
 800749c:	0800a0d7 	.word	0x0800a0d7

080074a0 <USBD_CDC_ConfigStrDescriptor>:
{
 80074a0:	b510      	push	{r4, lr}
    USBD_GetString((uint8_t *)USBD_CONFIGURATION_STRING, USBD_StrDesc, length);
 80074a2:	4c04      	ldr	r4, [pc, #16]	@ (80074b4 <USBD_CDC_ConfigStrDescriptor+0x14>)
 80074a4:	4804      	ldr	r0, [pc, #16]	@ (80074b8 <USBD_CDC_ConfigStrDescriptor+0x18>)
{
 80074a6:	460a      	mov	r2, r1
    USBD_GetString((uint8_t *)USBD_CONFIGURATION_STRING, USBD_StrDesc, length);
 80074a8:	4621      	mov	r1, r4
 80074aa:	f7ff fec9 	bl	8007240 <USBD_GetString>
}
 80074ae:	4620      	mov	r0, r4
 80074b0:	bd10      	pop	{r4, pc}
 80074b2:	bf00      	nop
 80074b4:	20001c80 	.word	0x20001c80
 80074b8:	0800a0ed 	.word	0x0800a0ed

080074bc <USBD_CDC_InterfaceStrDescriptor>:
{
 80074bc:	b510      	push	{r4, lr}
    USBD_GetString((uint8_t *)USBD_INTERFACE_STRING, USBD_StrDesc, length);
 80074be:	4c04      	ldr	r4, [pc, #16]	@ (80074d0 <USBD_CDC_InterfaceStrDescriptor+0x14>)
 80074c0:	4804      	ldr	r0, [pc, #16]	@ (80074d4 <USBD_CDC_InterfaceStrDescriptor+0x18>)
{
 80074c2:	460a      	mov	r2, r1
    USBD_GetString((uint8_t *)USBD_INTERFACE_STRING, USBD_StrDesc, length);
 80074c4:	4621      	mov	r1, r4
 80074c6:	f7ff febb 	bl	8007240 <USBD_GetString>
}
 80074ca:	4620      	mov	r0, r4
 80074cc:	bd10      	pop	{r4, pc}
 80074ce:	bf00      	nop
 80074d0:	20001c80 	.word	0x20001c80
 80074d4:	0800a0f8 	.word	0x0800a0f8

080074d8 <USBD_Get_USB_Status>:
  */
USBD_StatusTypeDef USBD_Get_USB_Status(HAL_StatusTypeDef hal_status)
{
  USBD_StatusTypeDef usb_status = USBD_OK;

  switch (hal_status)
 80074d8:	b118      	cbz	r0, 80074e2 <USBD_Get_USB_Status+0xa>
 80074da:	2802      	cmp	r0, #2
 80074dc:	bf0c      	ite	eq
 80074de:	2001      	moveq	r0, #1
 80074e0:	2003      	movne	r0, #3
    default :
      usb_status = USBD_FAIL;
    break;
  }
  return usb_status;
}
 80074e2:	4770      	bx	lr

080074e4 <HAL_PCD_MspInit>:
{
 80074e4:	b510      	push	{r4, lr}
 80074e6:	4604      	mov	r4, r0
 80074e8:	b096      	sub	sp, #88	@ 0x58
  RCC_PeriphCLKInitTypeDef PeriphClkInit = {0};
 80074ea:	2254      	movs	r2, #84	@ 0x54
 80074ec:	2100      	movs	r1, #0
 80074ee:	a801      	add	r0, sp, #4
 80074f0:	f000 fe9f 	bl	8008232 <memset>
  if(pcdHandle->Instance==USB)
 80074f4:	6822      	ldr	r2, [r4, #0]
 80074f6:	4b11      	ldr	r3, [pc, #68]	@ (800753c <HAL_PCD_MspInit+0x58>)
 80074f8:	429a      	cmp	r2, r3
 80074fa:	d11d      	bne.n	8007538 <HAL_PCD_MspInit+0x54>
    PeriphClkInit.PeriphClockSelection = RCC_PERIPHCLK_USB;
 80074fc:	f44f 5300 	mov.w	r3, #8192	@ 0x2000
 8007500:	9301      	str	r3, [sp, #4]
    if (HAL_RCCEx_PeriphCLKConfig(&PeriphClkInit) != HAL_OK)
 8007502:	a801      	add	r0, sp, #4
    PeriphClkInit.UsbClockSelection = RCC_USBCLKSOURCE_PLL;
 8007504:	f04f 6300 	mov.w	r3, #134217728	@ 0x8000000
 8007508:	9310      	str	r3, [sp, #64]	@ 0x40
    if (HAL_RCCEx_PeriphCLKConfig(&PeriphClkInit) != HAL_OK)
 800750a:	f7fd f997 	bl	800483c <HAL_RCCEx_PeriphCLKConfig>
 800750e:	b108      	cbz	r0, 8007514 <HAL_PCD_MspInit+0x30>
      Error_Handler();
 8007510:	f7fa fc90 	bl	8001e34 <Error_Handler>
    __HAL_RCC_USB_CLK_ENABLE();
 8007514:	4b0a      	ldr	r3, [pc, #40]	@ (8007540 <HAL_PCD_MspInit+0x5c>)
 8007516:	6d9a      	ldr	r2, [r3, #88]	@ 0x58
 8007518:	f442 0200 	orr.w	r2, r2, #8388608	@ 0x800000
 800751c:	659a      	str	r2, [r3, #88]	@ 0x58
 800751e:	6d9b      	ldr	r3, [r3, #88]	@ 0x58
    HAL_NVIC_SetPriority(USB_LP_IRQn, 0, 0);
 8007520:	2200      	movs	r2, #0
    __HAL_RCC_USB_CLK_ENABLE();
 8007522:	f403 0300 	and.w	r3, r3, #8388608	@ 0x800000
 8007526:	9300      	str	r3, [sp, #0]
    HAL_NVIC_SetPriority(USB_LP_IRQn, 0, 0);
 8007528:	2014      	movs	r0, #20
 800752a:	4611      	mov	r1, r2
    __HAL_RCC_USB_CLK_ENABLE();
 800752c:	9b00      	ldr	r3, [sp, #0]
    HAL_NVIC_SetPriority(USB_LP_IRQn, 0, 0);
 800752e:	f7fb fa3f 	bl	80029b0 <HAL_NVIC_SetPriority>
    HAL_NVIC_EnableIRQ(USB_LP_IRQn);
 8007532:	2014      	movs	r0, #20
 8007534:	f7fb fa6e 	bl	8002a14 <HAL_NVIC_EnableIRQ>
}
 8007538:	b016      	add	sp, #88	@ 0x58
 800753a:	bd10      	pop	{r4, pc}
 800753c:	40005c00 	.word	0x40005c00
 8007540:	40021000 	.word	0x40021000

08007544 <HAL_PCD_SetupStageCallback>:
  USBD_LL_SetupStage((USBD_HandleTypeDef*)hpcd->pData, (uint8_t *)hpcd->Setup);
 8007544:	f500 7126 	add.w	r1, r0, #664	@ 0x298
 8007548:	f8d0 02d8 	ldr.w	r0, [r0, #728]	@ 0x2d8
 800754c:	f7ff bb34 	b.w	8006bb8 <USBD_LL_SetupStage>

08007550 <HAL_PCD_DataOutStageCallback>:
  USBD_LL_DataOutStage((USBD_HandleTypeDef*)hpcd->pData, epnum, hpcd->OUT_ep[epnum].xfer_buff);
 8007550:	2328      	movs	r3, #40	@ 0x28
 8007552:	fb03 0301 	mla	r3, r3, r1, r0
 8007556:	f8d0 02d8 	ldr.w	r0, [r0, #728]	@ 0x2d8
 800755a:	f8d3 2164 	ldr.w	r2, [r3, #356]	@ 0x164
 800755e:	f7ff bb5b 	b.w	8006c18 <USBD_LL_DataOutStage>

08007562 <HAL_PCD_DataInStageCallback>:
  USBD_LL_DataInStage((USBD_HandleTypeDef*)hpcd->pData, epnum, hpcd->IN_ep[epnum].xfer_buff);
 8007562:	2328      	movs	r3, #40	@ 0x28
 8007564:	fb03 0301 	mla	r3, r3, r1, r0
 8007568:	f8d0 02d8 	ldr.w	r0, [r0, #728]	@ 0x2d8
 800756c:	6a5a      	ldr	r2, [r3, #36]	@ 0x24
 800756e:	f7ff bb83 	b.w	8006c78 <USBD_LL_DataInStage>

08007572 <HAL_PCD_SOFCallback>:
  USBD_LL_SOF((USBD_HandleTypeDef*)hpcd->pData);
 8007572:	f8d0 02d8 	ldr.w	r0, [r0, #728]	@ 0x2d8
 8007576:	f7ff bc10 	b.w	8006d9a <USBD_LL_SOF>

0800757a <HAL_PCD_ResetCallback>:
{
 800757a:	b510      	push	{r4, lr}
  if ( hpcd->Init.speed != PCD_SPEED_FULL)
 800757c:	7943      	ldrb	r3, [r0, #5]
 800757e:	2b02      	cmp	r3, #2
{
 8007580:	4604      	mov	r4, r0
  if ( hpcd->Init.speed != PCD_SPEED_FULL)
 8007582:	d001      	beq.n	8007588 <HAL_PCD_ResetCallback+0xe>
    Error_Handler();
 8007584:	f7fa fc56 	bl	8001e34 <Error_Handler>
  USBD_LL_SetSpeed((USBD_HandleTypeDef*)hpcd->pData, speed);
 8007588:	f8d4 02d8 	ldr.w	r0, [r4, #728]	@ 0x2d8
 800758c:	2101      	movs	r1, #1
 800758e:	f7ff fbec 	bl	8006d6a <USBD_LL_SetSpeed>
  USBD_LL_Reset((USBD_HandleTypeDef*)hpcd->pData);
 8007592:	f8d4 02d8 	ldr.w	r0, [r4, #728]	@ 0x2d8
}
 8007596:	e8bd 4010 	ldmia.w	sp!, {r4, lr}
  USBD_LL_Reset((USBD_HandleTypeDef*)hpcd->pData);
 800759a:	f7ff bbba 	b.w	8006d12 <USBD_LL_Reset>
	...

080075a0 <HAL_PCD_SuspendCallback>:
{
 80075a0:	b510      	push	{r4, lr}
 80075a2:	4604      	mov	r4, r0
  USBD_LL_Suspend((USBD_HandleTypeDef*)hpcd->pData);
 80075a4:	f8d0 02d8 	ldr.w	r0, [r0, #728]	@ 0x2d8
 80075a8:	f7ff fbe2 	bl	8006d70 <USBD_LL_Suspend>
  if (hpcd->Init.low_power_enable)
 80075ac:	7a63      	ldrb	r3, [r4, #9]
 80075ae:	b123      	cbz	r3, 80075ba <HAL_PCD_SuspendCallback+0x1a>
    SCB->SCR |= (uint32_t)((uint32_t)(SCB_SCR_SLEEPDEEP_Msk | SCB_SCR_SLEEPONEXIT_Msk));
 80075b0:	4a02      	ldr	r2, [pc, #8]	@ (80075bc <HAL_PCD_SuspendCallback+0x1c>)
 80075b2:	6913      	ldr	r3, [r2, #16]
 80075b4:	f043 0306 	orr.w	r3, r3, #6
 80075b8:	6113      	str	r3, [r2, #16]
}
 80075ba:	bd10      	pop	{r4, pc}
 80075bc:	e000ed00 	.word	0xe000ed00

080075c0 <HAL_PCD_ResumeCallback>:
{
 80075c0:	b510      	push	{r4, lr}
  if (hpcd->Init.low_power_enable)
 80075c2:	7a43      	ldrb	r3, [r0, #9]
{
 80075c4:	4604      	mov	r4, r0
  if (hpcd->Init.low_power_enable)
 80075c6:	b133      	cbz	r3, 80075d6 <HAL_PCD_ResumeCallback+0x16>
    SCB->SCR &= (uint32_t)~((uint32_t)(SCB_SCR_SLEEPDEEP_Msk | SCB_SCR_SLEEPONEXIT_Msk));
 80075c8:	4a06      	ldr	r2, [pc, #24]	@ (80075e4 <HAL_PCD_ResumeCallback+0x24>)
 80075ca:	6913      	ldr	r3, [r2, #16]
 80075cc:	f023 0306 	bic.w	r3, r3, #6
 80075d0:	6113      	str	r3, [r2, #16]
  SystemClock_Config();
 80075d2:	f7f9 ffa3 	bl	800151c <SystemClock_Config>
  USBD_LL_Resume((USBD_HandleTypeDef*)hpcd->pData);
 80075d6:	f8d4 02d8 	ldr.w	r0, [r4, #728]	@ 0x2d8
}
 80075da:	e8bd 4010 	ldmia.w	sp!, {r4, lr}
  USBD_LL_Resume((USBD_HandleTypeDef*)hpcd->pData);
 80075de:	f7ff bbd1 	b.w	8006d84 <USBD_LL_Resume>
 80075e2:	bf00      	nop
 80075e4:	e000ed00 	.word	0xe000ed00

080075e8 <USBD_LL_Init>:
{
 80075e8:	b510      	push	{r4, lr}
 80075ea:	4604      	mov	r4, r0
  hpcd_USB_FS.pData = pdev;
 80075ec:	481c      	ldr	r0, [pc, #112]	@ (8007660 <USBD_LL_Init+0x78>)
  hpcd_USB_FS.Instance = USB;
 80075ee:	4b1d      	ldr	r3, [pc, #116]	@ (8007664 <USBD_LL_Init+0x7c>)
 80075f0:	6003      	str	r3, [r0, #0]
  hpcd_USB_FS.Init.dev_endpoints = 8;
 80075f2:	f44f 7302 	mov.w	r3, #520	@ 0x208
 80075f6:	8083      	strh	r3, [r0, #4]
  hpcd_USB_FS.Init.phy_itface = PCD_PHY_EMBEDDED;
 80075f8:	2302      	movs	r3, #2
  hpcd_USB_FS.pData = pdev;
 80075fa:	f8c0 42d8 	str.w	r4, [r0, #728]	@ 0x2d8
  hpcd_USB_FS.Init.phy_itface = PCD_PHY_EMBEDDED;
 80075fe:	71c3      	strb	r3, [r0, #7]
  pdev->pData = &hpcd_USB_FS;
 8007600:	f8c4 02c4 	str.w	r0, [r4, #708]	@ 0x2c4
  hpcd_USB_FS.Init.Sof_enable = DISABLE;
 8007604:	2300      	movs	r3, #0
 8007606:	6083      	str	r3, [r0, #8]
  if (HAL_PCD_Init(&hpcd_USB_FS) != HAL_OK)
 8007608:	f7fb fedf 	bl	80033ca <HAL_PCD_Init>
 800760c:	b108      	cbz	r0, 8007612 <USBD_LL_Init+0x2a>
    Error_Handler( );
 800760e:	f7fa fc11 	bl	8001e34 <Error_Handler>
  HAL_PCDEx_PMAConfig((PCD_HandleTypeDef*)pdev->pData , 0x00 , PCD_SNG_BUF, 0x18);
 8007612:	2200      	movs	r2, #0
 8007614:	4611      	mov	r1, r2
 8007616:	f8d4 02c4 	ldr.w	r0, [r4, #708]	@ 0x2c4
 800761a:	2318      	movs	r3, #24
 800761c:	f7fc fd36 	bl	800408c <HAL_PCDEx_PMAConfig>
  HAL_PCDEx_PMAConfig((PCD_HandleTypeDef*)pdev->pData , 0x80 , PCD_SNG_BUF, 0x58);
 8007620:	f8d4 02c4 	ldr.w	r0, [r4, #708]	@ 0x2c4
 8007624:	2358      	movs	r3, #88	@ 0x58
 8007626:	2200      	movs	r2, #0
 8007628:	2180      	movs	r1, #128	@ 0x80
 800762a:	f7fc fd2f 	bl	800408c <HAL_PCDEx_PMAConfig>
  HAL_PCDEx_PMAConfig((PCD_HandleTypeDef*)pdev->pData , 0x81 , PCD_SNG_BUF, 0xC0);
 800762e:	f8d4 02c4 	ldr.w	r0, [r4, #708]	@ 0x2c4
 8007632:	23c0      	movs	r3, #192	@ 0xc0
 8007634:	2200      	movs	r2, #0
 8007636:	2181      	movs	r1, #129	@ 0x81
 8007638:	f7fc fd28 	bl	800408c <HAL_PCDEx_PMAConfig>
  HAL_PCDEx_PMAConfig((PCD_HandleTypeDef*)pdev->pData , 0x01 , PCD_SNG_BUF, 0x110);
 800763c:	f8d4 02c4 	ldr.w	r0, [r4, #708]	@ 0x2c4
 8007640:	f44f 7388 	mov.w	r3, #272	@ 0x110
 8007644:	2200      	movs	r2, #0
 8007646:	2101      	movs	r1, #1
 8007648:	f7fc fd20 	bl	800408c <HAL_PCDEx_PMAConfig>
  HAL_PCDEx_PMAConfig((PCD_HandleTypeDef*)pdev->pData , 0x82 , PCD_SNG_BUF, 0x100);
 800764c:	f8d4 02c4 	ldr.w	r0, [r4, #708]	@ 0x2c4
 8007650:	f44f 7380 	mov.w	r3, #256	@ 0x100
 8007654:	2200      	movs	r2, #0
 8007656:	2182      	movs	r1, #130	@ 0x82
 8007658:	f7fc fd18 	bl	800408c <HAL_PCDEx_PMAConfig>
}
 800765c:	2000      	movs	r0, #0
 800765e:	bd10      	pop	{r4, pc}
 8007660:	200020a0 	.word	0x200020a0
 8007664:	40005c00 	.word	0x40005c00

08007668 <USBD_LL_Start>:
{
 8007668:	b508      	push	{r3, lr}
  hal_status = HAL_PCD_Start(pdev->pData);
 800766a:	f8d0 02c4 	ldr.w	r0, [r0, #708]	@ 0x2c4
 800766e:	f7fb ff00 	bl	8003472 <HAL_PCD_Start>
}
 8007672:	e8bd 4008 	ldmia.w	sp!, {r3, lr}
  usb_status =  USBD_Get_USB_Status(hal_status);
 8007676:	f7ff bf2f 	b.w	80074d8 <USBD_Get_USB_Status>

0800767a <USBD_LL_OpenEP>:
{
 800767a:	b510      	push	{r4, lr}
 800767c:	4614      	mov	r4, r2
  hal_status = HAL_PCD_EP_Open(pdev->pData, ep_addr, ep_mps, ep_type);
 800767e:	f8d0 02c4 	ldr.w	r0, [r0, #708]	@ 0x2c4
{
 8007682:	461a      	mov	r2, r3
  hal_status = HAL_PCD_EP_Open(pdev->pData, ep_addr, ep_mps, ep_type);
 8007684:	4623      	mov	r3, r4
 8007686:	f7fc fbfd 	bl	8003e84 <HAL_PCD_EP_Open>
}
 800768a:	e8bd 4010 	ldmia.w	sp!, {r4, lr}
  usb_status =  USBD_Get_USB_Status(hal_status);
 800768e:	f7ff bf23 	b.w	80074d8 <USBD_Get_USB_Status>

08007692 <USBD_LL_CloseEP>:
{
 8007692:	b508      	push	{r3, lr}
  hal_status = HAL_PCD_EP_Close(pdev->pData, ep_addr);
 8007694:	f8d0 02c4 	ldr.w	r0, [r0, #708]	@ 0x2c4
 8007698:	f7fc fc2a 	bl	8003ef0 <HAL_PCD_EP_Close>
}
 800769c:	e8bd 4008 	ldmia.w	sp!, {r3, lr}
  usb_status =  USBD_Get_USB_Status(hal_status);
 80076a0:	f7ff bf1a 	b.w	80074d8 <USBD_Get_USB_Status>

080076a4 <USBD_LL_StallEP>:
{
 80076a4:	b508      	push	{r3, lr}
  hal_status = HAL_PCD_EP_SetStall(pdev->pData, ep_addr);
 80076a6:	f8d0 02c4 	ldr.w	r0, [r0, #708]	@ 0x2c4
 80076aa:	f7fc fc88 	bl	8003fbe <HAL_PCD_EP_SetStall>
}
 80076ae:	e8bd 4008 	ldmia.w	sp!, {r3, lr}
  usb_status =  USBD_Get_USB_Status(hal_status);
 80076b2:	f7ff bf11 	b.w	80074d8 <USBD_Get_USB_Status>

080076b6 <USBD_LL_ClearStallEP>:
{
 80076b6:	b508      	push	{r3, lr}
  hal_status = HAL_PCD_EP_ClrStall(pdev->pData, ep_addr);
 80076b8:	f8d0 02c4 	ldr.w	r0, [r0, #708]	@ 0x2c4
 80076bc:	f7fc fcaf 	bl	800401e <HAL_PCD_EP_ClrStall>
}
 80076c0:	e8bd 4008 	ldmia.w	sp!, {r3, lr}
  usb_status =  USBD_Get_USB_Status(hal_status);
 80076c4:	f7ff bf08 	b.w	80074d8 <USBD_Get_USB_Status>

080076c8 <USBD_LL_IsStallEP>:
  if((ep_addr & 0x80) == 0x80)
 80076c8:	f011 0f80 	tst.w	r1, #128	@ 0x80
  PCD_HandleTypeDef *hpcd = (PCD_HandleTypeDef*) pdev->pData;
 80076cc:	f8d0 32c4 	ldr.w	r3, [r0, #708]	@ 0x2c4
  if((ep_addr & 0x80) == 0x80)
 80076d0:	f04f 0228 	mov.w	r2, #40	@ 0x28
    return hpcd->IN_ep[ep_addr & 0x7F].is_stall;
 80076d4:	bf1b      	ittet	ne
 80076d6:	f001 017f 	andne.w	r1, r1, #127	@ 0x7f
 80076da:	fb02 3301 	mlane	r3, r2, r1, r3
    return hpcd->OUT_ep[ep_addr & 0x7F].is_stall;
 80076de:	fb02 3301 	mlaeq	r3, r2, r1, r3
    return hpcd->IN_ep[ep_addr & 0x7F].is_stall;
 80076e2:	7c98      	ldrbne	r0, [r3, #18]
    return hpcd->OUT_ep[ep_addr & 0x7F].is_stall;
 80076e4:	bf08      	it	eq
 80076e6:	f893 0152 	ldrbeq.w	r0, [r3, #338]	@ 0x152
}
 80076ea:	4770      	bx	lr

080076ec <USBD_LL_SetUSBAddress>:
{
 80076ec:	b508      	push	{r3, lr}
  hal_status = HAL_PCD_SetAddress(pdev->pData, dev_addr);
 80076ee:	f8d0 02c4 	ldr.w	r0, [r0, #708]	@ 0x2c4
 80076f2:	f7fb fed3 	bl	800349c <HAL_PCD_SetAddress>
}
 80076f6:	e8bd 4008 	ldmia.w	sp!, {r3, lr}
  usb_status =  USBD_Get_USB_Status(hal_status);
 80076fa:	f7ff beed 	b.w	80074d8 <USBD_Get_USB_Status>

080076fe <USBD_LL_Transmit>:
{
 80076fe:	b508      	push	{r3, lr}
  hal_status = HAL_PCD_EP_Transmit(pdev->pData, ep_addr, pbuf, size);
 8007700:	f8d0 02c4 	ldr.w	r0, [r0, #708]	@ 0x2c4
 8007704:	f7fc fc40 	bl	8003f88 <HAL_PCD_EP_Transmit>
}
 8007708:	e8bd 4008 	ldmia.w	sp!, {r3, lr}
  usb_status =  USBD_Get_USB_Status(hal_status);
 800770c:	f7ff bee4 	b.w	80074d8 <USBD_Get_USB_Status>

08007710 <USBD_LL_PrepareReceive>:
{
 8007710:	b508      	push	{r3, lr}
  hal_status = HAL_PCD_EP_Receive(pdev->pData, ep_addr, pbuf, size);
 8007712:	f8d0 02c4 	ldr.w	r0, [r0, #708]	@ 0x2c4
 8007716:	f7fc fc19 	bl	8003f4c <HAL_PCD_EP_Receive>
}
 800771a:	e8bd 4008 	ldmia.w	sp!, {r3, lr}
  usb_status =  USBD_Get_USB_Status(hal_status);
 800771e:	f7ff bedb 	b.w	80074d8 <USBD_Get_USB_Status>

08007722 <USBD_LL_GetRxDataSize>:
  return HAL_PCD_EP_GetRxCount((PCD_HandleTypeDef*) pdev->pData, ep_addr);
 8007722:	f8d0 02c4 	ldr.w	r0, [r0, #708]	@ 0x2c4
 8007726:	f7fc bc27 	b.w	8003f78 <HAL_PCD_EP_GetRxCount>
	...

0800772c <HAL_PCDEx_LPM_Callback>:
{
 800772c:	b510      	push	{r4, lr}
 800772e:	4604      	mov	r4, r0
  switch (msg)
 8007730:	b111      	cbz	r1, 8007738 <HAL_PCDEx_LPM_Callback+0xc>
 8007732:	2901      	cmp	r1, #1
 8007734:	d00f      	beq.n	8007756 <HAL_PCDEx_LPM_Callback+0x2a>
}
 8007736:	bd10      	pop	{r4, pc}
    if (hpcd->Init.low_power_enable)
 8007738:	7a43      	ldrb	r3, [r0, #9]
 800773a:	b133      	cbz	r3, 800774a <HAL_PCDEx_LPM_Callback+0x1e>
  SystemClock_Config();
 800773c:	f7f9 feee 	bl	800151c <SystemClock_Config>
      SCB->SCR &= (uint32_t)~((uint32_t)(SCB_SCR_SLEEPDEEP_Msk | SCB_SCR_SLEEPONEXIT_Msk));
 8007740:	4a0b      	ldr	r2, [pc, #44]	@ (8007770 <HAL_PCDEx_LPM_Callback+0x44>)
 8007742:	6913      	ldr	r3, [r2, #16]
 8007744:	f023 0306 	bic.w	r3, r3, #6
 8007748:	6113      	str	r3, [r2, #16]
    USBD_LL_Resume(hpcd->pData);
 800774a:	f8d4 02d8 	ldr.w	r0, [r4, #728]	@ 0x2d8
}
 800774e:	e8bd 4010 	ldmia.w	sp!, {r4, lr}
    USBD_LL_Resume(hpcd->pData);
 8007752:	f7ff bb17 	b.w	8006d84 <USBD_LL_Resume>
    USBD_LL_Suspend(hpcd->pData);
 8007756:	f8d0 02d8 	ldr.w	r0, [r0, #728]	@ 0x2d8
 800775a:	f7ff fb09 	bl	8006d70 <USBD_LL_Suspend>
    if (hpcd->Init.low_power_enable)
 800775e:	7a63      	ldrb	r3, [r4, #9]
 8007760:	2b00      	cmp	r3, #0
 8007762:	d0e8      	beq.n	8007736 <HAL_PCDEx_LPM_Callback+0xa>
      SCB->SCR |= (uint32_t)((uint32_t)(SCB_SCR_SLEEPDEEP_Msk | SCB_SCR_SLEEPONEXIT_Msk));
 8007764:	4a02      	ldr	r2, [pc, #8]	@ (8007770 <HAL_PCDEx_LPM_Callback+0x44>)
 8007766:	6913      	ldr	r3, [r2, #16]
 8007768:	f043 0306 	orr.w	r3, r3, #6
 800776c:	6113      	str	r3, [r2, #16]
}
 800776e:	e7e2      	b.n	8007736 <HAL_PCDEx_LPM_Callback+0xa>
 8007770:	e000ed00 	.word	0xe000ed00

08007774 <USBD_static_malloc>:
}
 8007774:	4800      	ldr	r0, [pc, #0]	@ (8007778 <USBD_static_malloc+0x4>)
 8007776:	4770      	bx	lr
 8007778:	20001e80 	.word	0x20001e80

0800777c <USBD_static_free>:
}
 800777c:	4770      	bx	lr

0800777e <__cvt>:
 800777e:	e92d 47ff 	stmdb	sp!, {r0, r1, r2, r3, r4, r5, r6, r7, r8, r9, sl, lr}
 8007782:	ec57 6b10 	vmov	r6, r7, d0
 8007786:	2f00      	cmp	r7, #0
 8007788:	460c      	mov	r4, r1
 800778a:	4619      	mov	r1, r3
 800778c:	463b      	mov	r3, r7
 800778e:	bfbb      	ittet	lt
 8007790:	f107 4300 	addlt.w	r3, r7, #2147483648	@ 0x80000000
 8007794:	461f      	movlt	r7, r3
 8007796:	2300      	movge	r3, #0
 8007798:	232d      	movlt	r3, #45	@ 0x2d
 800779a:	700b      	strb	r3, [r1, #0]
 800779c:	9b0d      	ldr	r3, [sp, #52]	@ 0x34
 800779e:	f8dd a030 	ldr.w	sl, [sp, #48]	@ 0x30
 80077a2:	4691      	mov	r9, r2
 80077a4:	f023 0820 	bic.w	r8, r3, #32
 80077a8:	bfbc      	itt	lt
 80077aa:	4632      	movlt	r2, r6
 80077ac:	4616      	movlt	r6, r2
 80077ae:	f1b8 0f46 	cmp.w	r8, #70	@ 0x46
 80077b2:	d005      	beq.n	80077c0 <__cvt+0x42>
 80077b4:	f1b8 0f45 	cmp.w	r8, #69	@ 0x45
 80077b8:	d100      	bne.n	80077bc <__cvt+0x3e>
 80077ba:	3401      	adds	r4, #1
 80077bc:	2102      	movs	r1, #2
 80077be:	e000      	b.n	80077c2 <__cvt+0x44>
 80077c0:	2103      	movs	r1, #3
 80077c2:	ab03      	add	r3, sp, #12
 80077c4:	9301      	str	r3, [sp, #4]
 80077c6:	ab02      	add	r3, sp, #8
 80077c8:	9300      	str	r3, [sp, #0]
 80077ca:	ec47 6b10 	vmov	d0, r6, r7
 80077ce:	4653      	mov	r3, sl
 80077d0:	4622      	mov	r2, r4
 80077d2:	f000 fe4d 	bl	8008470 <_dtoa_r>
 80077d6:	f1b8 0f47 	cmp.w	r8, #71	@ 0x47
 80077da:	4605      	mov	r5, r0
 80077dc:	d119      	bne.n	8007812 <__cvt+0x94>
 80077de:	f019 0f01 	tst.w	r9, #1
 80077e2:	d00e      	beq.n	8007802 <__cvt+0x84>
 80077e4:	eb00 0904 	add.w	r9, r0, r4
 80077e8:	2200      	movs	r2, #0
 80077ea:	2300      	movs	r3, #0
 80077ec:	4630      	mov	r0, r6
 80077ee:	4639      	mov	r1, r7
 80077f0:	f7f9 f992 	bl	8000b18 <__aeabi_dcmpeq>
 80077f4:	b108      	cbz	r0, 80077fa <__cvt+0x7c>
 80077f6:	f8cd 900c 	str.w	r9, [sp, #12]
 80077fa:	2230      	movs	r2, #48	@ 0x30
 80077fc:	9b03      	ldr	r3, [sp, #12]
 80077fe:	454b      	cmp	r3, r9
 8007800:	d31e      	bcc.n	8007840 <__cvt+0xc2>
 8007802:	9b03      	ldr	r3, [sp, #12]
 8007804:	9a0e      	ldr	r2, [sp, #56]	@ 0x38
 8007806:	1b5b      	subs	r3, r3, r5
 8007808:	4628      	mov	r0, r5
 800780a:	6013      	str	r3, [r2, #0]
 800780c:	b004      	add	sp, #16
 800780e:	e8bd 87f0 	ldmia.w	sp!, {r4, r5, r6, r7, r8, r9, sl, pc}
 8007812:	f1b8 0f46 	cmp.w	r8, #70	@ 0x46
 8007816:	eb00 0904 	add.w	r9, r0, r4
 800781a:	d1e5      	bne.n	80077e8 <__cvt+0x6a>
 800781c:	7803      	ldrb	r3, [r0, #0]
 800781e:	2b30      	cmp	r3, #48	@ 0x30
 8007820:	d10a      	bne.n	8007838 <__cvt+0xba>
 8007822:	2200      	movs	r2, #0
 8007824:	2300      	movs	r3, #0
 8007826:	4630      	mov	r0, r6
 8007828:	4639      	mov	r1, r7
 800782a:	f7f9 f975 	bl	8000b18 <__aeabi_dcmpeq>
 800782e:	b918      	cbnz	r0, 8007838 <__cvt+0xba>
 8007830:	f1c4 0401 	rsb	r4, r4, #1
 8007834:	f8ca 4000 	str.w	r4, [sl]
 8007838:	f8da 3000 	ldr.w	r3, [sl]
 800783c:	4499      	add	r9, r3
 800783e:	e7d3      	b.n	80077e8 <__cvt+0x6a>
 8007840:	1c59      	adds	r1, r3, #1
 8007842:	9103      	str	r1, [sp, #12]
 8007844:	701a      	strb	r2, [r3, #0]
 8007846:	e7d9      	b.n	80077fc <__cvt+0x7e>

08007848 <__exponent>:
 8007848:	b5f7      	push	{r0, r1, r2, r4, r5, r6, r7, lr}
 800784a:	2900      	cmp	r1, #0
 800784c:	bfba      	itte	lt
 800784e:	4249      	neglt	r1, r1
 8007850:	232d      	movlt	r3, #45	@ 0x2d
 8007852:	232b      	movge	r3, #43	@ 0x2b
 8007854:	2909      	cmp	r1, #9
 8007856:	7002      	strb	r2, [r0, #0]
 8007858:	7043      	strb	r3, [r0, #1]
 800785a:	dd29      	ble.n	80078b0 <__exponent+0x68>
 800785c:	f10d 0307 	add.w	r3, sp, #7
 8007860:	461d      	mov	r5, r3
 8007862:	270a      	movs	r7, #10
 8007864:	461a      	mov	r2, r3
 8007866:	fbb1 f6f7 	udiv	r6, r1, r7
 800786a:	fb07 1416 	mls	r4, r7, r6, r1
 800786e:	3430      	adds	r4, #48	@ 0x30
 8007870:	f802 4c01 	strb.w	r4, [r2, #-1]
 8007874:	460c      	mov	r4, r1
 8007876:	2c63      	cmp	r4, #99	@ 0x63
 8007878:	f103 33ff 	add.w	r3, r3, #4294967295	@ 0xffffffff
 800787c:	4631      	mov	r1, r6
 800787e:	dcf1      	bgt.n	8007864 <__exponent+0x1c>
 8007880:	3130      	adds	r1, #48	@ 0x30
 8007882:	1e94      	subs	r4, r2, #2
 8007884:	f803 1c01 	strb.w	r1, [r3, #-1]
 8007888:	1c41      	adds	r1, r0, #1
 800788a:	4623      	mov	r3, r4
 800788c:	42ab      	cmp	r3, r5
 800788e:	d30a      	bcc.n	80078a6 <__exponent+0x5e>
 8007890:	f10d 0309 	add.w	r3, sp, #9
 8007894:	1a9b      	subs	r3, r3, r2
 8007896:	42ac      	cmp	r4, r5
 8007898:	bf88      	it	hi
 800789a:	2300      	movhi	r3, #0
 800789c:	3302      	adds	r3, #2
 800789e:	4403      	add	r3, r0
 80078a0:	1a18      	subs	r0, r3, r0
 80078a2:	b003      	add	sp, #12
 80078a4:	bdf0      	pop	{r4, r5, r6, r7, pc}
 80078a6:	f813 6b01 	ldrb.w	r6, [r3], #1
 80078aa:	f801 6f01 	strb.w	r6, [r1, #1]!
 80078ae:	e7ed      	b.n	800788c <__exponent+0x44>
 80078b0:	2330      	movs	r3, #48	@ 0x30
 80078b2:	3130      	adds	r1, #48	@ 0x30
 80078b4:	7083      	strb	r3, [r0, #2]
 80078b6:	70c1      	strb	r1, [r0, #3]
 80078b8:	1d03      	adds	r3, r0, #4
 80078ba:	e7f1      	b.n	80078a0 <__exponent+0x58>

080078bc <_printf_float>:
 80078bc:	e92d 4ff0 	stmdb	sp!, {r4, r5, r6, r7, r8, r9, sl, fp, lr}
 80078c0:	b08d      	sub	sp, #52	@ 0x34
 80078c2:	460c      	mov	r4, r1
 80078c4:	f8dd 8058 	ldr.w	r8, [sp, #88]	@ 0x58
 80078c8:	4616      	mov	r6, r2
 80078ca:	461f      	mov	r7, r3
 80078cc:	4605      	mov	r5, r0
 80078ce:	f000 fcb9 	bl	8008244 <_localeconv_r>
 80078d2:	6803      	ldr	r3, [r0, #0]
 80078d4:	9304      	str	r3, [sp, #16]
 80078d6:	4618      	mov	r0, r3
 80078d8:	f7f8 fcf2 	bl	80002c0 <strlen>
 80078dc:	2300      	movs	r3, #0
 80078de:	930a      	str	r3, [sp, #40]	@ 0x28
 80078e0:	f8d8 3000 	ldr.w	r3, [r8]
 80078e4:	9005      	str	r0, [sp, #20]
 80078e6:	3307      	adds	r3, #7
 80078e8:	f023 0307 	bic.w	r3, r3, #7
 80078ec:	f103 0208 	add.w	r2, r3, #8
 80078f0:	f894 a018 	ldrb.w	sl, [r4, #24]
 80078f4:	f8d4 b000 	ldr.w	fp, [r4]
 80078f8:	f8c8 2000 	str.w	r2, [r8]
 80078fc:	e9d3 8900 	ldrd	r8, r9, [r3]
 8007900:	f029 4300 	bic.w	r3, r9, #2147483648	@ 0x80000000
 8007904:	9307      	str	r3, [sp, #28]
 8007906:	f8cd 8018 	str.w	r8, [sp, #24]
 800790a:	e9c4 8912 	strd	r8, r9, [r4, #72]	@ 0x48
 800790e:	e9dd 0106 	ldrd	r0, r1, [sp, #24]
 8007912:	4b9c      	ldr	r3, [pc, #624]	@ (8007b84 <_printf_float+0x2c8>)
 8007914:	f04f 32ff 	mov.w	r2, #4294967295	@ 0xffffffff
 8007918:	f7f9 f930 	bl	8000b7c <__aeabi_dcmpun>
 800791c:	bb70      	cbnz	r0, 800797c <_printf_float+0xc0>
 800791e:	e9dd 0106 	ldrd	r0, r1, [sp, #24]
 8007922:	4b98      	ldr	r3, [pc, #608]	@ (8007b84 <_printf_float+0x2c8>)
 8007924:	f04f 32ff 	mov.w	r2, #4294967295	@ 0xffffffff
 8007928:	f7f9 f90a 	bl	8000b40 <__aeabi_dcmple>
 800792c:	bb30      	cbnz	r0, 800797c <_printf_float+0xc0>
 800792e:	2200      	movs	r2, #0
 8007930:	2300      	movs	r3, #0
 8007932:	4640      	mov	r0, r8
 8007934:	4649      	mov	r1, r9
 8007936:	f7f9 f8f9 	bl	8000b2c <__aeabi_dcmplt>
 800793a:	b110      	cbz	r0, 8007942 <_printf_float+0x86>
 800793c:	232d      	movs	r3, #45	@ 0x2d
 800793e:	f884 3043 	strb.w	r3, [r4, #67]	@ 0x43
 8007942:	4a91      	ldr	r2, [pc, #580]	@ (8007b88 <_printf_float+0x2cc>)
 8007944:	4b91      	ldr	r3, [pc, #580]	@ (8007b8c <_printf_float+0x2d0>)
 8007946:	f1ba 0f47 	cmp.w	sl, #71	@ 0x47
 800794a:	bf8c      	ite	hi
 800794c:	4690      	movhi	r8, r2
 800794e:	4698      	movls	r8, r3
 8007950:	2303      	movs	r3, #3
 8007952:	6123      	str	r3, [r4, #16]
 8007954:	f02b 0304 	bic.w	r3, fp, #4
 8007958:	6023      	str	r3, [r4, #0]
 800795a:	f04f 0900 	mov.w	r9, #0
 800795e:	9700      	str	r7, [sp, #0]
 8007960:	4633      	mov	r3, r6
 8007962:	aa0b      	add	r2, sp, #44	@ 0x2c
 8007964:	4621      	mov	r1, r4
 8007966:	4628      	mov	r0, r5
 8007968:	f000 f9d2 	bl	8007d10 <_printf_common>
 800796c:	3001      	adds	r0, #1
 800796e:	f040 808d 	bne.w	8007a8c <_printf_float+0x1d0>
 8007972:	f04f 30ff 	mov.w	r0, #4294967295	@ 0xffffffff
 8007976:	b00d      	add	sp, #52	@ 0x34
 8007978:	e8bd 8ff0 	ldmia.w	sp!, {r4, r5, r6, r7, r8, r9, sl, fp, pc}
 800797c:	4642      	mov	r2, r8
 800797e:	464b      	mov	r3, r9
 8007980:	4640      	mov	r0, r8
 8007982:	4649      	mov	r1, r9
 8007984:	f7f9 f8fa 	bl	8000b7c <__aeabi_dcmpun>
 8007988:	b140      	cbz	r0, 800799c <_printf_float+0xe0>
 800798a:	464b      	mov	r3, r9
 800798c:	2b00      	cmp	r3, #0
 800798e:	bfbc      	itt	lt
 8007990:	232d      	movlt	r3, #45	@ 0x2d
 8007992:	f884 3043 	strblt.w	r3, [r4, #67]	@ 0x43
 8007996:	4a7e      	ldr	r2, [pc, #504]	@ (8007b90 <_printf_float+0x2d4>)
 8007998:	4b7e      	ldr	r3, [pc, #504]	@ (8007b94 <_printf_float+0x2d8>)
 800799a:	e7d4      	b.n	8007946 <_printf_float+0x8a>
 800799c:	6863      	ldr	r3, [r4, #4]
 800799e:	f00a 02df 	and.w	r2, sl, #223	@ 0xdf
 80079a2:	9206      	str	r2, [sp, #24]
 80079a4:	1c5a      	adds	r2, r3, #1
 80079a6:	d13b      	bne.n	8007a20 <_printf_float+0x164>
 80079a8:	2306      	movs	r3, #6
 80079aa:	6063      	str	r3, [r4, #4]
 80079ac:	f44b 6280 	orr.w	r2, fp, #1024	@ 0x400
 80079b0:	2300      	movs	r3, #0
 80079b2:	6022      	str	r2, [r4, #0]
 80079b4:	9303      	str	r3, [sp, #12]
 80079b6:	ab0a      	add	r3, sp, #40	@ 0x28
 80079b8:	e9cd a301 	strd	sl, r3, [sp, #4]
 80079bc:	ab09      	add	r3, sp, #36	@ 0x24
 80079be:	9300      	str	r3, [sp, #0]
 80079c0:	6861      	ldr	r1, [r4, #4]
 80079c2:	ec49 8b10 	vmov	d0, r8, r9
 80079c6:	f10d 0323 	add.w	r3, sp, #35	@ 0x23
 80079ca:	4628      	mov	r0, r5
 80079cc:	f7ff fed7 	bl	800777e <__cvt>
 80079d0:	9b06      	ldr	r3, [sp, #24]
 80079d2:	9909      	ldr	r1, [sp, #36]	@ 0x24
 80079d4:	2b47      	cmp	r3, #71	@ 0x47
 80079d6:	4680      	mov	r8, r0
 80079d8:	d129      	bne.n	8007a2e <_printf_float+0x172>
 80079da:	1cc8      	adds	r0, r1, #3
 80079dc:	db02      	blt.n	80079e4 <_printf_float+0x128>
 80079de:	6863      	ldr	r3, [r4, #4]
 80079e0:	4299      	cmp	r1, r3
 80079e2:	dd41      	ble.n	8007a68 <_printf_float+0x1ac>
 80079e4:	f1aa 0a02 	sub.w	sl, sl, #2
 80079e8:	fa5f fa8a 	uxtb.w	sl, sl
 80079ec:	3901      	subs	r1, #1
 80079ee:	4652      	mov	r2, sl
 80079f0:	f104 0050 	add.w	r0, r4, #80	@ 0x50
 80079f4:	9109      	str	r1, [sp, #36]	@ 0x24
 80079f6:	f7ff ff27 	bl	8007848 <__exponent>
 80079fa:	9a0a      	ldr	r2, [sp, #40]	@ 0x28
 80079fc:	1813      	adds	r3, r2, r0
 80079fe:	2a01      	cmp	r2, #1
 8007a00:	4681      	mov	r9, r0
 8007a02:	6123      	str	r3, [r4, #16]
 8007a04:	dc02      	bgt.n	8007a0c <_printf_float+0x150>
 8007a06:	6822      	ldr	r2, [r4, #0]
 8007a08:	07d2      	lsls	r2, r2, #31
 8007a0a:	d501      	bpl.n	8007a10 <_printf_float+0x154>
 8007a0c:	3301      	adds	r3, #1
 8007a0e:	6123      	str	r3, [r4, #16]
 8007a10:	f89d 3023 	ldrb.w	r3, [sp, #35]	@ 0x23
 8007a14:	2b00      	cmp	r3, #0
 8007a16:	d0a2      	beq.n	800795e <_printf_float+0xa2>
 8007a18:	232d      	movs	r3, #45	@ 0x2d
 8007a1a:	f884 3043 	strb.w	r3, [r4, #67]	@ 0x43
 8007a1e:	e79e      	b.n	800795e <_printf_float+0xa2>
 8007a20:	9a06      	ldr	r2, [sp, #24]
 8007a22:	2a47      	cmp	r2, #71	@ 0x47
 8007a24:	d1c2      	bne.n	80079ac <_printf_float+0xf0>
 8007a26:	2b00      	cmp	r3, #0
 8007a28:	d1c0      	bne.n	80079ac <_printf_float+0xf0>
 8007a2a:	2301      	movs	r3, #1
 8007a2c:	e7bd      	b.n	80079aa <_printf_float+0xee>
 8007a2e:	f1ba 0f65 	cmp.w	sl, #101	@ 0x65
 8007a32:	d9db      	bls.n	80079ec <_printf_float+0x130>
 8007a34:	f1ba 0f66 	cmp.w	sl, #102	@ 0x66
 8007a38:	d118      	bne.n	8007a6c <_printf_float+0x1b0>
 8007a3a:	2900      	cmp	r1, #0
 8007a3c:	6863      	ldr	r3, [r4, #4]
 8007a3e:	dd0b      	ble.n	8007a58 <_printf_float+0x19c>
 8007a40:	6121      	str	r1, [r4, #16]
 8007a42:	b913      	cbnz	r3, 8007a4a <_printf_float+0x18e>
 8007a44:	6822      	ldr	r2, [r4, #0]
 8007a46:	07d0      	lsls	r0, r2, #31
 8007a48:	d502      	bpl.n	8007a50 <_printf_float+0x194>
 8007a4a:	3301      	adds	r3, #1
 8007a4c:	440b      	add	r3, r1
 8007a4e:	6123      	str	r3, [r4, #16]
 8007a50:	65a1      	str	r1, [r4, #88]	@ 0x58
 8007a52:	f04f 0900 	mov.w	r9, #0
 8007a56:	e7db      	b.n	8007a10 <_printf_float+0x154>
 8007a58:	b913      	cbnz	r3, 8007a60 <_printf_float+0x1a4>
 8007a5a:	6822      	ldr	r2, [r4, #0]
 8007a5c:	07d2      	lsls	r2, r2, #31
 8007a5e:	d501      	bpl.n	8007a64 <_printf_float+0x1a8>
 8007a60:	3302      	adds	r3, #2
 8007a62:	e7f4      	b.n	8007a4e <_printf_float+0x192>
 8007a64:	2301      	movs	r3, #1
 8007a66:	e7f2      	b.n	8007a4e <_printf_float+0x192>
 8007a68:	f04f 0a67 	mov.w	sl, #103	@ 0x67
 8007a6c:	9b0a      	ldr	r3, [sp, #40]	@ 0x28
 8007a6e:	4299      	cmp	r1, r3
 8007a70:	db05      	blt.n	8007a7e <_printf_float+0x1c2>
 8007a72:	6823      	ldr	r3, [r4, #0]
 8007a74:	6121      	str	r1, [r4, #16]
 8007a76:	07d8      	lsls	r0, r3, #31
 8007a78:	d5ea      	bpl.n	8007a50 <_printf_float+0x194>
 8007a7a:	1c4b      	adds	r3, r1, #1
 8007a7c:	e7e7      	b.n	8007a4e <_printf_float+0x192>
 8007a7e:	2900      	cmp	r1, #0
 8007a80:	bfd4      	ite	le
 8007a82:	f1c1 0202 	rsble	r2, r1, #2
 8007a86:	2201      	movgt	r2, #1
 8007a88:	4413      	add	r3, r2
 8007a8a:	e7e0      	b.n	8007a4e <_printf_float+0x192>
 8007a8c:	6823      	ldr	r3, [r4, #0]
 8007a8e:	055a      	lsls	r2, r3, #21
 8007a90:	d407      	bmi.n	8007aa2 <_printf_float+0x1e6>
 8007a92:	6923      	ldr	r3, [r4, #16]
 8007a94:	4642      	mov	r2, r8
 8007a96:	4631      	mov	r1, r6
 8007a98:	4628      	mov	r0, r5
 8007a9a:	47b8      	blx	r7
 8007a9c:	3001      	adds	r0, #1
 8007a9e:	d12b      	bne.n	8007af8 <_printf_float+0x23c>
 8007aa0:	e767      	b.n	8007972 <_printf_float+0xb6>
 8007aa2:	f1ba 0f65 	cmp.w	sl, #101	@ 0x65
 8007aa6:	f240 80dd 	bls.w	8007c64 <_printf_float+0x3a8>
 8007aaa:	e9d4 0112 	ldrd	r0, r1, [r4, #72]	@ 0x48
 8007aae:	2200      	movs	r2, #0
 8007ab0:	2300      	movs	r3, #0
 8007ab2:	f7f9 f831 	bl	8000b18 <__aeabi_dcmpeq>
 8007ab6:	2800      	cmp	r0, #0
 8007ab8:	d033      	beq.n	8007b22 <_printf_float+0x266>
 8007aba:	4a37      	ldr	r2, [pc, #220]	@ (8007b98 <_printf_float+0x2dc>)
 8007abc:	2301      	movs	r3, #1
 8007abe:	4631      	mov	r1, r6
 8007ac0:	4628      	mov	r0, r5
 8007ac2:	47b8      	blx	r7
 8007ac4:	3001      	adds	r0, #1
 8007ac6:	f43f af54 	beq.w	8007972 <_printf_float+0xb6>
 8007aca:	e9dd 3809 	ldrd	r3, r8, [sp, #36]	@ 0x24
 8007ace:	4543      	cmp	r3, r8
 8007ad0:	db02      	blt.n	8007ad8 <_printf_float+0x21c>
 8007ad2:	6823      	ldr	r3, [r4, #0]
 8007ad4:	07d8      	lsls	r0, r3, #31
 8007ad6:	d50f      	bpl.n	8007af8 <_printf_float+0x23c>
 8007ad8:	e9dd 2304 	ldrd	r2, r3, [sp, #16]
 8007adc:	4631      	mov	r1, r6
 8007ade:	4628      	mov	r0, r5
 8007ae0:	47b8      	blx	r7
 8007ae2:	3001      	adds	r0, #1
 8007ae4:	f43f af45 	beq.w	8007972 <_printf_float+0xb6>
 8007ae8:	f04f 0900 	mov.w	r9, #0
 8007aec:	f108 38ff 	add.w	r8, r8, #4294967295	@ 0xffffffff
 8007af0:	f104 0a1a 	add.w	sl, r4, #26
 8007af4:	45c8      	cmp	r8, r9
 8007af6:	dc09      	bgt.n	8007b0c <_printf_float+0x250>
 8007af8:	6823      	ldr	r3, [r4, #0]
 8007afa:	079b      	lsls	r3, r3, #30
 8007afc:	f100 8103 	bmi.w	8007d06 <_printf_float+0x44a>
 8007b00:	68e0      	ldr	r0, [r4, #12]
 8007b02:	9b0b      	ldr	r3, [sp, #44]	@ 0x2c
 8007b04:	4298      	cmp	r0, r3
 8007b06:	bfb8      	it	lt
 8007b08:	4618      	movlt	r0, r3
 8007b0a:	e734      	b.n	8007976 <_printf_float+0xba>
 8007b0c:	2301      	movs	r3, #1
 8007b0e:	4652      	mov	r2, sl
 8007b10:	4631      	mov	r1, r6
 8007b12:	4628      	mov	r0, r5
 8007b14:	47b8      	blx	r7
 8007b16:	3001      	adds	r0, #1
 8007b18:	f43f af2b 	beq.w	8007972 <_printf_float+0xb6>
 8007b1c:	f109 0901 	add.w	r9, r9, #1
 8007b20:	e7e8      	b.n	8007af4 <_printf_float+0x238>
 8007b22:	9b09      	ldr	r3, [sp, #36]	@ 0x24
 8007b24:	2b00      	cmp	r3, #0
 8007b26:	dc39      	bgt.n	8007b9c <_printf_float+0x2e0>
 8007b28:	4a1b      	ldr	r2, [pc, #108]	@ (8007b98 <_printf_float+0x2dc>)
 8007b2a:	2301      	movs	r3, #1
 8007b2c:	4631      	mov	r1, r6
 8007b2e:	4628      	mov	r0, r5
 8007b30:	47b8      	blx	r7
 8007b32:	3001      	adds	r0, #1
 8007b34:	f43f af1d 	beq.w	8007972 <_printf_float+0xb6>
 8007b38:	e9dd 3909 	ldrd	r3, r9, [sp, #36]	@ 0x24
 8007b3c:	ea59 0303 	orrs.w	r3, r9, r3
 8007b40:	d102      	bne.n	8007b48 <_printf_float+0x28c>
 8007b42:	6823      	ldr	r3, [r4, #0]
 8007b44:	07d9      	lsls	r1, r3, #31
 8007b46:	d5d7      	bpl.n	8007af8 <_printf_float+0x23c>
 8007b48:	e9dd 2304 	ldrd	r2, r3, [sp, #16]
 8007b4c:	4631      	mov	r1, r6
 8007b4e:	4628      	mov	r0, r5
 8007b50:	47b8      	blx	r7
 8007b52:	3001      	adds	r0, #1
 8007b54:	f43f af0d 	beq.w	8007972 <_printf_float+0xb6>
 8007b58:	f04f 0a00 	mov.w	sl, #0
 8007b5c:	f104 0b1a 	add.w	fp, r4, #26
 8007b60:	9b09      	ldr	r3, [sp, #36]	@ 0x24
 8007b62:	425b      	negs	r3, r3
 8007b64:	4553      	cmp	r3, sl
 8007b66:	dc01      	bgt.n	8007b6c <_printf_float+0x2b0>
 8007b68:	464b      	mov	r3, r9
 8007b6a:	e793      	b.n	8007a94 <_printf_float+0x1d8>
 8007b6c:	2301      	movs	r3, #1
 8007b6e:	465a      	mov	r2, fp
 8007b70:	4631      	mov	r1, r6
 8007b72:	4628      	mov	r0, r5
 8007b74:	47b8      	blx	r7
 8007b76:	3001      	adds	r0, #1
 8007b78:	f43f aefb 	beq.w	8007972 <_printf_float+0xb6>
 8007b7c:	f10a 0a01 	add.w	sl, sl, #1
 8007b80:	e7ee      	b.n	8007b60 <_printf_float+0x2a4>
 8007b82:	bf00      	nop
 8007b84:	7fefffff 	.word	0x7fefffff
 8007b88:	0800a10a 	.word	0x0800a10a
 8007b8c:	0800a106 	.word	0x0800a106
 8007b90:	0800a112 	.word	0x0800a112
 8007b94:	0800a10e 	.word	0x0800a10e
 8007b98:	0800a116 	.word	0x0800a116
 8007b9c:	6da3      	ldr	r3, [r4, #88]	@ 0x58
 8007b9e:	f8dd a028 	ldr.w	sl, [sp, #40]	@ 0x28
 8007ba2:	4553      	cmp	r3, sl
 8007ba4:	bfa8      	it	ge
 8007ba6:	4653      	movge	r3, sl
 8007ba8:	2b00      	cmp	r3, #0
 8007baa:	4699      	mov	r9, r3
 8007bac:	dc36      	bgt.n	8007c1c <_printf_float+0x360>
 8007bae:	f04f 0b00 	mov.w	fp, #0
 8007bb2:	ea29 79e9 	bic.w	r9, r9, r9, asr #31
 8007bb6:	f104 021a 	add.w	r2, r4, #26
 8007bba:	6da3      	ldr	r3, [r4, #88]	@ 0x58
 8007bbc:	9306      	str	r3, [sp, #24]
 8007bbe:	eba3 0309 	sub.w	r3, r3, r9
 8007bc2:	455b      	cmp	r3, fp
 8007bc4:	dc31      	bgt.n	8007c2a <_printf_float+0x36e>
 8007bc6:	9b09      	ldr	r3, [sp, #36]	@ 0x24
 8007bc8:	459a      	cmp	sl, r3
 8007bca:	dc3a      	bgt.n	8007c42 <_printf_float+0x386>
 8007bcc:	6823      	ldr	r3, [r4, #0]
 8007bce:	07da      	lsls	r2, r3, #31
 8007bd0:	d437      	bmi.n	8007c42 <_printf_float+0x386>
 8007bd2:	9b09      	ldr	r3, [sp, #36]	@ 0x24
 8007bd4:	ebaa 0903 	sub.w	r9, sl, r3
 8007bd8:	9b06      	ldr	r3, [sp, #24]
 8007bda:	ebaa 0303 	sub.w	r3, sl, r3
 8007bde:	4599      	cmp	r9, r3
 8007be0:	bfa8      	it	ge
 8007be2:	4699      	movge	r9, r3
 8007be4:	f1b9 0f00 	cmp.w	r9, #0
 8007be8:	dc33      	bgt.n	8007c52 <_printf_float+0x396>
 8007bea:	f04f 0800 	mov.w	r8, #0
 8007bee:	ea29 79e9 	bic.w	r9, r9, r9, asr #31
 8007bf2:	f104 0b1a 	add.w	fp, r4, #26
 8007bf6:	9b09      	ldr	r3, [sp, #36]	@ 0x24
 8007bf8:	ebaa 0303 	sub.w	r3, sl, r3
 8007bfc:	eba3 0309 	sub.w	r3, r3, r9
 8007c00:	4543      	cmp	r3, r8
 8007c02:	f77f af79 	ble.w	8007af8 <_printf_float+0x23c>
 8007c06:	2301      	movs	r3, #1
 8007c08:	465a      	mov	r2, fp
 8007c0a:	4631      	mov	r1, r6
 8007c0c:	4628      	mov	r0, r5
 8007c0e:	47b8      	blx	r7
 8007c10:	3001      	adds	r0, #1
 8007c12:	f43f aeae 	beq.w	8007972 <_printf_float+0xb6>
 8007c16:	f108 0801 	add.w	r8, r8, #1
 8007c1a:	e7ec      	b.n	8007bf6 <_printf_float+0x33a>
 8007c1c:	4642      	mov	r2, r8
 8007c1e:	4631      	mov	r1, r6
 8007c20:	4628      	mov	r0, r5
 8007c22:	47b8      	blx	r7
 8007c24:	3001      	adds	r0, #1
 8007c26:	d1c2      	bne.n	8007bae <_printf_float+0x2f2>
 8007c28:	e6a3      	b.n	8007972 <_printf_float+0xb6>
 8007c2a:	2301      	movs	r3, #1
 8007c2c:	4631      	mov	r1, r6
 8007c2e:	4628      	mov	r0, r5
 8007c30:	9206      	str	r2, [sp, #24]
 8007c32:	47b8      	blx	r7
 8007c34:	3001      	adds	r0, #1
 8007c36:	f43f ae9c 	beq.w	8007972 <_printf_float+0xb6>
 8007c3a:	9a06      	ldr	r2, [sp, #24]
 8007c3c:	f10b 0b01 	add.w	fp, fp, #1
 8007c40:	e7bb      	b.n	8007bba <_printf_float+0x2fe>
 8007c42:	e9dd 2304 	ldrd	r2, r3, [sp, #16]
 8007c46:	4631      	mov	r1, r6
 8007c48:	4628      	mov	r0, r5
 8007c4a:	47b8      	blx	r7
 8007c4c:	3001      	adds	r0, #1
 8007c4e:	d1c0      	bne.n	8007bd2 <_printf_float+0x316>
 8007c50:	e68f      	b.n	8007972 <_printf_float+0xb6>
 8007c52:	9a06      	ldr	r2, [sp, #24]
 8007c54:	464b      	mov	r3, r9
 8007c56:	4442      	add	r2, r8
 8007c58:	4631      	mov	r1, r6
 8007c5a:	4628      	mov	r0, r5
 8007c5c:	47b8      	blx	r7
 8007c5e:	3001      	adds	r0, #1
 8007c60:	d1c3      	bne.n	8007bea <_printf_float+0x32e>
 8007c62:	e686      	b.n	8007972 <_printf_float+0xb6>
 8007c64:	f8dd a028 	ldr.w	sl, [sp, #40]	@ 0x28
 8007c68:	f1ba 0f01 	cmp.w	sl, #1
 8007c6c:	dc01      	bgt.n	8007c72 <_printf_float+0x3b6>
 8007c6e:	07db      	lsls	r3, r3, #31
 8007c70:	d536      	bpl.n	8007ce0 <_printf_float+0x424>
 8007c72:	2301      	movs	r3, #1
 8007c74:	4642      	mov	r2, r8
 8007c76:	4631      	mov	r1, r6
 8007c78:	4628      	mov	r0, r5
 8007c7a:	47b8      	blx	r7
 8007c7c:	3001      	adds	r0, #1
 8007c7e:	f43f ae78 	beq.w	8007972 <_printf_float+0xb6>
 8007c82:	e9dd 2304 	ldrd	r2, r3, [sp, #16]
 8007c86:	4631      	mov	r1, r6
 8007c88:	4628      	mov	r0, r5
 8007c8a:	47b8      	blx	r7
 8007c8c:	3001      	adds	r0, #1
 8007c8e:	f43f ae70 	beq.w	8007972 <_printf_float+0xb6>
 8007c92:	e9d4 0112 	ldrd	r0, r1, [r4, #72]	@ 0x48
 8007c96:	2200      	movs	r2, #0
 8007c98:	2300      	movs	r3, #0
 8007c9a:	f10a 3aff 	add.w	sl, sl, #4294967295	@ 0xffffffff
 8007c9e:	f7f8 ff3b 	bl	8000b18 <__aeabi_dcmpeq>
 8007ca2:	b9c0      	cbnz	r0, 8007cd6 <_printf_float+0x41a>
 8007ca4:	4653      	mov	r3, sl
 8007ca6:	f108 0201 	add.w	r2, r8, #1
 8007caa:	4631      	mov	r1, r6
 8007cac:	4628      	mov	r0, r5
 8007cae:	47b8      	blx	r7
 8007cb0:	3001      	adds	r0, #1
 8007cb2:	d10c      	bne.n	8007cce <_printf_float+0x412>
 8007cb4:	e65d      	b.n	8007972 <_printf_float+0xb6>
 8007cb6:	2301      	movs	r3, #1
 8007cb8:	465a      	mov	r2, fp
 8007cba:	4631      	mov	r1, r6
 8007cbc:	4628      	mov	r0, r5
 8007cbe:	47b8      	blx	r7
 8007cc0:	3001      	adds	r0, #1
 8007cc2:	f43f ae56 	beq.w	8007972 <_printf_float+0xb6>
 8007cc6:	f108 0801 	add.w	r8, r8, #1
 8007cca:	45d0      	cmp	r8, sl
 8007ccc:	dbf3      	blt.n	8007cb6 <_printf_float+0x3fa>
 8007cce:	464b      	mov	r3, r9
 8007cd0:	f104 0250 	add.w	r2, r4, #80	@ 0x50
 8007cd4:	e6df      	b.n	8007a96 <_printf_float+0x1da>
 8007cd6:	f04f 0800 	mov.w	r8, #0
 8007cda:	f104 0b1a 	add.w	fp, r4, #26
 8007cde:	e7f4      	b.n	8007cca <_printf_float+0x40e>
 8007ce0:	2301      	movs	r3, #1
 8007ce2:	4642      	mov	r2, r8
 8007ce4:	e7e1      	b.n	8007caa <_printf_float+0x3ee>
 8007ce6:	2301      	movs	r3, #1
 8007ce8:	464a      	mov	r2, r9
 8007cea:	4631      	mov	r1, r6
 8007cec:	4628      	mov	r0, r5
 8007cee:	47b8      	blx	r7
 8007cf0:	3001      	adds	r0, #1
 8007cf2:	f43f ae3e 	beq.w	8007972 <_printf_float+0xb6>
 8007cf6:	f108 0801 	add.w	r8, r8, #1
 8007cfa:	68e3      	ldr	r3, [r4, #12]
 8007cfc:	990b      	ldr	r1, [sp, #44]	@ 0x2c
 8007cfe:	1a5b      	subs	r3, r3, r1
 8007d00:	4543      	cmp	r3, r8
 8007d02:	dcf0      	bgt.n	8007ce6 <_printf_float+0x42a>
 8007d04:	e6fc      	b.n	8007b00 <_printf_float+0x244>
 8007d06:	f04f 0800 	mov.w	r8, #0
 8007d0a:	f104 0919 	add.w	r9, r4, #25
 8007d0e:	e7f4      	b.n	8007cfa <_printf_float+0x43e>

08007d10 <_printf_common>:
 8007d10:	e92d 47f0 	stmdb	sp!, {r4, r5, r6, r7, r8, r9, sl, lr}
 8007d14:	4616      	mov	r6, r2
 8007d16:	4698      	mov	r8, r3
 8007d18:	688a      	ldr	r2, [r1, #8]
 8007d1a:	690b      	ldr	r3, [r1, #16]
 8007d1c:	f8dd 9020 	ldr.w	r9, [sp, #32]
 8007d20:	4293      	cmp	r3, r2
 8007d22:	bfb8      	it	lt
 8007d24:	4613      	movlt	r3, r2
 8007d26:	6033      	str	r3, [r6, #0]
 8007d28:	f891 2043 	ldrb.w	r2, [r1, #67]	@ 0x43
 8007d2c:	4607      	mov	r7, r0
 8007d2e:	460c      	mov	r4, r1
 8007d30:	b10a      	cbz	r2, 8007d36 <_printf_common+0x26>
 8007d32:	3301      	adds	r3, #1
 8007d34:	6033      	str	r3, [r6, #0]
 8007d36:	6823      	ldr	r3, [r4, #0]
 8007d38:	0699      	lsls	r1, r3, #26
 8007d3a:	bf42      	ittt	mi
 8007d3c:	6833      	ldrmi	r3, [r6, #0]
 8007d3e:	3302      	addmi	r3, #2
 8007d40:	6033      	strmi	r3, [r6, #0]
 8007d42:	6825      	ldr	r5, [r4, #0]
 8007d44:	f015 0506 	ands.w	r5, r5, #6
 8007d48:	d106      	bne.n	8007d58 <_printf_common+0x48>
 8007d4a:	f104 0a19 	add.w	sl, r4, #25
 8007d4e:	68e3      	ldr	r3, [r4, #12]
 8007d50:	6832      	ldr	r2, [r6, #0]
 8007d52:	1a9b      	subs	r3, r3, r2
 8007d54:	42ab      	cmp	r3, r5
 8007d56:	dc26      	bgt.n	8007da6 <_printf_common+0x96>
 8007d58:	f894 3043 	ldrb.w	r3, [r4, #67]	@ 0x43
 8007d5c:	6822      	ldr	r2, [r4, #0]
 8007d5e:	3b00      	subs	r3, #0
 8007d60:	bf18      	it	ne
 8007d62:	2301      	movne	r3, #1
 8007d64:	0692      	lsls	r2, r2, #26
 8007d66:	d42b      	bmi.n	8007dc0 <_printf_common+0xb0>
 8007d68:	f104 0243 	add.w	r2, r4, #67	@ 0x43
 8007d6c:	4641      	mov	r1, r8
 8007d6e:	4638      	mov	r0, r7
 8007d70:	47c8      	blx	r9
 8007d72:	3001      	adds	r0, #1
 8007d74:	d01e      	beq.n	8007db4 <_printf_common+0xa4>
 8007d76:	6823      	ldr	r3, [r4, #0]
 8007d78:	6922      	ldr	r2, [r4, #16]
 8007d7a:	f003 0306 	and.w	r3, r3, #6
 8007d7e:	2b04      	cmp	r3, #4
 8007d80:	bf02      	ittt	eq
 8007d82:	68e5      	ldreq	r5, [r4, #12]
 8007d84:	6833      	ldreq	r3, [r6, #0]
 8007d86:	1aed      	subeq	r5, r5, r3
 8007d88:	68a3      	ldr	r3, [r4, #8]
 8007d8a:	bf0c      	ite	eq
 8007d8c:	ea25 75e5 	biceq.w	r5, r5, r5, asr #31
 8007d90:	2500      	movne	r5, #0
 8007d92:	4293      	cmp	r3, r2
 8007d94:	bfc4      	itt	gt
 8007d96:	1a9b      	subgt	r3, r3, r2
 8007d98:	18ed      	addgt	r5, r5, r3
 8007d9a:	2600      	movs	r6, #0
 8007d9c:	341a      	adds	r4, #26
 8007d9e:	42b5      	cmp	r5, r6
 8007da0:	d11a      	bne.n	8007dd8 <_printf_common+0xc8>
 8007da2:	2000      	movs	r0, #0
 8007da4:	e008      	b.n	8007db8 <_printf_common+0xa8>
 8007da6:	2301      	movs	r3, #1
 8007da8:	4652      	mov	r2, sl
 8007daa:	4641      	mov	r1, r8
 8007dac:	4638      	mov	r0, r7
 8007dae:	47c8      	blx	r9
 8007db0:	3001      	adds	r0, #1
 8007db2:	d103      	bne.n	8007dbc <_printf_common+0xac>
 8007db4:	f04f 30ff 	mov.w	r0, #4294967295	@ 0xffffffff
 8007db8:	e8bd 87f0 	ldmia.w	sp!, {r4, r5, r6, r7, r8, r9, sl, pc}
 8007dbc:	3501      	adds	r5, #1
 8007dbe:	e7c6      	b.n	8007d4e <_printf_common+0x3e>
 8007dc0:	18e1      	adds	r1, r4, r3
 8007dc2:	1c5a      	adds	r2, r3, #1
 8007dc4:	2030      	movs	r0, #48	@ 0x30
 8007dc6:	f881 0043 	strb.w	r0, [r1, #67]	@ 0x43
 8007dca:	4422      	add	r2, r4
 8007dcc:	f894 1045 	ldrb.w	r1, [r4, #69]	@ 0x45
 8007dd0:	f882 1043 	strb.w	r1, [r2, #67]	@ 0x43
 8007dd4:	3302      	adds	r3, #2
 8007dd6:	e7c7      	b.n	8007d68 <_printf_common+0x58>
 8007dd8:	2301      	movs	r3, #1
 8007dda:	4622      	mov	r2, r4
 8007ddc:	4641      	mov	r1, r8
 8007dde:	4638      	mov	r0, r7
 8007de0:	47c8      	blx	r9
 8007de2:	3001      	adds	r0, #1
 8007de4:	d0e6      	beq.n	8007db4 <_printf_common+0xa4>
 8007de6:	3601      	adds	r6, #1
 8007de8:	e7d9      	b.n	8007d9e <_printf_common+0x8e>
	...

08007dec <_printf_i>:
 8007dec:	e92d 47ff 	stmdb	sp!, {r0, r1, r2, r3, r4, r5, r6, r7, r8, r9, sl, lr}
 8007df0:	7e0f      	ldrb	r7, [r1, #24]
 8007df2:	9e0c      	ldr	r6, [sp, #48]	@ 0x30
 8007df4:	2f78      	cmp	r7, #120	@ 0x78
 8007df6:	4691      	mov	r9, r2
 8007df8:	4680      	mov	r8, r0
 8007dfa:	460c      	mov	r4, r1
 8007dfc:	469a      	mov	sl, r3
 8007dfe:	f101 0243 	add.w	r2, r1, #67	@ 0x43
 8007e02:	d807      	bhi.n	8007e14 <_printf_i+0x28>
 8007e04:	2f62      	cmp	r7, #98	@ 0x62
 8007e06:	d80a      	bhi.n	8007e1e <_printf_i+0x32>
 8007e08:	2f00      	cmp	r7, #0
 8007e0a:	f000 80d1 	beq.w	8007fb0 <_printf_i+0x1c4>
 8007e0e:	2f58      	cmp	r7, #88	@ 0x58
 8007e10:	f000 80b8 	beq.w	8007f84 <_printf_i+0x198>
 8007e14:	f104 0642 	add.w	r6, r4, #66	@ 0x42
 8007e18:	f884 7042 	strb.w	r7, [r4, #66]	@ 0x42
 8007e1c:	e03a      	b.n	8007e94 <_printf_i+0xa8>
 8007e1e:	f1a7 0363 	sub.w	r3, r7, #99	@ 0x63
 8007e22:	2b15      	cmp	r3, #21
 8007e24:	d8f6      	bhi.n	8007e14 <_printf_i+0x28>
 8007e26:	a101      	add	r1, pc, #4	@ (adr r1, 8007e2c <_printf_i+0x40>)
 8007e28:	f851 f023 	ldr.w	pc, [r1, r3, lsl #2]
 8007e2c:	08007e85 	.word	0x08007e85
 8007e30:	08007e99 	.word	0x08007e99
 8007e34:	08007e15 	.word	0x08007e15
 8007e38:	08007e15 	.word	0x08007e15
 8007e3c:	08007e15 	.word	0x08007e15
 8007e40:	08007e15 	.word	0x08007e15
 8007e44:	08007e99 	.word	0x08007e99
 8007e48:	08007e15 	.word	0x08007e15
 8007e4c:	08007e15 	.word	0x08007e15
 8007e50:	08007e15 	.word	0x08007e15
 8007e54:	08007e15 	.word	0x08007e15
 8007e58:	08007f97 	.word	0x08007f97
 8007e5c:	08007ec3 	.word	0x08007ec3
 8007e60:	08007f51 	.word	0x08007f51
 8007e64:	08007e15 	.word	0x08007e15
 8007e68:	08007e15 	.word	0x08007e15
 8007e6c:	08007fb9 	.word	0x08007fb9
 8007e70:	08007e15 	.word	0x08007e15
 8007e74:	08007ec3 	.word	0x08007ec3
 8007e78:	08007e15 	.word	0x08007e15
 8007e7c:	08007e15 	.word	0x08007e15
 8007e80:	08007f59 	.word	0x08007f59
 8007e84:	6833      	ldr	r3, [r6, #0]
 8007e86:	1d1a      	adds	r2, r3, #4
 8007e88:	681b      	ldr	r3, [r3, #0]
 8007e8a:	6032      	str	r2, [r6, #0]
 8007e8c:	f104 0642 	add.w	r6, r4, #66	@ 0x42
 8007e90:	f884 3042 	strb.w	r3, [r4, #66]	@ 0x42
 8007e94:	2301      	movs	r3, #1
 8007e96:	e09c      	b.n	8007fd2 <_printf_i+0x1e6>
 8007e98:	6833      	ldr	r3, [r6, #0]
 8007e9a:	6820      	ldr	r0, [r4, #0]
 8007e9c:	1d19      	adds	r1, r3, #4
 8007e9e:	6031      	str	r1, [r6, #0]
 8007ea0:	0606      	lsls	r6, r0, #24
 8007ea2:	d501      	bpl.n	8007ea8 <_printf_i+0xbc>
 8007ea4:	681d      	ldr	r5, [r3, #0]
 8007ea6:	e003      	b.n	8007eb0 <_printf_i+0xc4>
 8007ea8:	0645      	lsls	r5, r0, #25
 8007eaa:	d5fb      	bpl.n	8007ea4 <_printf_i+0xb8>
 8007eac:	f9b3 5000 	ldrsh.w	r5, [r3]
 8007eb0:	2d00      	cmp	r5, #0
 8007eb2:	da03      	bge.n	8007ebc <_printf_i+0xd0>
 8007eb4:	232d      	movs	r3, #45	@ 0x2d
 8007eb6:	426d      	negs	r5, r5
 8007eb8:	f884 3043 	strb.w	r3, [r4, #67]	@ 0x43
 8007ebc:	4858      	ldr	r0, [pc, #352]	@ (8008020 <_printf_i+0x234>)
 8007ebe:	230a      	movs	r3, #10
 8007ec0:	e011      	b.n	8007ee6 <_printf_i+0xfa>
 8007ec2:	6821      	ldr	r1, [r4, #0]
 8007ec4:	6833      	ldr	r3, [r6, #0]
 8007ec6:	0608      	lsls	r0, r1, #24
 8007ec8:	f853 5b04 	ldr.w	r5, [r3], #4
 8007ecc:	d402      	bmi.n	8007ed4 <_printf_i+0xe8>
 8007ece:	0649      	lsls	r1, r1, #25
 8007ed0:	bf48      	it	mi
 8007ed2:	b2ad      	uxthmi	r5, r5
 8007ed4:	2f6f      	cmp	r7, #111	@ 0x6f
 8007ed6:	4852      	ldr	r0, [pc, #328]	@ (8008020 <_printf_i+0x234>)
 8007ed8:	6033      	str	r3, [r6, #0]
 8007eda:	bf14      	ite	ne
 8007edc:	230a      	movne	r3, #10
 8007ede:	2308      	moveq	r3, #8
 8007ee0:	2100      	movs	r1, #0
 8007ee2:	f884 1043 	strb.w	r1, [r4, #67]	@ 0x43
 8007ee6:	6866      	ldr	r6, [r4, #4]
 8007ee8:	60a6      	str	r6, [r4, #8]
 8007eea:	2e00      	cmp	r6, #0
 8007eec:	db05      	blt.n	8007efa <_printf_i+0x10e>
 8007eee:	6821      	ldr	r1, [r4, #0]
 8007ef0:	432e      	orrs	r6, r5
 8007ef2:	f021 0104 	bic.w	r1, r1, #4
 8007ef6:	6021      	str	r1, [r4, #0]
 8007ef8:	d04b      	beq.n	8007f92 <_printf_i+0x1a6>
 8007efa:	4616      	mov	r6, r2
 8007efc:	fbb5 f1f3 	udiv	r1, r5, r3
 8007f00:	fb03 5711 	mls	r7, r3, r1, r5
 8007f04:	5dc7      	ldrb	r7, [r0, r7]
 8007f06:	f806 7d01 	strb.w	r7, [r6, #-1]!
 8007f0a:	462f      	mov	r7, r5
 8007f0c:	42bb      	cmp	r3, r7
 8007f0e:	460d      	mov	r5, r1
 8007f10:	d9f4      	bls.n	8007efc <_printf_i+0x110>
 8007f12:	2b08      	cmp	r3, #8
 8007f14:	d10b      	bne.n	8007f2e <_printf_i+0x142>
 8007f16:	6823      	ldr	r3, [r4, #0]
 8007f18:	07df      	lsls	r7, r3, #31
 8007f1a:	d508      	bpl.n	8007f2e <_printf_i+0x142>
 8007f1c:	6923      	ldr	r3, [r4, #16]
 8007f1e:	6861      	ldr	r1, [r4, #4]
 8007f20:	4299      	cmp	r1, r3
 8007f22:	bfde      	ittt	le
 8007f24:	2330      	movle	r3, #48	@ 0x30
 8007f26:	f806 3c01 	strble.w	r3, [r6, #-1]
 8007f2a:	f106 36ff 	addle.w	r6, r6, #4294967295	@ 0xffffffff
 8007f2e:	1b92      	subs	r2, r2, r6
 8007f30:	6122      	str	r2, [r4, #16]
 8007f32:	f8cd a000 	str.w	sl, [sp]
 8007f36:	464b      	mov	r3, r9
 8007f38:	aa03      	add	r2, sp, #12
 8007f3a:	4621      	mov	r1, r4
 8007f3c:	4640      	mov	r0, r8
 8007f3e:	f7ff fee7 	bl	8007d10 <_printf_common>
 8007f42:	3001      	adds	r0, #1
 8007f44:	d14a      	bne.n	8007fdc <_printf_i+0x1f0>
 8007f46:	f04f 30ff 	mov.w	r0, #4294967295	@ 0xffffffff
 8007f4a:	b004      	add	sp, #16
 8007f4c:	e8bd 87f0 	ldmia.w	sp!, {r4, r5, r6, r7, r8, r9, sl, pc}
 8007f50:	6823      	ldr	r3, [r4, #0]
 8007f52:	f043 0320 	orr.w	r3, r3, #32
 8007f56:	6023      	str	r3, [r4, #0]
 8007f58:	4832      	ldr	r0, [pc, #200]	@ (8008024 <_printf_i+0x238>)
 8007f5a:	2778      	movs	r7, #120	@ 0x78
 8007f5c:	f884 7045 	strb.w	r7, [r4, #69]	@ 0x45
 8007f60:	6823      	ldr	r3, [r4, #0]
 8007f62:	6831      	ldr	r1, [r6, #0]
 8007f64:	061f      	lsls	r7, r3, #24
 8007f66:	f851 5b04 	ldr.w	r5, [r1], #4
 8007f6a:	d402      	bmi.n	8007f72 <_printf_i+0x186>
 8007f6c:	065f      	lsls	r7, r3, #25
 8007f6e:	bf48      	it	mi
 8007f70:	b2ad      	uxthmi	r5, r5
 8007f72:	6031      	str	r1, [r6, #0]
 8007f74:	07d9      	lsls	r1, r3, #31
 8007f76:	bf44      	itt	mi
 8007f78:	f043 0320 	orrmi.w	r3, r3, #32
 8007f7c:	6023      	strmi	r3, [r4, #0]
 8007f7e:	b11d      	cbz	r5, 8007f88 <_printf_i+0x19c>
 8007f80:	2310      	movs	r3, #16
 8007f82:	e7ad      	b.n	8007ee0 <_printf_i+0xf4>
 8007f84:	4826      	ldr	r0, [pc, #152]	@ (8008020 <_printf_i+0x234>)
 8007f86:	e7e9      	b.n	8007f5c <_printf_i+0x170>
 8007f88:	6823      	ldr	r3, [r4, #0]
 8007f8a:	f023 0320 	bic.w	r3, r3, #32
 8007f8e:	6023      	str	r3, [r4, #0]
 8007f90:	e7f6      	b.n	8007f80 <_printf_i+0x194>
 8007f92:	4616      	mov	r6, r2
 8007f94:	e7bd      	b.n	8007f12 <_printf_i+0x126>
 8007f96:	6833      	ldr	r3, [r6, #0]
 8007f98:	6825      	ldr	r5, [r4, #0]
 8007f9a:	6961      	ldr	r1, [r4, #20]
 8007f9c:	1d18      	adds	r0, r3, #4
 8007f9e:	6030      	str	r0, [r6, #0]
 8007fa0:	062e      	lsls	r6, r5, #24
 8007fa2:	681b      	ldr	r3, [r3, #0]
 8007fa4:	d501      	bpl.n	8007faa <_printf_i+0x1be>
 8007fa6:	6019      	str	r1, [r3, #0]
 8007fa8:	e002      	b.n	8007fb0 <_printf_i+0x1c4>
 8007faa:	0668      	lsls	r0, r5, #25
 8007fac:	d5fb      	bpl.n	8007fa6 <_printf_i+0x1ba>
 8007fae:	8019      	strh	r1, [r3, #0]
 8007fb0:	2300      	movs	r3, #0
 8007fb2:	6123      	str	r3, [r4, #16]
 8007fb4:	4616      	mov	r6, r2
 8007fb6:	e7bc      	b.n	8007f32 <_printf_i+0x146>
 8007fb8:	6833      	ldr	r3, [r6, #0]
 8007fba:	1d1a      	adds	r2, r3, #4
 8007fbc:	6032      	str	r2, [r6, #0]
 8007fbe:	681e      	ldr	r6, [r3, #0]
 8007fc0:	6862      	ldr	r2, [r4, #4]
 8007fc2:	2100      	movs	r1, #0
 8007fc4:	4630      	mov	r0, r6
 8007fc6:	f7f8 f92b 	bl	8000220 <memchr>
 8007fca:	b108      	cbz	r0, 8007fd0 <_printf_i+0x1e4>
 8007fcc:	1b80      	subs	r0, r0, r6
 8007fce:	6060      	str	r0, [r4, #4]
 8007fd0:	6863      	ldr	r3, [r4, #4]
 8007fd2:	6123      	str	r3, [r4, #16]
 8007fd4:	2300      	movs	r3, #0
 8007fd6:	f884 3043 	strb.w	r3, [r4, #67]	@ 0x43
 8007fda:	e7aa      	b.n	8007f32 <_printf_i+0x146>
 8007fdc:	6923      	ldr	r3, [r4, #16]
 8007fde:	4632      	mov	r2, r6
 8007fe0:	4649      	mov	r1, r9
 8007fe2:	4640      	mov	r0, r8
 8007fe4:	47d0      	blx	sl
 8007fe6:	3001      	adds	r0, #1
 8007fe8:	d0ad      	beq.n	8007f46 <_printf_i+0x15a>
 8007fea:	6823      	ldr	r3, [r4, #0]
 8007fec:	079b      	lsls	r3, r3, #30
 8007fee:	d413      	bmi.n	8008018 <_printf_i+0x22c>
 8007ff0:	68e0      	ldr	r0, [r4, #12]
 8007ff2:	9b03      	ldr	r3, [sp, #12]
 8007ff4:	4298      	cmp	r0, r3
 8007ff6:	bfb8      	it	lt
 8007ff8:	4618      	movlt	r0, r3
 8007ffa:	e7a6      	b.n	8007f4a <_printf_i+0x15e>
 8007ffc:	2301      	movs	r3, #1
 8007ffe:	4632      	mov	r2, r6
 8008000:	4649      	mov	r1, r9
 8008002:	4640      	mov	r0, r8
 8008004:	47d0      	blx	sl
 8008006:	3001      	adds	r0, #1
 8008008:	d09d      	beq.n	8007f46 <_printf_i+0x15a>
 800800a:	3501      	adds	r5, #1
 800800c:	68e3      	ldr	r3, [r4, #12]
 800800e:	9903      	ldr	r1, [sp, #12]
 8008010:	1a5b      	subs	r3, r3, r1
 8008012:	42ab      	cmp	r3, r5
 8008014:	dcf2      	bgt.n	8007ffc <_printf_i+0x210>
 8008016:	e7eb      	b.n	8007ff0 <_printf_i+0x204>
 8008018:	2500      	movs	r5, #0
 800801a:	f104 0619 	add.w	r6, r4, #25
 800801e:	e7f5      	b.n	800800c <_printf_i+0x220>
 8008020:	0800a118 	.word	0x0800a118
 8008024:	0800a129 	.word	0x0800a129

08008028 <std>:
 8008028:	2300      	movs	r3, #0
 800802a:	b510      	push	{r4, lr}
 800802c:	4604      	mov	r4, r0
 800802e:	e9c0 3300 	strd	r3, r3, [r0]
 8008032:	e9c0 3304 	strd	r3, r3, [r0, #16]
 8008036:	6083      	str	r3, [r0, #8]
 8008038:	8181      	strh	r1, [r0, #12]
 800803a:	6643      	str	r3, [r0, #100]	@ 0x64
 800803c:	81c2      	strh	r2, [r0, #14]
 800803e:	6183      	str	r3, [r0, #24]
 8008040:	4619      	mov	r1, r3
 8008042:	2208      	movs	r2, #8
 8008044:	305c      	adds	r0, #92	@ 0x5c
 8008046:	f000 f8f4 	bl	8008232 <memset>
 800804a:	4b0d      	ldr	r3, [pc, #52]	@ (8008080 <std+0x58>)
 800804c:	6263      	str	r3, [r4, #36]	@ 0x24
 800804e:	4b0d      	ldr	r3, [pc, #52]	@ (8008084 <std+0x5c>)
 8008050:	62a3      	str	r3, [r4, #40]	@ 0x28
 8008052:	4b0d      	ldr	r3, [pc, #52]	@ (8008088 <std+0x60>)
 8008054:	62e3      	str	r3, [r4, #44]	@ 0x2c
 8008056:	4b0d      	ldr	r3, [pc, #52]	@ (800808c <std+0x64>)
 8008058:	6323      	str	r3, [r4, #48]	@ 0x30
 800805a:	4b0d      	ldr	r3, [pc, #52]	@ (8008090 <std+0x68>)
 800805c:	6224      	str	r4, [r4, #32]
 800805e:	429c      	cmp	r4, r3
 8008060:	d006      	beq.n	8008070 <std+0x48>
 8008062:	f103 0268 	add.w	r2, r3, #104	@ 0x68
 8008066:	4294      	cmp	r4, r2
 8008068:	d002      	beq.n	8008070 <std+0x48>
 800806a:	33d0      	adds	r3, #208	@ 0xd0
 800806c:	429c      	cmp	r4, r3
 800806e:	d105      	bne.n	800807c <std+0x54>
 8008070:	f104 0058 	add.w	r0, r4, #88	@ 0x58
 8008074:	e8bd 4010 	ldmia.w	sp!, {r4, lr}
 8008078:	f000 b958 	b.w	800832c <__retarget_lock_init_recursive>
 800807c:	bd10      	pop	{r4, pc}
 800807e:	bf00      	nop
 8008080:	080081ad 	.word	0x080081ad
 8008084:	080081cf 	.word	0x080081cf
 8008088:	08008207 	.word	0x08008207
 800808c:	0800822b 	.word	0x0800822b
 8008090:	2000237c 	.word	0x2000237c

08008094 <stdio_exit_handler>:
 8008094:	4a02      	ldr	r2, [pc, #8]	@ (80080a0 <stdio_exit_handler+0xc>)
 8008096:	4903      	ldr	r1, [pc, #12]	@ (80080a4 <stdio_exit_handler+0x10>)
 8008098:	4803      	ldr	r0, [pc, #12]	@ (80080a8 <stdio_exit_handler+0x14>)
 800809a:	f000 b869 	b.w	8008170 <_fwalk_sglue>
 800809e:	bf00      	nop
 80080a0:	200001c8 	.word	0x200001c8
 80080a4:	08009a0d 	.word	0x08009a0d
 80080a8:	200001d8 	.word	0x200001d8

080080ac <cleanup_stdio>:
 80080ac:	6841      	ldr	r1, [r0, #4]
 80080ae:	4b0c      	ldr	r3, [pc, #48]	@ (80080e0 <cleanup_stdio+0x34>)
 80080b0:	4299      	cmp	r1, r3
 80080b2:	b510      	push	{r4, lr}
 80080b4:	4604      	mov	r4, r0
 80080b6:	d001      	beq.n	80080bc <cleanup_stdio+0x10>
 80080b8:	f001 fca8 	bl	8009a0c <_fflush_r>
 80080bc:	68a1      	ldr	r1, [r4, #8]
 80080be:	4b09      	ldr	r3, [pc, #36]	@ (80080e4 <cleanup_stdio+0x38>)
 80080c0:	4299      	cmp	r1, r3
 80080c2:	d002      	beq.n	80080ca <cleanup_stdio+0x1e>
 80080c4:	4620      	mov	r0, r4
 80080c6:	f001 fca1 	bl	8009a0c <_fflush_r>
 80080ca:	68e1      	ldr	r1, [r4, #12]
 80080cc:	4b06      	ldr	r3, [pc, #24]	@ (80080e8 <cleanup_stdio+0x3c>)
 80080ce:	4299      	cmp	r1, r3
 80080d0:	d004      	beq.n	80080dc <cleanup_stdio+0x30>
 80080d2:	4620      	mov	r0, r4
 80080d4:	e8bd 4010 	ldmia.w	sp!, {r4, lr}
 80080d8:	f001 bc98 	b.w	8009a0c <_fflush_r>
 80080dc:	bd10      	pop	{r4, pc}
 80080de:	bf00      	nop
 80080e0:	2000237c 	.word	0x2000237c
 80080e4:	200023e4 	.word	0x200023e4
 80080e8:	2000244c 	.word	0x2000244c

080080ec <global_stdio_init.part.0>:
 80080ec:	b510      	push	{r4, lr}
 80080ee:	4b0b      	ldr	r3, [pc, #44]	@ (800811c <global_stdio_init.part.0+0x30>)
 80080f0:	4c0b      	ldr	r4, [pc, #44]	@ (8008120 <global_stdio_init.part.0+0x34>)
 80080f2:	4a0c      	ldr	r2, [pc, #48]	@ (8008124 <global_stdio_init.part.0+0x38>)
 80080f4:	601a      	str	r2, [r3, #0]
 80080f6:	4620      	mov	r0, r4
 80080f8:	2200      	movs	r2, #0
 80080fa:	2104      	movs	r1, #4
 80080fc:	f7ff ff94 	bl	8008028 <std>
 8008100:	f104 0068 	add.w	r0, r4, #104	@ 0x68
 8008104:	2201      	movs	r2, #1
 8008106:	2109      	movs	r1, #9
 8008108:	f7ff ff8e 	bl	8008028 <std>
 800810c:	f104 00d0 	add.w	r0, r4, #208	@ 0xd0
 8008110:	2202      	movs	r2, #2
 8008112:	e8bd 4010 	ldmia.w	sp!, {r4, lr}
 8008116:	2112      	movs	r1, #18
 8008118:	f7ff bf86 	b.w	8008028 <std>
 800811c:	200024b4 	.word	0x200024b4
 8008120:	2000237c 	.word	0x2000237c
 8008124:	08008095 	.word	0x08008095

08008128 <__sfp_lock_acquire>:
 8008128:	4801      	ldr	r0, [pc, #4]	@ (8008130 <__sfp_lock_acquire+0x8>)
 800812a:	f000 b900 	b.w	800832e <__retarget_lock_acquire_recursive>
 800812e:	bf00      	nop
 8008130:	200024bd 	.word	0x200024bd

08008134 <__sfp_lock_release>:
 8008134:	4801      	ldr	r0, [pc, #4]	@ (800813c <__sfp_lock_release+0x8>)
 8008136:	f000 b8fb 	b.w	8008330 <__retarget_lock_release_recursive>
 800813a:	bf00      	nop
 800813c:	200024bd 	.word	0x200024bd

08008140 <__sinit>:
 8008140:	b510      	push	{r4, lr}
 8008142:	4604      	mov	r4, r0
 8008144:	f7ff fff0 	bl	8008128 <__sfp_lock_acquire>
 8008148:	6a23      	ldr	r3, [r4, #32]
 800814a:	b11b      	cbz	r3, 8008154 <__sinit+0x14>
 800814c:	e8bd 4010 	ldmia.w	sp!, {r4, lr}
 8008150:	f7ff bff0 	b.w	8008134 <__sfp_lock_release>
 8008154:	4b04      	ldr	r3, [pc, #16]	@ (8008168 <__sinit+0x28>)
 8008156:	6223      	str	r3, [r4, #32]
 8008158:	4b04      	ldr	r3, [pc, #16]	@ (800816c <__sinit+0x2c>)
 800815a:	681b      	ldr	r3, [r3, #0]
 800815c:	2b00      	cmp	r3, #0
 800815e:	d1f5      	bne.n	800814c <__sinit+0xc>
 8008160:	f7ff ffc4 	bl	80080ec <global_stdio_init.part.0>
 8008164:	e7f2      	b.n	800814c <__sinit+0xc>
 8008166:	bf00      	nop
 8008168:	080080ad 	.word	0x080080ad
 800816c:	200024b4 	.word	0x200024b4

08008170 <_fwalk_sglue>:
 8008170:	e92d 43f8 	stmdb	sp!, {r3, r4, r5, r6, r7, r8, r9, lr}
 8008174:	4607      	mov	r7, r0
 8008176:	4688      	mov	r8, r1
 8008178:	4614      	mov	r4, r2
 800817a:	2600      	movs	r6, #0
 800817c:	e9d4 9501 	ldrd	r9, r5, [r4, #4]
 8008180:	f1b9 0901 	subs.w	r9, r9, #1
 8008184:	d505      	bpl.n	8008192 <_fwalk_sglue+0x22>
 8008186:	6824      	ldr	r4, [r4, #0]
 8008188:	2c00      	cmp	r4, #0
 800818a:	d1f7      	bne.n	800817c <_fwalk_sglue+0xc>
 800818c:	4630      	mov	r0, r6
 800818e:	e8bd 83f8 	ldmia.w	sp!, {r3, r4, r5, r6, r7, r8, r9, pc}
 8008192:	89ab      	ldrh	r3, [r5, #12]
 8008194:	2b01      	cmp	r3, #1
 8008196:	d907      	bls.n	80081a8 <_fwalk_sglue+0x38>
 8008198:	f9b5 300e 	ldrsh.w	r3, [r5, #14]
 800819c:	3301      	adds	r3, #1
 800819e:	d003      	beq.n	80081a8 <_fwalk_sglue+0x38>
 80081a0:	4629      	mov	r1, r5
 80081a2:	4638      	mov	r0, r7
 80081a4:	47c0      	blx	r8
 80081a6:	4306      	orrs	r6, r0
 80081a8:	3568      	adds	r5, #104	@ 0x68
 80081aa:	e7e9      	b.n	8008180 <_fwalk_sglue+0x10>

080081ac <__sread>:
 80081ac:	b510      	push	{r4, lr}
 80081ae:	460c      	mov	r4, r1
 80081b0:	f9b1 100e 	ldrsh.w	r1, [r1, #14]
 80081b4:	f000 f86c 	bl	8008290 <_read_r>
 80081b8:	2800      	cmp	r0, #0
 80081ba:	bfab      	itete	ge
 80081bc:	6d63      	ldrge	r3, [r4, #84]	@ 0x54
 80081be:	89a3      	ldrhlt	r3, [r4, #12]
 80081c0:	181b      	addge	r3, r3, r0
 80081c2:	f423 5380 	biclt.w	r3, r3, #4096	@ 0x1000
 80081c6:	bfac      	ite	ge
 80081c8:	6563      	strge	r3, [r4, #84]	@ 0x54
 80081ca:	81a3      	strhlt	r3, [r4, #12]
 80081cc:	bd10      	pop	{r4, pc}

080081ce <__swrite>:
 80081ce:	e92d 41f0 	stmdb	sp!, {r4, r5, r6, r7, r8, lr}
 80081d2:	461f      	mov	r7, r3
 80081d4:	898b      	ldrh	r3, [r1, #12]
 80081d6:	05db      	lsls	r3, r3, #23
 80081d8:	4605      	mov	r5, r0
 80081da:	460c      	mov	r4, r1
 80081dc:	4616      	mov	r6, r2
 80081de:	d505      	bpl.n	80081ec <__swrite+0x1e>
 80081e0:	f9b1 100e 	ldrsh.w	r1, [r1, #14]
 80081e4:	2302      	movs	r3, #2
 80081e6:	2200      	movs	r2, #0
 80081e8:	f000 f840 	bl	800826c <_lseek_r>
 80081ec:	89a3      	ldrh	r3, [r4, #12]
 80081ee:	f9b4 100e 	ldrsh.w	r1, [r4, #14]
 80081f2:	f423 5380 	bic.w	r3, r3, #4096	@ 0x1000
 80081f6:	81a3      	strh	r3, [r4, #12]
 80081f8:	4632      	mov	r2, r6
 80081fa:	463b      	mov	r3, r7
 80081fc:	4628      	mov	r0, r5
 80081fe:	e8bd 41f0 	ldmia.w	sp!, {r4, r5, r6, r7, r8, lr}
 8008202:	f000 b857 	b.w	80082b4 <_write_r>

08008206 <__sseek>:
 8008206:	b510      	push	{r4, lr}
 8008208:	460c      	mov	r4, r1
 800820a:	f9b1 100e 	ldrsh.w	r1, [r1, #14]
 800820e:	f000 f82d 	bl	800826c <_lseek_r>
 8008212:	1c43      	adds	r3, r0, #1
 8008214:	89a3      	ldrh	r3, [r4, #12]
 8008216:	bf15      	itete	ne
 8008218:	6560      	strne	r0, [r4, #84]	@ 0x54
 800821a:	f423 5380 	biceq.w	r3, r3, #4096	@ 0x1000
 800821e:	f443 5380 	orrne.w	r3, r3, #4096	@ 0x1000
 8008222:	81a3      	strheq	r3, [r4, #12]
 8008224:	bf18      	it	ne
 8008226:	81a3      	strhne	r3, [r4, #12]
 8008228:	bd10      	pop	{r4, pc}

0800822a <__sclose>:
 800822a:	f9b1 100e 	ldrsh.w	r1, [r1, #14]
 800822e:	f000 b80d 	b.w	800824c <_close_r>

08008232 <memset>:
 8008232:	4402      	add	r2, r0
 8008234:	4603      	mov	r3, r0
 8008236:	4293      	cmp	r3, r2
 8008238:	d100      	bne.n	800823c <memset+0xa>
 800823a:	4770      	bx	lr
 800823c:	f803 1b01 	strb.w	r1, [r3], #1
 8008240:	e7f9      	b.n	8008236 <memset+0x4>
	...

08008244 <_localeconv_r>:
 8008244:	4800      	ldr	r0, [pc, #0]	@ (8008248 <_localeconv_r+0x4>)
 8008246:	4770      	bx	lr
 8008248:	20000314 	.word	0x20000314

0800824c <_close_r>:
 800824c:	b538      	push	{r3, r4, r5, lr}
 800824e:	4d06      	ldr	r5, [pc, #24]	@ (8008268 <_close_r+0x1c>)
 8008250:	2300      	movs	r3, #0
 8008252:	4604      	mov	r4, r0
 8008254:	4608      	mov	r0, r1
 8008256:	602b      	str	r3, [r5, #0]
 8008258:	f7fa fa50 	bl	80026fc <_close>
 800825c:	1c43      	adds	r3, r0, #1
 800825e:	d102      	bne.n	8008266 <_close_r+0x1a>
 8008260:	682b      	ldr	r3, [r5, #0]
 8008262:	b103      	cbz	r3, 8008266 <_close_r+0x1a>
 8008264:	6023      	str	r3, [r4, #0]
 8008266:	bd38      	pop	{r3, r4, r5, pc}
 8008268:	200024b8 	.word	0x200024b8

0800826c <_lseek_r>:
 800826c:	b538      	push	{r3, r4, r5, lr}
 800826e:	4d07      	ldr	r5, [pc, #28]	@ (800828c <_lseek_r+0x20>)
 8008270:	4604      	mov	r4, r0
 8008272:	4608      	mov	r0, r1
 8008274:	4611      	mov	r1, r2
 8008276:	2200      	movs	r2, #0
 8008278:	602a      	str	r2, [r5, #0]
 800827a:	461a      	mov	r2, r3
 800827c:	f7fa fa48 	bl	8002710 <_lseek>
 8008280:	1c43      	adds	r3, r0, #1
 8008282:	d102      	bne.n	800828a <_lseek_r+0x1e>
 8008284:	682b      	ldr	r3, [r5, #0]
 8008286:	b103      	cbz	r3, 800828a <_lseek_r+0x1e>
 8008288:	6023      	str	r3, [r4, #0]
 800828a:	bd38      	pop	{r3, r4, r5, pc}
 800828c:	200024b8 	.word	0x200024b8

08008290 <_read_r>:
 8008290:	b538      	push	{r3, r4, r5, lr}
 8008292:	4d07      	ldr	r5, [pc, #28]	@ (80082b0 <_read_r+0x20>)
 8008294:	4604      	mov	r4, r0
 8008296:	4608      	mov	r0, r1
 8008298:	4611      	mov	r1, r2
 800829a:	2200      	movs	r2, #0
 800829c:	602a      	str	r2, [r5, #0]
 800829e:	461a      	mov	r2, r3
 80082a0:	f7fa fa10 	bl	80026c4 <_read>
 80082a4:	1c43      	adds	r3, r0, #1
 80082a6:	d102      	bne.n	80082ae <_read_r+0x1e>
 80082a8:	682b      	ldr	r3, [r5, #0]
 80082aa:	b103      	cbz	r3, 80082ae <_read_r+0x1e>
 80082ac:	6023      	str	r3, [r4, #0]
 80082ae:	bd38      	pop	{r3, r4, r5, pc}
 80082b0:	200024b8 	.word	0x200024b8

080082b4 <_write_r>:
 80082b4:	b538      	push	{r3, r4, r5, lr}
 80082b6:	4d07      	ldr	r5, [pc, #28]	@ (80082d4 <_write_r+0x20>)
 80082b8:	4604      	mov	r4, r0
 80082ba:	4608      	mov	r0, r1
 80082bc:	4611      	mov	r1, r2
 80082be:	2200      	movs	r2, #0
 80082c0:	602a      	str	r2, [r5, #0]
 80082c2:	461a      	mov	r2, r3
 80082c4:	f7fa fa0c 	bl	80026e0 <_write>
 80082c8:	1c43      	adds	r3, r0, #1
 80082ca:	d102      	bne.n	80082d2 <_write_r+0x1e>
 80082cc:	682b      	ldr	r3, [r5, #0]
 80082ce:	b103      	cbz	r3, 80082d2 <_write_r+0x1e>
 80082d0:	6023      	str	r3, [r4, #0]
 80082d2:	bd38      	pop	{r3, r4, r5, pc}
 80082d4:	200024b8 	.word	0x200024b8

080082d8 <__errno>:
 80082d8:	4b01      	ldr	r3, [pc, #4]	@ (80082e0 <__errno+0x8>)
 80082da:	6818      	ldr	r0, [r3, #0]
 80082dc:	4770      	bx	lr
 80082de:	bf00      	nop
 80082e0:	200001d4 	.word	0x200001d4

080082e4 <__libc_init_array>:
 80082e4:	b570      	push	{r4, r5, r6, lr}
 80082e6:	4d0d      	ldr	r5, [pc, #52]	@ (800831c <__libc_init_array+0x38>)
 80082e8:	4c0d      	ldr	r4, [pc, #52]	@ (8008320 <__libc_init_array+0x3c>)
 80082ea:	1b64      	subs	r4, r4, r5
 80082ec:	10a4      	asrs	r4, r4, #2
 80082ee:	2600      	movs	r6, #0
 80082f0:	42a6      	cmp	r6, r4
 80082f2:	d109      	bne.n	8008308 <__libc_init_array+0x24>
 80082f4:	4d0b      	ldr	r5, [pc, #44]	@ (8008324 <__libc_init_array+0x40>)
 80082f6:	4c0c      	ldr	r4, [pc, #48]	@ (8008328 <__libc_init_array+0x44>)
 80082f8:	f001 fec8 	bl	800a08c <_init>
 80082fc:	1b64      	subs	r4, r4, r5
 80082fe:	10a4      	asrs	r4, r4, #2
 8008300:	2600      	movs	r6, #0
 8008302:	42a6      	cmp	r6, r4
 8008304:	d105      	bne.n	8008312 <__libc_init_array+0x2e>
 8008306:	bd70      	pop	{r4, r5, r6, pc}
 8008308:	f855 3b04 	ldr.w	r3, [r5], #4
 800830c:	4798      	blx	r3
 800830e:	3601      	adds	r6, #1
 8008310:	e7ee      	b.n	80082f0 <__libc_init_array+0xc>
 8008312:	f855 3b04 	ldr.w	r3, [r5], #4
 8008316:	4798      	blx	r3
 8008318:	3601      	adds	r6, #1
 800831a:	e7f2      	b.n	8008302 <__libc_init_array+0x1e>
 800831c:	0800a4e4 	.word	0x0800a4e4
 8008320:	0800a4e4 	.word	0x0800a4e4
 8008324:	0800a4e4 	.word	0x0800a4e4
 8008328:	0800a4e8 	.word	0x0800a4e8

0800832c <__retarget_lock_init_recursive>:
 800832c:	4770      	bx	lr

0800832e <__retarget_lock_acquire_recursive>:
 800832e:	4770      	bx	lr

08008330 <__retarget_lock_release_recursive>:
 8008330:	4770      	bx	lr

08008332 <strcpy>:
 8008332:	4603      	mov	r3, r0
 8008334:	f811 2b01 	ldrb.w	r2, [r1], #1
 8008338:	f803 2b01 	strb.w	r2, [r3], #1
 800833c:	2a00      	cmp	r2, #0
 800833e:	d1f9      	bne.n	8008334 <strcpy+0x2>
 8008340:	4770      	bx	lr

08008342 <memcpy>:
 8008342:	440a      	add	r2, r1
 8008344:	4291      	cmp	r1, r2
 8008346:	f100 33ff 	add.w	r3, r0, #4294967295	@ 0xffffffff
 800834a:	d100      	bne.n	800834e <memcpy+0xc>
 800834c:	4770      	bx	lr
 800834e:	b510      	push	{r4, lr}
 8008350:	f811 4b01 	ldrb.w	r4, [r1], #1
 8008354:	f803 4f01 	strb.w	r4, [r3, #1]!
 8008358:	4291      	cmp	r1, r2
 800835a:	d1f9      	bne.n	8008350 <memcpy+0xe>
 800835c:	bd10      	pop	{r4, pc}

0800835e <quorem>:
 800835e:	e92d 4ff7 	stmdb	sp!, {r0, r1, r2, r4, r5, r6, r7, r8, r9, sl, fp, lr}
 8008362:	6903      	ldr	r3, [r0, #16]
 8008364:	690c      	ldr	r4, [r1, #16]
 8008366:	42a3      	cmp	r3, r4
 8008368:	4607      	mov	r7, r0
 800836a:	db7e      	blt.n	800846a <quorem+0x10c>
 800836c:	3c01      	subs	r4, #1
 800836e:	f101 0814 	add.w	r8, r1, #20
 8008372:	00a3      	lsls	r3, r4, #2
 8008374:	f100 0514 	add.w	r5, r0, #20
 8008378:	9300      	str	r3, [sp, #0]
 800837a:	eb05 0384 	add.w	r3, r5, r4, lsl #2
 800837e:	9301      	str	r3, [sp, #4]
 8008380:	f858 3024 	ldr.w	r3, [r8, r4, lsl #2]
 8008384:	f855 2024 	ldr.w	r2, [r5, r4, lsl #2]
 8008388:	3301      	adds	r3, #1
 800838a:	429a      	cmp	r2, r3
 800838c:	eb08 0984 	add.w	r9, r8, r4, lsl #2
 8008390:	fbb2 f6f3 	udiv	r6, r2, r3
 8008394:	d32e      	bcc.n	80083f4 <quorem+0x96>
 8008396:	f04f 0a00 	mov.w	sl, #0
 800839a:	46c4      	mov	ip, r8
 800839c:	46ae      	mov	lr, r5
 800839e:	46d3      	mov	fp, sl
 80083a0:	f85c 3b04 	ldr.w	r3, [ip], #4
 80083a4:	b298      	uxth	r0, r3
 80083a6:	fb06 a000 	mla	r0, r6, r0, sl
 80083aa:	0c02      	lsrs	r2, r0, #16
 80083ac:	0c1b      	lsrs	r3, r3, #16
 80083ae:	fb06 2303 	mla	r3, r6, r3, r2
 80083b2:	f8de 2000 	ldr.w	r2, [lr]
 80083b6:	b280      	uxth	r0, r0
 80083b8:	b292      	uxth	r2, r2
 80083ba:	1a12      	subs	r2, r2, r0
 80083bc:	445a      	add	r2, fp
 80083be:	f8de 0000 	ldr.w	r0, [lr]
 80083c2:	ea4f 4a13 	mov.w	sl, r3, lsr #16
 80083c6:	b29b      	uxth	r3, r3
 80083c8:	ebc3 4322 	rsb	r3, r3, r2, asr #16
 80083cc:	eb03 4310 	add.w	r3, r3, r0, lsr #16
 80083d0:	b292      	uxth	r2, r2
 80083d2:	ea42 4203 	orr.w	r2, r2, r3, lsl #16
 80083d6:	45e1      	cmp	r9, ip
 80083d8:	f84e 2b04 	str.w	r2, [lr], #4
 80083dc:	ea4f 4b23 	mov.w	fp, r3, asr #16
 80083e0:	d2de      	bcs.n	80083a0 <quorem+0x42>
 80083e2:	9b00      	ldr	r3, [sp, #0]
 80083e4:	58eb      	ldr	r3, [r5, r3]
 80083e6:	b92b      	cbnz	r3, 80083f4 <quorem+0x96>
 80083e8:	9b01      	ldr	r3, [sp, #4]
 80083ea:	3b04      	subs	r3, #4
 80083ec:	429d      	cmp	r5, r3
 80083ee:	461a      	mov	r2, r3
 80083f0:	d32f      	bcc.n	8008452 <quorem+0xf4>
 80083f2:	613c      	str	r4, [r7, #16]
 80083f4:	4638      	mov	r0, r7
 80083f6:	f001 f97d 	bl	80096f4 <__mcmp>
 80083fa:	2800      	cmp	r0, #0
 80083fc:	db25      	blt.n	800844a <quorem+0xec>
 80083fe:	4629      	mov	r1, r5
 8008400:	2000      	movs	r0, #0
 8008402:	f858 2b04 	ldr.w	r2, [r8], #4
 8008406:	f8d1 c000 	ldr.w	ip, [r1]
 800840a:	fa1f fe82 	uxth.w	lr, r2
 800840e:	fa1f f38c 	uxth.w	r3, ip
 8008412:	eba3 030e 	sub.w	r3, r3, lr
 8008416:	4403      	add	r3, r0
 8008418:	0c12      	lsrs	r2, r2, #16
 800841a:	ebc2 4223 	rsb	r2, r2, r3, asr #16
 800841e:	eb02 421c 	add.w	r2, r2, ip, lsr #16
 8008422:	b29b      	uxth	r3, r3
 8008424:	ea43 4302 	orr.w	r3, r3, r2, lsl #16
 8008428:	45c1      	cmp	r9, r8
 800842a:	f841 3b04 	str.w	r3, [r1], #4
 800842e:	ea4f 4022 	mov.w	r0, r2, asr #16
 8008432:	d2e6      	bcs.n	8008402 <quorem+0xa4>
 8008434:	f855 2024 	ldr.w	r2, [r5, r4, lsl #2]
 8008438:	eb05 0384 	add.w	r3, r5, r4, lsl #2
 800843c:	b922      	cbnz	r2, 8008448 <quorem+0xea>
 800843e:	3b04      	subs	r3, #4
 8008440:	429d      	cmp	r5, r3
 8008442:	461a      	mov	r2, r3
 8008444:	d30b      	bcc.n	800845e <quorem+0x100>
 8008446:	613c      	str	r4, [r7, #16]
 8008448:	3601      	adds	r6, #1
 800844a:	4630      	mov	r0, r6
 800844c:	b003      	add	sp, #12
 800844e:	e8bd 8ff0 	ldmia.w	sp!, {r4, r5, r6, r7, r8, r9, sl, fp, pc}
 8008452:	6812      	ldr	r2, [r2, #0]
 8008454:	3b04      	subs	r3, #4
 8008456:	2a00      	cmp	r2, #0
 8008458:	d1cb      	bne.n	80083f2 <quorem+0x94>
 800845a:	3c01      	subs	r4, #1
 800845c:	e7c6      	b.n	80083ec <quorem+0x8e>
 800845e:	6812      	ldr	r2, [r2, #0]
 8008460:	3b04      	subs	r3, #4
 8008462:	2a00      	cmp	r2, #0
 8008464:	d1ef      	bne.n	8008446 <quorem+0xe8>
 8008466:	3c01      	subs	r4, #1
 8008468:	e7ea      	b.n	8008440 <quorem+0xe2>
 800846a:	2000      	movs	r0, #0
 800846c:	e7ee      	b.n	800844c <quorem+0xee>
	...

08008470 <_dtoa_r>:
 8008470:	e92d 4ff0 	stmdb	sp!, {r4, r5, r6, r7, r8, r9, sl, fp, lr}
 8008474:	69c7      	ldr	r7, [r0, #28]
 8008476:	b097      	sub	sp, #92	@ 0x5c
 8008478:	ed8d 0b04 	vstr	d0, [sp, #16]
 800847c:	ec55 4b10 	vmov	r4, r5, d0
 8008480:	9e20      	ldr	r6, [sp, #128]	@ 0x80
 8008482:	9107      	str	r1, [sp, #28]
 8008484:	4681      	mov	r9, r0
 8008486:	920c      	str	r2, [sp, #48]	@ 0x30
 8008488:	9311      	str	r3, [sp, #68]	@ 0x44
 800848a:	b97f      	cbnz	r7, 80084ac <_dtoa_r+0x3c>
 800848c:	2010      	movs	r0, #16
 800848e:	f000 fe09 	bl	80090a4 <malloc>
 8008492:	4602      	mov	r2, r0
 8008494:	f8c9 001c 	str.w	r0, [r9, #28]
 8008498:	b920      	cbnz	r0, 80084a4 <_dtoa_r+0x34>
 800849a:	4ba9      	ldr	r3, [pc, #676]	@ (8008740 <_dtoa_r+0x2d0>)
 800849c:	21ef      	movs	r1, #239	@ 0xef
 800849e:	48a9      	ldr	r0, [pc, #676]	@ (8008744 <_dtoa_r+0x2d4>)
 80084a0:	f001 faec 	bl	8009a7c <__assert_func>
 80084a4:	e9c0 7701 	strd	r7, r7, [r0, #4]
 80084a8:	6007      	str	r7, [r0, #0]
 80084aa:	60c7      	str	r7, [r0, #12]
 80084ac:	f8d9 301c 	ldr.w	r3, [r9, #28]
 80084b0:	6819      	ldr	r1, [r3, #0]
 80084b2:	b159      	cbz	r1, 80084cc <_dtoa_r+0x5c>
 80084b4:	685a      	ldr	r2, [r3, #4]
 80084b6:	604a      	str	r2, [r1, #4]
 80084b8:	2301      	movs	r3, #1
 80084ba:	4093      	lsls	r3, r2
 80084bc:	608b      	str	r3, [r1, #8]
 80084be:	4648      	mov	r0, r9
 80084c0:	f000 fee6 	bl	8009290 <_Bfree>
 80084c4:	f8d9 301c 	ldr.w	r3, [r9, #28]
 80084c8:	2200      	movs	r2, #0
 80084ca:	601a      	str	r2, [r3, #0]
 80084cc:	1e2b      	subs	r3, r5, #0
 80084ce:	bfb9      	ittee	lt
 80084d0:	f023 4300 	biclt.w	r3, r3, #2147483648	@ 0x80000000
 80084d4:	9305      	strlt	r3, [sp, #20]
 80084d6:	2300      	movge	r3, #0
 80084d8:	6033      	strge	r3, [r6, #0]
 80084da:	9f05      	ldr	r7, [sp, #20]
 80084dc:	4b9a      	ldr	r3, [pc, #616]	@ (8008748 <_dtoa_r+0x2d8>)
 80084de:	bfbc      	itt	lt
 80084e0:	2201      	movlt	r2, #1
 80084e2:	6032      	strlt	r2, [r6, #0]
 80084e4:	43bb      	bics	r3, r7
 80084e6:	d112      	bne.n	800850e <_dtoa_r+0x9e>
 80084e8:	9a11      	ldr	r2, [sp, #68]	@ 0x44
 80084ea:	f242 730f 	movw	r3, #9999	@ 0x270f
 80084ee:	6013      	str	r3, [r2, #0]
 80084f0:	f3c7 0313 	ubfx	r3, r7, #0, #20
 80084f4:	4323      	orrs	r3, r4
 80084f6:	f000 855a 	beq.w	8008fae <_dtoa_r+0xb3e>
 80084fa:	9b21      	ldr	r3, [sp, #132]	@ 0x84
 80084fc:	f8df a25c 	ldr.w	sl, [pc, #604]	@ 800875c <_dtoa_r+0x2ec>
 8008500:	2b00      	cmp	r3, #0
 8008502:	f000 855c 	beq.w	8008fbe <_dtoa_r+0xb4e>
 8008506:	f10a 0303 	add.w	r3, sl, #3
 800850a:	f000 bd56 	b.w	8008fba <_dtoa_r+0xb4a>
 800850e:	ed9d 7b04 	vldr	d7, [sp, #16]
 8008512:	2200      	movs	r2, #0
 8008514:	ec51 0b17 	vmov	r0, r1, d7
 8008518:	2300      	movs	r3, #0
 800851a:	ed8d 7b0a 	vstr	d7, [sp, #40]	@ 0x28
 800851e:	f7f8 fafb 	bl	8000b18 <__aeabi_dcmpeq>
 8008522:	4680      	mov	r8, r0
 8008524:	b158      	cbz	r0, 800853e <_dtoa_r+0xce>
 8008526:	9a11      	ldr	r2, [sp, #68]	@ 0x44
 8008528:	2301      	movs	r3, #1
 800852a:	6013      	str	r3, [r2, #0]
 800852c:	9b21      	ldr	r3, [sp, #132]	@ 0x84
 800852e:	b113      	cbz	r3, 8008536 <_dtoa_r+0xc6>
 8008530:	9a21      	ldr	r2, [sp, #132]	@ 0x84
 8008532:	4b86      	ldr	r3, [pc, #536]	@ (800874c <_dtoa_r+0x2dc>)
 8008534:	6013      	str	r3, [r2, #0]
 8008536:	f8df a228 	ldr.w	sl, [pc, #552]	@ 8008760 <_dtoa_r+0x2f0>
 800853a:	f000 bd40 	b.w	8008fbe <_dtoa_r+0xb4e>
 800853e:	ed9d 0b0a 	vldr	d0, [sp, #40]	@ 0x28
 8008542:	aa14      	add	r2, sp, #80	@ 0x50
 8008544:	a915      	add	r1, sp, #84	@ 0x54
 8008546:	4648      	mov	r0, r9
 8008548:	f001 f984 	bl	8009854 <__d2b>
 800854c:	f3c7 560a 	ubfx	r6, r7, #20, #11
 8008550:	9002      	str	r0, [sp, #8]
 8008552:	2e00      	cmp	r6, #0
 8008554:	d078      	beq.n	8008648 <_dtoa_r+0x1d8>
 8008556:	9b0b      	ldr	r3, [sp, #44]	@ 0x2c
 8008558:	f8cd 8048 	str.w	r8, [sp, #72]	@ 0x48
 800855c:	f3c3 0313 	ubfx	r3, r3, #0, #20
 8008560:	e9dd 010a 	ldrd	r0, r1, [sp, #40]	@ 0x28
 8008564:	f043 537f 	orr.w	r3, r3, #1069547520	@ 0x3fc00000
 8008568:	f443 1340 	orr.w	r3, r3, #3145728	@ 0x300000
 800856c:	f2a6 36ff 	subw	r6, r6, #1023	@ 0x3ff
 8008570:	4619      	mov	r1, r3
 8008572:	2200      	movs	r2, #0
 8008574:	4b76      	ldr	r3, [pc, #472]	@ (8008750 <_dtoa_r+0x2e0>)
 8008576:	f7f7 feaf 	bl	80002d8 <__aeabi_dsub>
 800857a:	a36b      	add	r3, pc, #428	@ (adr r3, 8008728 <_dtoa_r+0x2b8>)
 800857c:	e9d3 2300 	ldrd	r2, r3, [r3]
 8008580:	f7f8 f862 	bl	8000648 <__aeabi_dmul>
 8008584:	a36a      	add	r3, pc, #424	@ (adr r3, 8008730 <_dtoa_r+0x2c0>)
 8008586:	e9d3 2300 	ldrd	r2, r3, [r3]
 800858a:	f7f7 fea7 	bl	80002dc <__adddf3>
 800858e:	4604      	mov	r4, r0
 8008590:	4630      	mov	r0, r6
 8008592:	460d      	mov	r5, r1
 8008594:	f7f7 ffee 	bl	8000574 <__aeabi_i2d>
 8008598:	a367      	add	r3, pc, #412	@ (adr r3, 8008738 <_dtoa_r+0x2c8>)
 800859a:	e9d3 2300 	ldrd	r2, r3, [r3]
 800859e:	f7f8 f853 	bl	8000648 <__aeabi_dmul>
 80085a2:	4602      	mov	r2, r0
 80085a4:	460b      	mov	r3, r1
 80085a6:	4620      	mov	r0, r4
 80085a8:	4629      	mov	r1, r5
 80085aa:	f7f7 fe97 	bl	80002dc <__adddf3>
 80085ae:	4604      	mov	r4, r0
 80085b0:	460d      	mov	r5, r1
 80085b2:	f7f8 faf9 	bl	8000ba8 <__aeabi_d2iz>
 80085b6:	2200      	movs	r2, #0
 80085b8:	4607      	mov	r7, r0
 80085ba:	2300      	movs	r3, #0
 80085bc:	4620      	mov	r0, r4
 80085be:	4629      	mov	r1, r5
 80085c0:	f7f8 fab4 	bl	8000b2c <__aeabi_dcmplt>
 80085c4:	b140      	cbz	r0, 80085d8 <_dtoa_r+0x168>
 80085c6:	4638      	mov	r0, r7
 80085c8:	f7f7 ffd4 	bl	8000574 <__aeabi_i2d>
 80085cc:	4622      	mov	r2, r4
 80085ce:	462b      	mov	r3, r5
 80085d0:	f7f8 faa2 	bl	8000b18 <__aeabi_dcmpeq>
 80085d4:	b900      	cbnz	r0, 80085d8 <_dtoa_r+0x168>
 80085d6:	3f01      	subs	r7, #1
 80085d8:	2f16      	cmp	r7, #22
 80085da:	d852      	bhi.n	8008682 <_dtoa_r+0x212>
 80085dc:	4b5d      	ldr	r3, [pc, #372]	@ (8008754 <_dtoa_r+0x2e4>)
 80085de:	eb03 03c7 	add.w	r3, r3, r7, lsl #3
 80085e2:	e9d3 2300 	ldrd	r2, r3, [r3]
 80085e6:	e9dd 010a 	ldrd	r0, r1, [sp, #40]	@ 0x28
 80085ea:	f7f8 fa9f 	bl	8000b2c <__aeabi_dcmplt>
 80085ee:	2800      	cmp	r0, #0
 80085f0:	d049      	beq.n	8008686 <_dtoa_r+0x216>
 80085f2:	3f01      	subs	r7, #1
 80085f4:	2300      	movs	r3, #0
 80085f6:	9310      	str	r3, [sp, #64]	@ 0x40
 80085f8:	9b14      	ldr	r3, [sp, #80]	@ 0x50
 80085fa:	1b9b      	subs	r3, r3, r6
 80085fc:	1e5a      	subs	r2, r3, #1
 80085fe:	bf45      	ittet	mi
 8008600:	f1c3 0301 	rsbmi	r3, r3, #1
 8008604:	9300      	strmi	r3, [sp, #0]
 8008606:	2300      	movpl	r3, #0
 8008608:	2300      	movmi	r3, #0
 800860a:	9206      	str	r2, [sp, #24]
 800860c:	bf54      	ite	pl
 800860e:	9300      	strpl	r3, [sp, #0]
 8008610:	9306      	strmi	r3, [sp, #24]
 8008612:	2f00      	cmp	r7, #0
 8008614:	db39      	blt.n	800868a <_dtoa_r+0x21a>
 8008616:	9b06      	ldr	r3, [sp, #24]
 8008618:	970d      	str	r7, [sp, #52]	@ 0x34
 800861a:	443b      	add	r3, r7
 800861c:	9306      	str	r3, [sp, #24]
 800861e:	2300      	movs	r3, #0
 8008620:	9308      	str	r3, [sp, #32]
 8008622:	9b07      	ldr	r3, [sp, #28]
 8008624:	2b09      	cmp	r3, #9
 8008626:	d863      	bhi.n	80086f0 <_dtoa_r+0x280>
 8008628:	2b05      	cmp	r3, #5
 800862a:	bfc4      	itt	gt
 800862c:	3b04      	subgt	r3, #4
 800862e:	9307      	strgt	r3, [sp, #28]
 8008630:	9b07      	ldr	r3, [sp, #28]
 8008632:	f1a3 0302 	sub.w	r3, r3, #2
 8008636:	bfcc      	ite	gt
 8008638:	2400      	movgt	r4, #0
 800863a:	2401      	movle	r4, #1
 800863c:	2b03      	cmp	r3, #3
 800863e:	d863      	bhi.n	8008708 <_dtoa_r+0x298>
 8008640:	e8df f003 	tbb	[pc, r3]
 8008644:	2b375452 	.word	0x2b375452
 8008648:	e9dd 6314 	ldrd	r6, r3, [sp, #80]	@ 0x50
 800864c:	441e      	add	r6, r3
 800864e:	f206 4332 	addw	r3, r6, #1074	@ 0x432
 8008652:	2b20      	cmp	r3, #32
 8008654:	bfc1      	itttt	gt
 8008656:	f1c3 0340 	rsbgt	r3, r3, #64	@ 0x40
 800865a:	409f      	lslgt	r7, r3
 800865c:	f206 4312 	addwgt	r3, r6, #1042	@ 0x412
 8008660:	fa24 f303 	lsrgt.w	r3, r4, r3
 8008664:	bfd6      	itet	le
 8008666:	f1c3 0320 	rsble	r3, r3, #32
 800866a:	ea47 0003 	orrgt.w	r0, r7, r3
 800866e:	fa04 f003 	lslle.w	r0, r4, r3
 8008672:	f7f7 ff6f 	bl	8000554 <__aeabi_ui2d>
 8008676:	2201      	movs	r2, #1
 8008678:	f1a1 73f8 	sub.w	r3, r1, #32505856	@ 0x1f00000
 800867c:	3e01      	subs	r6, #1
 800867e:	9212      	str	r2, [sp, #72]	@ 0x48
 8008680:	e776      	b.n	8008570 <_dtoa_r+0x100>
 8008682:	2301      	movs	r3, #1
 8008684:	e7b7      	b.n	80085f6 <_dtoa_r+0x186>
 8008686:	9010      	str	r0, [sp, #64]	@ 0x40
 8008688:	e7b6      	b.n	80085f8 <_dtoa_r+0x188>
 800868a:	9b00      	ldr	r3, [sp, #0]
 800868c:	1bdb      	subs	r3, r3, r7
 800868e:	9300      	str	r3, [sp, #0]
 8008690:	427b      	negs	r3, r7
 8008692:	9308      	str	r3, [sp, #32]
 8008694:	2300      	movs	r3, #0
 8008696:	930d      	str	r3, [sp, #52]	@ 0x34
 8008698:	e7c3      	b.n	8008622 <_dtoa_r+0x1b2>
 800869a:	2301      	movs	r3, #1
 800869c:	9309      	str	r3, [sp, #36]	@ 0x24
 800869e:	9b0c      	ldr	r3, [sp, #48]	@ 0x30
 80086a0:	eb07 0b03 	add.w	fp, r7, r3
 80086a4:	f10b 0301 	add.w	r3, fp, #1
 80086a8:	2b01      	cmp	r3, #1
 80086aa:	9303      	str	r3, [sp, #12]
 80086ac:	bfb8      	it	lt
 80086ae:	2301      	movlt	r3, #1
 80086b0:	e006      	b.n	80086c0 <_dtoa_r+0x250>
 80086b2:	2301      	movs	r3, #1
 80086b4:	9309      	str	r3, [sp, #36]	@ 0x24
 80086b6:	9b0c      	ldr	r3, [sp, #48]	@ 0x30
 80086b8:	2b00      	cmp	r3, #0
 80086ba:	dd28      	ble.n	800870e <_dtoa_r+0x29e>
 80086bc:	469b      	mov	fp, r3
 80086be:	9303      	str	r3, [sp, #12]
 80086c0:	f8d9 001c 	ldr.w	r0, [r9, #28]
 80086c4:	2100      	movs	r1, #0
 80086c6:	2204      	movs	r2, #4
 80086c8:	f102 0514 	add.w	r5, r2, #20
 80086cc:	429d      	cmp	r5, r3
 80086ce:	d926      	bls.n	800871e <_dtoa_r+0x2ae>
 80086d0:	6041      	str	r1, [r0, #4]
 80086d2:	4648      	mov	r0, r9
 80086d4:	f000 fd9c 	bl	8009210 <_Balloc>
 80086d8:	4682      	mov	sl, r0
 80086da:	2800      	cmp	r0, #0
 80086dc:	d142      	bne.n	8008764 <_dtoa_r+0x2f4>
 80086de:	4b1e      	ldr	r3, [pc, #120]	@ (8008758 <_dtoa_r+0x2e8>)
 80086e0:	4602      	mov	r2, r0
 80086e2:	f240 11af 	movw	r1, #431	@ 0x1af
 80086e6:	e6da      	b.n	800849e <_dtoa_r+0x2e>
 80086e8:	2300      	movs	r3, #0
 80086ea:	e7e3      	b.n	80086b4 <_dtoa_r+0x244>
 80086ec:	2300      	movs	r3, #0
 80086ee:	e7d5      	b.n	800869c <_dtoa_r+0x22c>
 80086f0:	2401      	movs	r4, #1
 80086f2:	2300      	movs	r3, #0
 80086f4:	9307      	str	r3, [sp, #28]
 80086f6:	9409      	str	r4, [sp, #36]	@ 0x24
 80086f8:	f04f 3bff 	mov.w	fp, #4294967295	@ 0xffffffff
 80086fc:	2200      	movs	r2, #0
 80086fe:	f8cd b00c 	str.w	fp, [sp, #12]
 8008702:	2312      	movs	r3, #18
 8008704:	920c      	str	r2, [sp, #48]	@ 0x30
 8008706:	e7db      	b.n	80086c0 <_dtoa_r+0x250>
 8008708:	2301      	movs	r3, #1
 800870a:	9309      	str	r3, [sp, #36]	@ 0x24
 800870c:	e7f4      	b.n	80086f8 <_dtoa_r+0x288>
 800870e:	f04f 0b01 	mov.w	fp, #1
 8008712:	f8cd b00c 	str.w	fp, [sp, #12]
 8008716:	465b      	mov	r3, fp
 8008718:	f8cd b030 	str.w	fp, [sp, #48]	@ 0x30
 800871c:	e7d0      	b.n	80086c0 <_dtoa_r+0x250>
 800871e:	3101      	adds	r1, #1
 8008720:	0052      	lsls	r2, r2, #1
 8008722:	e7d1      	b.n	80086c8 <_dtoa_r+0x258>
 8008724:	f3af 8000 	nop.w
 8008728:	636f4361 	.word	0x636f4361
 800872c:	3fd287a7 	.word	0x3fd287a7
 8008730:	8b60c8b3 	.word	0x8b60c8b3
 8008734:	3fc68a28 	.word	0x3fc68a28
 8008738:	509f79fb 	.word	0x509f79fb
 800873c:	3fd34413 	.word	0x3fd34413
 8008740:	0800a147 	.word	0x0800a147
 8008744:	0800a15e 	.word	0x0800a15e
 8008748:	7ff00000 	.word	0x7ff00000
 800874c:	0800a117 	.word	0x0800a117
 8008750:	3ff80000 	.word	0x3ff80000
 8008754:	0800a310 	.word	0x0800a310
 8008758:	0800a1b6 	.word	0x0800a1b6
 800875c:	0800a143 	.word	0x0800a143
 8008760:	0800a116 	.word	0x0800a116
 8008764:	f8d9 301c 	ldr.w	r3, [r9, #28]
 8008768:	6018      	str	r0, [r3, #0]
 800876a:	9b03      	ldr	r3, [sp, #12]
 800876c:	2b0e      	cmp	r3, #14
 800876e:	f200 80a1 	bhi.w	80088b4 <_dtoa_r+0x444>
 8008772:	2c00      	cmp	r4, #0
 8008774:	f000 809e 	beq.w	80088b4 <_dtoa_r+0x444>
 8008778:	2f00      	cmp	r7, #0
 800877a:	dd33      	ble.n	80087e4 <_dtoa_r+0x374>
 800877c:	4b9c      	ldr	r3, [pc, #624]	@ (80089f0 <_dtoa_r+0x580>)
 800877e:	f007 020f 	and.w	r2, r7, #15
 8008782:	eb03 03c2 	add.w	r3, r3, r2, lsl #3
 8008786:	ed93 7b00 	vldr	d7, [r3]
 800878a:	05f8      	lsls	r0, r7, #23
 800878c:	ed8d 7b0e 	vstr	d7, [sp, #56]	@ 0x38
 8008790:	ea4f 1427 	mov.w	r4, r7, asr #4
 8008794:	d516      	bpl.n	80087c4 <_dtoa_r+0x354>
 8008796:	4b97      	ldr	r3, [pc, #604]	@ (80089f4 <_dtoa_r+0x584>)
 8008798:	e9dd 010a 	ldrd	r0, r1, [sp, #40]	@ 0x28
 800879c:	e9d3 2308 	ldrd	r2, r3, [r3, #32]
 80087a0:	f7f8 f87c 	bl	800089c <__aeabi_ddiv>
 80087a4:	e9cd 0104 	strd	r0, r1, [sp, #16]
 80087a8:	f004 040f 	and.w	r4, r4, #15
 80087ac:	2603      	movs	r6, #3
 80087ae:	4d91      	ldr	r5, [pc, #580]	@ (80089f4 <_dtoa_r+0x584>)
 80087b0:	b954      	cbnz	r4, 80087c8 <_dtoa_r+0x358>
 80087b2:	e9dd 230e 	ldrd	r2, r3, [sp, #56]	@ 0x38
 80087b6:	e9dd 0104 	ldrd	r0, r1, [sp, #16]
 80087ba:	f7f8 f86f 	bl	800089c <__aeabi_ddiv>
 80087be:	e9cd 0104 	strd	r0, r1, [sp, #16]
 80087c2:	e028      	b.n	8008816 <_dtoa_r+0x3a6>
 80087c4:	2602      	movs	r6, #2
 80087c6:	e7f2      	b.n	80087ae <_dtoa_r+0x33e>
 80087c8:	07e1      	lsls	r1, r4, #31
 80087ca:	d508      	bpl.n	80087de <_dtoa_r+0x36e>
 80087cc:	e9dd 010e 	ldrd	r0, r1, [sp, #56]	@ 0x38
 80087d0:	e9d5 2300 	ldrd	r2, r3, [r5]
 80087d4:	f7f7 ff38 	bl	8000648 <__aeabi_dmul>
 80087d8:	e9cd 010e 	strd	r0, r1, [sp, #56]	@ 0x38
 80087dc:	3601      	adds	r6, #1
 80087de:	1064      	asrs	r4, r4, #1
 80087e0:	3508      	adds	r5, #8
 80087e2:	e7e5      	b.n	80087b0 <_dtoa_r+0x340>
 80087e4:	f000 80af 	beq.w	8008946 <_dtoa_r+0x4d6>
 80087e8:	427c      	negs	r4, r7
 80087ea:	4b81      	ldr	r3, [pc, #516]	@ (80089f0 <_dtoa_r+0x580>)
 80087ec:	4d81      	ldr	r5, [pc, #516]	@ (80089f4 <_dtoa_r+0x584>)
 80087ee:	f004 020f 	and.w	r2, r4, #15
 80087f2:	eb03 03c2 	add.w	r3, r3, r2, lsl #3
 80087f6:	e9d3 2300 	ldrd	r2, r3, [r3]
 80087fa:	e9dd 010a 	ldrd	r0, r1, [sp, #40]	@ 0x28
 80087fe:	f7f7 ff23 	bl	8000648 <__aeabi_dmul>
 8008802:	e9cd 0104 	strd	r0, r1, [sp, #16]
 8008806:	1124      	asrs	r4, r4, #4
 8008808:	2300      	movs	r3, #0
 800880a:	2602      	movs	r6, #2
 800880c:	2c00      	cmp	r4, #0
 800880e:	f040 808f 	bne.w	8008930 <_dtoa_r+0x4c0>
 8008812:	2b00      	cmp	r3, #0
 8008814:	d1d3      	bne.n	80087be <_dtoa_r+0x34e>
 8008816:	9b10      	ldr	r3, [sp, #64]	@ 0x40
 8008818:	e9dd 4504 	ldrd	r4, r5, [sp, #16]
 800881c:	2b00      	cmp	r3, #0
 800881e:	f000 8094 	beq.w	800894a <_dtoa_r+0x4da>
 8008822:	4b75      	ldr	r3, [pc, #468]	@ (80089f8 <_dtoa_r+0x588>)
 8008824:	2200      	movs	r2, #0
 8008826:	4620      	mov	r0, r4
 8008828:	4629      	mov	r1, r5
 800882a:	f7f8 f97f 	bl	8000b2c <__aeabi_dcmplt>
 800882e:	2800      	cmp	r0, #0
 8008830:	f000 808b 	beq.w	800894a <_dtoa_r+0x4da>
 8008834:	9b03      	ldr	r3, [sp, #12]
 8008836:	2b00      	cmp	r3, #0
 8008838:	f000 8087 	beq.w	800894a <_dtoa_r+0x4da>
 800883c:	f1bb 0f00 	cmp.w	fp, #0
 8008840:	dd34      	ble.n	80088ac <_dtoa_r+0x43c>
 8008842:	4620      	mov	r0, r4
 8008844:	4b6d      	ldr	r3, [pc, #436]	@ (80089fc <_dtoa_r+0x58c>)
 8008846:	2200      	movs	r2, #0
 8008848:	4629      	mov	r1, r5
 800884a:	f7f7 fefd 	bl	8000648 <__aeabi_dmul>
 800884e:	e9cd 0104 	strd	r0, r1, [sp, #16]
 8008852:	f107 38ff 	add.w	r8, r7, #4294967295	@ 0xffffffff
 8008856:	3601      	adds	r6, #1
 8008858:	465c      	mov	r4, fp
 800885a:	4630      	mov	r0, r6
 800885c:	f7f7 fe8a 	bl	8000574 <__aeabi_i2d>
 8008860:	e9dd 2304 	ldrd	r2, r3, [sp, #16]
 8008864:	f7f7 fef0 	bl	8000648 <__aeabi_dmul>
 8008868:	4b65      	ldr	r3, [pc, #404]	@ (8008a00 <_dtoa_r+0x590>)
 800886a:	2200      	movs	r2, #0
 800886c:	f7f7 fd36 	bl	80002dc <__adddf3>
 8008870:	4605      	mov	r5, r0
 8008872:	f1a1 7650 	sub.w	r6, r1, #54525952	@ 0x3400000
 8008876:	2c00      	cmp	r4, #0
 8008878:	d16a      	bne.n	8008950 <_dtoa_r+0x4e0>
 800887a:	e9dd 0104 	ldrd	r0, r1, [sp, #16]
 800887e:	4b61      	ldr	r3, [pc, #388]	@ (8008a04 <_dtoa_r+0x594>)
 8008880:	2200      	movs	r2, #0
 8008882:	f7f7 fd29 	bl	80002d8 <__aeabi_dsub>
 8008886:	4602      	mov	r2, r0
 8008888:	460b      	mov	r3, r1
 800888a:	e9cd 2304 	strd	r2, r3, [sp, #16]
 800888e:	462a      	mov	r2, r5
 8008890:	4633      	mov	r3, r6
 8008892:	f7f8 f969 	bl	8000b68 <__aeabi_dcmpgt>
 8008896:	2800      	cmp	r0, #0
 8008898:	f040 8298 	bne.w	8008dcc <_dtoa_r+0x95c>
 800889c:	e9dd 0104 	ldrd	r0, r1, [sp, #16]
 80088a0:	462a      	mov	r2, r5
 80088a2:	f106 4300 	add.w	r3, r6, #2147483648	@ 0x80000000
 80088a6:	f7f8 f941 	bl	8000b2c <__aeabi_dcmplt>
 80088aa:	bb38      	cbnz	r0, 80088fc <_dtoa_r+0x48c>
 80088ac:	e9dd 340a 	ldrd	r3, r4, [sp, #40]	@ 0x28
 80088b0:	e9cd 3404 	strd	r3, r4, [sp, #16]
 80088b4:	9b15      	ldr	r3, [sp, #84]	@ 0x54
 80088b6:	2b00      	cmp	r3, #0
 80088b8:	f2c0 8157 	blt.w	8008b6a <_dtoa_r+0x6fa>
 80088bc:	2f0e      	cmp	r7, #14
 80088be:	f300 8154 	bgt.w	8008b6a <_dtoa_r+0x6fa>
 80088c2:	4b4b      	ldr	r3, [pc, #300]	@ (80089f0 <_dtoa_r+0x580>)
 80088c4:	eb03 03c7 	add.w	r3, r3, r7, lsl #3
 80088c8:	ed93 7b00 	vldr	d7, [r3]
 80088cc:	9b0c      	ldr	r3, [sp, #48]	@ 0x30
 80088ce:	2b00      	cmp	r3, #0
 80088d0:	ed8d 7b00 	vstr	d7, [sp]
 80088d4:	f280 80e5 	bge.w	8008aa2 <_dtoa_r+0x632>
 80088d8:	9b03      	ldr	r3, [sp, #12]
 80088da:	2b00      	cmp	r3, #0
 80088dc:	f300 80e1 	bgt.w	8008aa2 <_dtoa_r+0x632>
 80088e0:	d10c      	bne.n	80088fc <_dtoa_r+0x48c>
 80088e2:	4b48      	ldr	r3, [pc, #288]	@ (8008a04 <_dtoa_r+0x594>)
 80088e4:	2200      	movs	r2, #0
 80088e6:	ec51 0b17 	vmov	r0, r1, d7
 80088ea:	f7f7 fead 	bl	8000648 <__aeabi_dmul>
 80088ee:	e9dd 2304 	ldrd	r2, r3, [sp, #16]
 80088f2:	f7f8 f92f 	bl	8000b54 <__aeabi_dcmpge>
 80088f6:	2800      	cmp	r0, #0
 80088f8:	f000 8266 	beq.w	8008dc8 <_dtoa_r+0x958>
 80088fc:	2400      	movs	r4, #0
 80088fe:	4625      	mov	r5, r4
 8008900:	9b0c      	ldr	r3, [sp, #48]	@ 0x30
 8008902:	4656      	mov	r6, sl
 8008904:	ea6f 0803 	mvn.w	r8, r3
 8008908:	2700      	movs	r7, #0
 800890a:	4621      	mov	r1, r4
 800890c:	4648      	mov	r0, r9
 800890e:	f000 fcbf 	bl	8009290 <_Bfree>
 8008912:	2d00      	cmp	r5, #0
 8008914:	f000 80bd 	beq.w	8008a92 <_dtoa_r+0x622>
 8008918:	b12f      	cbz	r7, 8008926 <_dtoa_r+0x4b6>
 800891a:	42af      	cmp	r7, r5
 800891c:	d003      	beq.n	8008926 <_dtoa_r+0x4b6>
 800891e:	4639      	mov	r1, r7
 8008920:	4648      	mov	r0, r9
 8008922:	f000 fcb5 	bl	8009290 <_Bfree>
 8008926:	4629      	mov	r1, r5
 8008928:	4648      	mov	r0, r9
 800892a:	f000 fcb1 	bl	8009290 <_Bfree>
 800892e:	e0b0      	b.n	8008a92 <_dtoa_r+0x622>
 8008930:	07e2      	lsls	r2, r4, #31
 8008932:	d505      	bpl.n	8008940 <_dtoa_r+0x4d0>
 8008934:	e9d5 2300 	ldrd	r2, r3, [r5]
 8008938:	f7f7 fe86 	bl	8000648 <__aeabi_dmul>
 800893c:	3601      	adds	r6, #1
 800893e:	2301      	movs	r3, #1
 8008940:	1064      	asrs	r4, r4, #1
 8008942:	3508      	adds	r5, #8
 8008944:	e762      	b.n	800880c <_dtoa_r+0x39c>
 8008946:	2602      	movs	r6, #2
 8008948:	e765      	b.n	8008816 <_dtoa_r+0x3a6>
 800894a:	9c03      	ldr	r4, [sp, #12]
 800894c:	46b8      	mov	r8, r7
 800894e:	e784      	b.n	800885a <_dtoa_r+0x3ea>
 8008950:	4b27      	ldr	r3, [pc, #156]	@ (80089f0 <_dtoa_r+0x580>)
 8008952:	9909      	ldr	r1, [sp, #36]	@ 0x24
 8008954:	eb03 03c4 	add.w	r3, r3, r4, lsl #3
 8008958:	e953 2302 	ldrd	r2, r3, [r3, #-8]
 800895c:	4454      	add	r4, sl
 800895e:	2900      	cmp	r1, #0
 8008960:	d054      	beq.n	8008a0c <_dtoa_r+0x59c>
 8008962:	4929      	ldr	r1, [pc, #164]	@ (8008a08 <_dtoa_r+0x598>)
 8008964:	2000      	movs	r0, #0
 8008966:	f7f7 ff99 	bl	800089c <__aeabi_ddiv>
 800896a:	4633      	mov	r3, r6
 800896c:	462a      	mov	r2, r5
 800896e:	f7f7 fcb3 	bl	80002d8 <__aeabi_dsub>
 8008972:	e9cd 010e 	strd	r0, r1, [sp, #56]	@ 0x38
 8008976:	4656      	mov	r6, sl
 8008978:	e9dd 0104 	ldrd	r0, r1, [sp, #16]
 800897c:	f7f8 f914 	bl	8000ba8 <__aeabi_d2iz>
 8008980:	4605      	mov	r5, r0
 8008982:	f7f7 fdf7 	bl	8000574 <__aeabi_i2d>
 8008986:	4602      	mov	r2, r0
 8008988:	460b      	mov	r3, r1
 800898a:	e9dd 0104 	ldrd	r0, r1, [sp, #16]
 800898e:	f7f7 fca3 	bl	80002d8 <__aeabi_dsub>
 8008992:	3530      	adds	r5, #48	@ 0x30
 8008994:	4602      	mov	r2, r0
 8008996:	460b      	mov	r3, r1
 8008998:	e9cd 2304 	strd	r2, r3, [sp, #16]
 800899c:	f806 5b01 	strb.w	r5, [r6], #1
 80089a0:	e9dd 230e 	ldrd	r2, r3, [sp, #56]	@ 0x38
 80089a4:	f7f8 f8c2 	bl	8000b2c <__aeabi_dcmplt>
 80089a8:	2800      	cmp	r0, #0
 80089aa:	d172      	bne.n	8008a92 <_dtoa_r+0x622>
 80089ac:	e9dd 2304 	ldrd	r2, r3, [sp, #16]
 80089b0:	4911      	ldr	r1, [pc, #68]	@ (80089f8 <_dtoa_r+0x588>)
 80089b2:	2000      	movs	r0, #0
 80089b4:	f7f7 fc90 	bl	80002d8 <__aeabi_dsub>
 80089b8:	e9dd 230e 	ldrd	r2, r3, [sp, #56]	@ 0x38
 80089bc:	f7f8 f8b6 	bl	8000b2c <__aeabi_dcmplt>
 80089c0:	2800      	cmp	r0, #0
 80089c2:	f040 80b4 	bne.w	8008b2e <_dtoa_r+0x6be>
 80089c6:	42a6      	cmp	r6, r4
 80089c8:	f43f af70 	beq.w	80088ac <_dtoa_r+0x43c>
 80089cc:	e9dd 010e 	ldrd	r0, r1, [sp, #56]	@ 0x38
 80089d0:	4b0a      	ldr	r3, [pc, #40]	@ (80089fc <_dtoa_r+0x58c>)
 80089d2:	2200      	movs	r2, #0
 80089d4:	f7f7 fe38 	bl	8000648 <__aeabi_dmul>
 80089d8:	4b08      	ldr	r3, [pc, #32]	@ (80089fc <_dtoa_r+0x58c>)
 80089da:	e9cd 010e 	strd	r0, r1, [sp, #56]	@ 0x38
 80089de:	2200      	movs	r2, #0
 80089e0:	e9dd 0104 	ldrd	r0, r1, [sp, #16]
 80089e4:	f7f7 fe30 	bl	8000648 <__aeabi_dmul>
 80089e8:	e9cd 0104 	strd	r0, r1, [sp, #16]
 80089ec:	e7c4      	b.n	8008978 <_dtoa_r+0x508>
 80089ee:	bf00      	nop
 80089f0:	0800a310 	.word	0x0800a310
 80089f4:	0800a2e8 	.word	0x0800a2e8
 80089f8:	3ff00000 	.word	0x3ff00000
 80089fc:	40240000 	.word	0x40240000
 8008a00:	401c0000 	.word	0x401c0000
 8008a04:	40140000 	.word	0x40140000
 8008a08:	3fe00000 	.word	0x3fe00000
 8008a0c:	4631      	mov	r1, r6
 8008a0e:	4628      	mov	r0, r5
 8008a10:	f7f7 fe1a 	bl	8000648 <__aeabi_dmul>
 8008a14:	e9cd 010e 	strd	r0, r1, [sp, #56]	@ 0x38
 8008a18:	9413      	str	r4, [sp, #76]	@ 0x4c
 8008a1a:	4656      	mov	r6, sl
 8008a1c:	e9dd 0104 	ldrd	r0, r1, [sp, #16]
 8008a20:	f7f8 f8c2 	bl	8000ba8 <__aeabi_d2iz>
 8008a24:	4605      	mov	r5, r0
 8008a26:	f7f7 fda5 	bl	8000574 <__aeabi_i2d>
 8008a2a:	4602      	mov	r2, r0
 8008a2c:	460b      	mov	r3, r1
 8008a2e:	e9dd 0104 	ldrd	r0, r1, [sp, #16]
 8008a32:	f7f7 fc51 	bl	80002d8 <__aeabi_dsub>
 8008a36:	3530      	adds	r5, #48	@ 0x30
 8008a38:	f806 5b01 	strb.w	r5, [r6], #1
 8008a3c:	4602      	mov	r2, r0
 8008a3e:	460b      	mov	r3, r1
 8008a40:	42a6      	cmp	r6, r4
 8008a42:	e9cd 2304 	strd	r2, r3, [sp, #16]
 8008a46:	f04f 0200 	mov.w	r2, #0
 8008a4a:	d124      	bne.n	8008a96 <_dtoa_r+0x626>
 8008a4c:	4baf      	ldr	r3, [pc, #700]	@ (8008d0c <_dtoa_r+0x89c>)
 8008a4e:	e9dd 010e 	ldrd	r0, r1, [sp, #56]	@ 0x38
 8008a52:	f7f7 fc43 	bl	80002dc <__adddf3>
 8008a56:	4602      	mov	r2, r0
 8008a58:	460b      	mov	r3, r1
 8008a5a:	e9dd 0104 	ldrd	r0, r1, [sp, #16]
 8008a5e:	f7f8 f883 	bl	8000b68 <__aeabi_dcmpgt>
 8008a62:	2800      	cmp	r0, #0
 8008a64:	d163      	bne.n	8008b2e <_dtoa_r+0x6be>
 8008a66:	e9dd 230e 	ldrd	r2, r3, [sp, #56]	@ 0x38
 8008a6a:	49a8      	ldr	r1, [pc, #672]	@ (8008d0c <_dtoa_r+0x89c>)
 8008a6c:	2000      	movs	r0, #0
 8008a6e:	f7f7 fc33 	bl	80002d8 <__aeabi_dsub>
 8008a72:	4602      	mov	r2, r0
 8008a74:	460b      	mov	r3, r1
 8008a76:	e9dd 0104 	ldrd	r0, r1, [sp, #16]
 8008a7a:	f7f8 f857 	bl	8000b2c <__aeabi_dcmplt>
 8008a7e:	2800      	cmp	r0, #0
 8008a80:	f43f af14 	beq.w	80088ac <_dtoa_r+0x43c>
 8008a84:	9e13      	ldr	r6, [sp, #76]	@ 0x4c
 8008a86:	1e73      	subs	r3, r6, #1
 8008a88:	9313      	str	r3, [sp, #76]	@ 0x4c
 8008a8a:	f816 3c01 	ldrb.w	r3, [r6, #-1]
 8008a8e:	2b30      	cmp	r3, #48	@ 0x30
 8008a90:	d0f8      	beq.n	8008a84 <_dtoa_r+0x614>
 8008a92:	4647      	mov	r7, r8
 8008a94:	e03b      	b.n	8008b0e <_dtoa_r+0x69e>
 8008a96:	4b9e      	ldr	r3, [pc, #632]	@ (8008d10 <_dtoa_r+0x8a0>)
 8008a98:	f7f7 fdd6 	bl	8000648 <__aeabi_dmul>
 8008a9c:	e9cd 0104 	strd	r0, r1, [sp, #16]
 8008aa0:	e7bc      	b.n	8008a1c <_dtoa_r+0x5ac>
 8008aa2:	e9dd 4504 	ldrd	r4, r5, [sp, #16]
 8008aa6:	4656      	mov	r6, sl
 8008aa8:	e9dd 2300 	ldrd	r2, r3, [sp]
 8008aac:	4620      	mov	r0, r4
 8008aae:	4629      	mov	r1, r5
 8008ab0:	f7f7 fef4 	bl	800089c <__aeabi_ddiv>
 8008ab4:	f7f8 f878 	bl	8000ba8 <__aeabi_d2iz>
 8008ab8:	4680      	mov	r8, r0
 8008aba:	f7f7 fd5b 	bl	8000574 <__aeabi_i2d>
 8008abe:	e9dd 2300 	ldrd	r2, r3, [sp]
 8008ac2:	f7f7 fdc1 	bl	8000648 <__aeabi_dmul>
 8008ac6:	4602      	mov	r2, r0
 8008ac8:	460b      	mov	r3, r1
 8008aca:	4620      	mov	r0, r4
 8008acc:	4629      	mov	r1, r5
 8008ace:	f108 0430 	add.w	r4, r8, #48	@ 0x30
 8008ad2:	f7f7 fc01 	bl	80002d8 <__aeabi_dsub>
 8008ad6:	f806 4b01 	strb.w	r4, [r6], #1
 8008ada:	9d03      	ldr	r5, [sp, #12]
 8008adc:	eba6 040a 	sub.w	r4, r6, sl
 8008ae0:	42a5      	cmp	r5, r4
 8008ae2:	4602      	mov	r2, r0
 8008ae4:	460b      	mov	r3, r1
 8008ae6:	d133      	bne.n	8008b50 <_dtoa_r+0x6e0>
 8008ae8:	f7f7 fbf8 	bl	80002dc <__adddf3>
 8008aec:	e9dd 2300 	ldrd	r2, r3, [sp]
 8008af0:	4604      	mov	r4, r0
 8008af2:	460d      	mov	r5, r1
 8008af4:	f7f8 f838 	bl	8000b68 <__aeabi_dcmpgt>
 8008af8:	b9c0      	cbnz	r0, 8008b2c <_dtoa_r+0x6bc>
 8008afa:	e9dd 2300 	ldrd	r2, r3, [sp]
 8008afe:	4620      	mov	r0, r4
 8008b00:	4629      	mov	r1, r5
 8008b02:	f7f8 f809 	bl	8000b18 <__aeabi_dcmpeq>
 8008b06:	b110      	cbz	r0, 8008b0e <_dtoa_r+0x69e>
 8008b08:	f018 0f01 	tst.w	r8, #1
 8008b0c:	d10e      	bne.n	8008b2c <_dtoa_r+0x6bc>
 8008b0e:	9902      	ldr	r1, [sp, #8]
 8008b10:	4648      	mov	r0, r9
 8008b12:	f000 fbbd 	bl	8009290 <_Bfree>
 8008b16:	2300      	movs	r3, #0
 8008b18:	7033      	strb	r3, [r6, #0]
 8008b1a:	9b11      	ldr	r3, [sp, #68]	@ 0x44
 8008b1c:	3701      	adds	r7, #1
 8008b1e:	601f      	str	r7, [r3, #0]
 8008b20:	9b21      	ldr	r3, [sp, #132]	@ 0x84
 8008b22:	2b00      	cmp	r3, #0
 8008b24:	f000 824b 	beq.w	8008fbe <_dtoa_r+0xb4e>
 8008b28:	601e      	str	r6, [r3, #0]
 8008b2a:	e248      	b.n	8008fbe <_dtoa_r+0xb4e>
 8008b2c:	46b8      	mov	r8, r7
 8008b2e:	4633      	mov	r3, r6
 8008b30:	461e      	mov	r6, r3
 8008b32:	f813 2d01 	ldrb.w	r2, [r3, #-1]!
 8008b36:	2a39      	cmp	r2, #57	@ 0x39
 8008b38:	d106      	bne.n	8008b48 <_dtoa_r+0x6d8>
 8008b3a:	459a      	cmp	sl, r3
 8008b3c:	d1f8      	bne.n	8008b30 <_dtoa_r+0x6c0>
 8008b3e:	2230      	movs	r2, #48	@ 0x30
 8008b40:	f108 0801 	add.w	r8, r8, #1
 8008b44:	f88a 2000 	strb.w	r2, [sl]
 8008b48:	781a      	ldrb	r2, [r3, #0]
 8008b4a:	3201      	adds	r2, #1
 8008b4c:	701a      	strb	r2, [r3, #0]
 8008b4e:	e7a0      	b.n	8008a92 <_dtoa_r+0x622>
 8008b50:	4b6f      	ldr	r3, [pc, #444]	@ (8008d10 <_dtoa_r+0x8a0>)
 8008b52:	2200      	movs	r2, #0
 8008b54:	f7f7 fd78 	bl	8000648 <__aeabi_dmul>
 8008b58:	2200      	movs	r2, #0
 8008b5a:	2300      	movs	r3, #0
 8008b5c:	4604      	mov	r4, r0
 8008b5e:	460d      	mov	r5, r1
 8008b60:	f7f7 ffda 	bl	8000b18 <__aeabi_dcmpeq>
 8008b64:	2800      	cmp	r0, #0
 8008b66:	d09f      	beq.n	8008aa8 <_dtoa_r+0x638>
 8008b68:	e7d1      	b.n	8008b0e <_dtoa_r+0x69e>
 8008b6a:	9a09      	ldr	r2, [sp, #36]	@ 0x24
 8008b6c:	2a00      	cmp	r2, #0
 8008b6e:	f000 80ea 	beq.w	8008d46 <_dtoa_r+0x8d6>
 8008b72:	9a07      	ldr	r2, [sp, #28]
 8008b74:	2a01      	cmp	r2, #1
 8008b76:	f300 80cd 	bgt.w	8008d14 <_dtoa_r+0x8a4>
 8008b7a:	9a12      	ldr	r2, [sp, #72]	@ 0x48
 8008b7c:	2a00      	cmp	r2, #0
 8008b7e:	f000 80c1 	beq.w	8008d04 <_dtoa_r+0x894>
 8008b82:	f203 4333 	addw	r3, r3, #1075	@ 0x433
 8008b86:	9c08      	ldr	r4, [sp, #32]
 8008b88:	9e00      	ldr	r6, [sp, #0]
 8008b8a:	9a00      	ldr	r2, [sp, #0]
 8008b8c:	441a      	add	r2, r3
 8008b8e:	9200      	str	r2, [sp, #0]
 8008b90:	9a06      	ldr	r2, [sp, #24]
 8008b92:	2101      	movs	r1, #1
 8008b94:	441a      	add	r2, r3
 8008b96:	4648      	mov	r0, r9
 8008b98:	9206      	str	r2, [sp, #24]
 8008b9a:	f000 fc2d 	bl	80093f8 <__i2b>
 8008b9e:	4605      	mov	r5, r0
 8008ba0:	b166      	cbz	r6, 8008bbc <_dtoa_r+0x74c>
 8008ba2:	9b06      	ldr	r3, [sp, #24]
 8008ba4:	2b00      	cmp	r3, #0
 8008ba6:	dd09      	ble.n	8008bbc <_dtoa_r+0x74c>
 8008ba8:	42b3      	cmp	r3, r6
 8008baa:	9a00      	ldr	r2, [sp, #0]
 8008bac:	bfa8      	it	ge
 8008bae:	4633      	movge	r3, r6
 8008bb0:	1ad2      	subs	r2, r2, r3
 8008bb2:	9200      	str	r2, [sp, #0]
 8008bb4:	9a06      	ldr	r2, [sp, #24]
 8008bb6:	1af6      	subs	r6, r6, r3
 8008bb8:	1ad3      	subs	r3, r2, r3
 8008bba:	9306      	str	r3, [sp, #24]
 8008bbc:	9b08      	ldr	r3, [sp, #32]
 8008bbe:	b30b      	cbz	r3, 8008c04 <_dtoa_r+0x794>
 8008bc0:	9b09      	ldr	r3, [sp, #36]	@ 0x24
 8008bc2:	2b00      	cmp	r3, #0
 8008bc4:	f000 80c6 	beq.w	8008d54 <_dtoa_r+0x8e4>
 8008bc8:	2c00      	cmp	r4, #0
 8008bca:	f000 80c0 	beq.w	8008d4e <_dtoa_r+0x8de>
 8008bce:	4629      	mov	r1, r5
 8008bd0:	4622      	mov	r2, r4
 8008bd2:	4648      	mov	r0, r9
 8008bd4:	f000 fcc8 	bl	8009568 <__pow5mult>
 8008bd8:	9a02      	ldr	r2, [sp, #8]
 8008bda:	4601      	mov	r1, r0
 8008bdc:	4605      	mov	r5, r0
 8008bde:	4648      	mov	r0, r9
 8008be0:	f000 fc20 	bl	8009424 <__multiply>
 8008be4:	9902      	ldr	r1, [sp, #8]
 8008be6:	4680      	mov	r8, r0
 8008be8:	4648      	mov	r0, r9
 8008bea:	f000 fb51 	bl	8009290 <_Bfree>
 8008bee:	9b08      	ldr	r3, [sp, #32]
 8008bf0:	1b1b      	subs	r3, r3, r4
 8008bf2:	9308      	str	r3, [sp, #32]
 8008bf4:	f000 80b1 	beq.w	8008d5a <_dtoa_r+0x8ea>
 8008bf8:	9a08      	ldr	r2, [sp, #32]
 8008bfa:	4641      	mov	r1, r8
 8008bfc:	4648      	mov	r0, r9
 8008bfe:	f000 fcb3 	bl	8009568 <__pow5mult>
 8008c02:	9002      	str	r0, [sp, #8]
 8008c04:	2101      	movs	r1, #1
 8008c06:	4648      	mov	r0, r9
 8008c08:	f000 fbf6 	bl	80093f8 <__i2b>
 8008c0c:	9b0d      	ldr	r3, [sp, #52]	@ 0x34
 8008c0e:	4604      	mov	r4, r0
 8008c10:	2b00      	cmp	r3, #0
 8008c12:	f000 81d8 	beq.w	8008fc6 <_dtoa_r+0xb56>
 8008c16:	461a      	mov	r2, r3
 8008c18:	4601      	mov	r1, r0
 8008c1a:	4648      	mov	r0, r9
 8008c1c:	f000 fca4 	bl	8009568 <__pow5mult>
 8008c20:	9b07      	ldr	r3, [sp, #28]
 8008c22:	2b01      	cmp	r3, #1
 8008c24:	4604      	mov	r4, r0
 8008c26:	f300 809f 	bgt.w	8008d68 <_dtoa_r+0x8f8>
 8008c2a:	9b04      	ldr	r3, [sp, #16]
 8008c2c:	2b00      	cmp	r3, #0
 8008c2e:	f040 8097 	bne.w	8008d60 <_dtoa_r+0x8f0>
 8008c32:	9b05      	ldr	r3, [sp, #20]
 8008c34:	f3c3 0313 	ubfx	r3, r3, #0, #20
 8008c38:	2b00      	cmp	r3, #0
 8008c3a:	f040 8093 	bne.w	8008d64 <_dtoa_r+0x8f4>
 8008c3e:	9b05      	ldr	r3, [sp, #20]
 8008c40:	f023 4300 	bic.w	r3, r3, #2147483648	@ 0x80000000
 8008c44:	0d1b      	lsrs	r3, r3, #20
 8008c46:	051b      	lsls	r3, r3, #20
 8008c48:	b133      	cbz	r3, 8008c58 <_dtoa_r+0x7e8>
 8008c4a:	9b00      	ldr	r3, [sp, #0]
 8008c4c:	3301      	adds	r3, #1
 8008c4e:	9300      	str	r3, [sp, #0]
 8008c50:	9b06      	ldr	r3, [sp, #24]
 8008c52:	3301      	adds	r3, #1
 8008c54:	9306      	str	r3, [sp, #24]
 8008c56:	2301      	movs	r3, #1
 8008c58:	9308      	str	r3, [sp, #32]
 8008c5a:	9b0d      	ldr	r3, [sp, #52]	@ 0x34
 8008c5c:	2b00      	cmp	r3, #0
 8008c5e:	f000 81b8 	beq.w	8008fd2 <_dtoa_r+0xb62>
 8008c62:	6923      	ldr	r3, [r4, #16]
 8008c64:	eb04 0383 	add.w	r3, r4, r3, lsl #2
 8008c68:	6918      	ldr	r0, [r3, #16]
 8008c6a:	f000 fb79 	bl	8009360 <__hi0bits>
 8008c6e:	f1c0 0020 	rsb	r0, r0, #32
 8008c72:	9b06      	ldr	r3, [sp, #24]
 8008c74:	4418      	add	r0, r3
 8008c76:	f010 001f 	ands.w	r0, r0, #31
 8008c7a:	f000 8082 	beq.w	8008d82 <_dtoa_r+0x912>
 8008c7e:	f1c0 0320 	rsb	r3, r0, #32
 8008c82:	2b04      	cmp	r3, #4
 8008c84:	dd73      	ble.n	8008d6e <_dtoa_r+0x8fe>
 8008c86:	9b00      	ldr	r3, [sp, #0]
 8008c88:	f1c0 001c 	rsb	r0, r0, #28
 8008c8c:	4403      	add	r3, r0
 8008c8e:	9300      	str	r3, [sp, #0]
 8008c90:	9b06      	ldr	r3, [sp, #24]
 8008c92:	4403      	add	r3, r0
 8008c94:	4406      	add	r6, r0
 8008c96:	9306      	str	r3, [sp, #24]
 8008c98:	9b00      	ldr	r3, [sp, #0]
 8008c9a:	2b00      	cmp	r3, #0
 8008c9c:	dd05      	ble.n	8008caa <_dtoa_r+0x83a>
 8008c9e:	9902      	ldr	r1, [sp, #8]
 8008ca0:	461a      	mov	r2, r3
 8008ca2:	4648      	mov	r0, r9
 8008ca4:	f000 fcba 	bl	800961c <__lshift>
 8008ca8:	9002      	str	r0, [sp, #8]
 8008caa:	9b06      	ldr	r3, [sp, #24]
 8008cac:	2b00      	cmp	r3, #0
 8008cae:	dd05      	ble.n	8008cbc <_dtoa_r+0x84c>
 8008cb0:	4621      	mov	r1, r4
 8008cb2:	461a      	mov	r2, r3
 8008cb4:	4648      	mov	r0, r9
 8008cb6:	f000 fcb1 	bl	800961c <__lshift>
 8008cba:	4604      	mov	r4, r0
 8008cbc:	9b10      	ldr	r3, [sp, #64]	@ 0x40
 8008cbe:	2b00      	cmp	r3, #0
 8008cc0:	d061      	beq.n	8008d86 <_dtoa_r+0x916>
 8008cc2:	9802      	ldr	r0, [sp, #8]
 8008cc4:	4621      	mov	r1, r4
 8008cc6:	f000 fd15 	bl	80096f4 <__mcmp>
 8008cca:	2800      	cmp	r0, #0
 8008ccc:	da5b      	bge.n	8008d86 <_dtoa_r+0x916>
 8008cce:	2300      	movs	r3, #0
 8008cd0:	9902      	ldr	r1, [sp, #8]
 8008cd2:	220a      	movs	r2, #10
 8008cd4:	4648      	mov	r0, r9
 8008cd6:	f000 fafd 	bl	80092d4 <__multadd>
 8008cda:	9b09      	ldr	r3, [sp, #36]	@ 0x24
 8008cdc:	9002      	str	r0, [sp, #8]
 8008cde:	f107 38ff 	add.w	r8, r7, #4294967295	@ 0xffffffff
 8008ce2:	2b00      	cmp	r3, #0
 8008ce4:	f000 8177 	beq.w	8008fd6 <_dtoa_r+0xb66>
 8008ce8:	4629      	mov	r1, r5
 8008cea:	2300      	movs	r3, #0
 8008cec:	220a      	movs	r2, #10
 8008cee:	4648      	mov	r0, r9
 8008cf0:	f000 faf0 	bl	80092d4 <__multadd>
 8008cf4:	f1bb 0f00 	cmp.w	fp, #0
 8008cf8:	4605      	mov	r5, r0
 8008cfa:	dc6f      	bgt.n	8008ddc <_dtoa_r+0x96c>
 8008cfc:	9b07      	ldr	r3, [sp, #28]
 8008cfe:	2b02      	cmp	r3, #2
 8008d00:	dc49      	bgt.n	8008d96 <_dtoa_r+0x926>
 8008d02:	e06b      	b.n	8008ddc <_dtoa_r+0x96c>
 8008d04:	9b14      	ldr	r3, [sp, #80]	@ 0x50
 8008d06:	f1c3 0336 	rsb	r3, r3, #54	@ 0x36
 8008d0a:	e73c      	b.n	8008b86 <_dtoa_r+0x716>
 8008d0c:	3fe00000 	.word	0x3fe00000
 8008d10:	40240000 	.word	0x40240000
 8008d14:	9b03      	ldr	r3, [sp, #12]
 8008d16:	1e5c      	subs	r4, r3, #1
 8008d18:	9b08      	ldr	r3, [sp, #32]
 8008d1a:	42a3      	cmp	r3, r4
 8008d1c:	db09      	blt.n	8008d32 <_dtoa_r+0x8c2>
 8008d1e:	1b1c      	subs	r4, r3, r4
 8008d20:	9b03      	ldr	r3, [sp, #12]
 8008d22:	2b00      	cmp	r3, #0
 8008d24:	f6bf af30 	bge.w	8008b88 <_dtoa_r+0x718>
 8008d28:	9b00      	ldr	r3, [sp, #0]
 8008d2a:	9a03      	ldr	r2, [sp, #12]
 8008d2c:	1a9e      	subs	r6, r3, r2
 8008d2e:	2300      	movs	r3, #0
 8008d30:	e72b      	b.n	8008b8a <_dtoa_r+0x71a>
 8008d32:	9b08      	ldr	r3, [sp, #32]
 8008d34:	9a0d      	ldr	r2, [sp, #52]	@ 0x34
 8008d36:	9408      	str	r4, [sp, #32]
 8008d38:	1ae3      	subs	r3, r4, r3
 8008d3a:	441a      	add	r2, r3
 8008d3c:	9e00      	ldr	r6, [sp, #0]
 8008d3e:	9b03      	ldr	r3, [sp, #12]
 8008d40:	920d      	str	r2, [sp, #52]	@ 0x34
 8008d42:	2400      	movs	r4, #0
 8008d44:	e721      	b.n	8008b8a <_dtoa_r+0x71a>
 8008d46:	9c08      	ldr	r4, [sp, #32]
 8008d48:	9e00      	ldr	r6, [sp, #0]
 8008d4a:	9d09      	ldr	r5, [sp, #36]	@ 0x24
 8008d4c:	e728      	b.n	8008ba0 <_dtoa_r+0x730>
 8008d4e:	f8dd 8008 	ldr.w	r8, [sp, #8]
 8008d52:	e751      	b.n	8008bf8 <_dtoa_r+0x788>
 8008d54:	9a08      	ldr	r2, [sp, #32]
 8008d56:	9902      	ldr	r1, [sp, #8]
 8008d58:	e750      	b.n	8008bfc <_dtoa_r+0x78c>
 8008d5a:	f8cd 8008 	str.w	r8, [sp, #8]
 8008d5e:	e751      	b.n	8008c04 <_dtoa_r+0x794>
 8008d60:	2300      	movs	r3, #0
 8008d62:	e779      	b.n	8008c58 <_dtoa_r+0x7e8>
 8008d64:	9b04      	ldr	r3, [sp, #16]
 8008d66:	e777      	b.n	8008c58 <_dtoa_r+0x7e8>
 8008d68:	2300      	movs	r3, #0
 8008d6a:	9308      	str	r3, [sp, #32]
 8008d6c:	e779      	b.n	8008c62 <_dtoa_r+0x7f2>
 8008d6e:	d093      	beq.n	8008c98 <_dtoa_r+0x828>
 8008d70:	9a00      	ldr	r2, [sp, #0]
 8008d72:	331c      	adds	r3, #28
 8008d74:	441a      	add	r2, r3
 8008d76:	9200      	str	r2, [sp, #0]
 8008d78:	9a06      	ldr	r2, [sp, #24]
 8008d7a:	441a      	add	r2, r3
 8008d7c:	441e      	add	r6, r3
 8008d7e:	9206      	str	r2, [sp, #24]
 8008d80:	e78a      	b.n	8008c98 <_dtoa_r+0x828>
 8008d82:	4603      	mov	r3, r0
 8008d84:	e7f4      	b.n	8008d70 <_dtoa_r+0x900>
 8008d86:	9b03      	ldr	r3, [sp, #12]
 8008d88:	2b00      	cmp	r3, #0
 8008d8a:	46b8      	mov	r8, r7
 8008d8c:	dc20      	bgt.n	8008dd0 <_dtoa_r+0x960>
 8008d8e:	469b      	mov	fp, r3
 8008d90:	9b07      	ldr	r3, [sp, #28]
 8008d92:	2b02      	cmp	r3, #2
 8008d94:	dd1e      	ble.n	8008dd4 <_dtoa_r+0x964>
 8008d96:	f1bb 0f00 	cmp.w	fp, #0
 8008d9a:	f47f adb1 	bne.w	8008900 <_dtoa_r+0x490>
 8008d9e:	4621      	mov	r1, r4
 8008da0:	465b      	mov	r3, fp
 8008da2:	2205      	movs	r2, #5
 8008da4:	4648      	mov	r0, r9
 8008da6:	f000 fa95 	bl	80092d4 <__multadd>
 8008daa:	4601      	mov	r1, r0
 8008dac:	4604      	mov	r4, r0
 8008dae:	9802      	ldr	r0, [sp, #8]
 8008db0:	f000 fca0 	bl	80096f4 <__mcmp>
 8008db4:	2800      	cmp	r0, #0
 8008db6:	f77f ada3 	ble.w	8008900 <_dtoa_r+0x490>
 8008dba:	4656      	mov	r6, sl
 8008dbc:	2331      	movs	r3, #49	@ 0x31
 8008dbe:	f806 3b01 	strb.w	r3, [r6], #1
 8008dc2:	f108 0801 	add.w	r8, r8, #1
 8008dc6:	e59f      	b.n	8008908 <_dtoa_r+0x498>
 8008dc8:	9c03      	ldr	r4, [sp, #12]
 8008dca:	46b8      	mov	r8, r7
 8008dcc:	4625      	mov	r5, r4
 8008dce:	e7f4      	b.n	8008dba <_dtoa_r+0x94a>
 8008dd0:	f8dd b00c 	ldr.w	fp, [sp, #12]
 8008dd4:	9b09      	ldr	r3, [sp, #36]	@ 0x24
 8008dd6:	2b00      	cmp	r3, #0
 8008dd8:	f000 8101 	beq.w	8008fde <_dtoa_r+0xb6e>
 8008ddc:	2e00      	cmp	r6, #0
 8008dde:	dd05      	ble.n	8008dec <_dtoa_r+0x97c>
 8008de0:	4629      	mov	r1, r5
 8008de2:	4632      	mov	r2, r6
 8008de4:	4648      	mov	r0, r9
 8008de6:	f000 fc19 	bl	800961c <__lshift>
 8008dea:	4605      	mov	r5, r0
 8008dec:	9b08      	ldr	r3, [sp, #32]
 8008dee:	2b00      	cmp	r3, #0
 8008df0:	d05c      	beq.n	8008eac <_dtoa_r+0xa3c>
 8008df2:	6869      	ldr	r1, [r5, #4]
 8008df4:	4648      	mov	r0, r9
 8008df6:	f000 fa0b 	bl	8009210 <_Balloc>
 8008dfa:	4606      	mov	r6, r0
 8008dfc:	b928      	cbnz	r0, 8008e0a <_dtoa_r+0x99a>
 8008dfe:	4b82      	ldr	r3, [pc, #520]	@ (8009008 <_dtoa_r+0xb98>)
 8008e00:	4602      	mov	r2, r0
 8008e02:	f240 21ef 	movw	r1, #751	@ 0x2ef
 8008e06:	f7ff bb4a 	b.w	800849e <_dtoa_r+0x2e>
 8008e0a:	692a      	ldr	r2, [r5, #16]
 8008e0c:	3202      	adds	r2, #2
 8008e0e:	0092      	lsls	r2, r2, #2
 8008e10:	f105 010c 	add.w	r1, r5, #12
 8008e14:	300c      	adds	r0, #12
 8008e16:	f7ff fa94 	bl	8008342 <memcpy>
 8008e1a:	2201      	movs	r2, #1
 8008e1c:	4631      	mov	r1, r6
 8008e1e:	4648      	mov	r0, r9
 8008e20:	f000 fbfc 	bl	800961c <__lshift>
 8008e24:	f10a 0301 	add.w	r3, sl, #1
 8008e28:	9300      	str	r3, [sp, #0]
 8008e2a:	eb0a 030b 	add.w	r3, sl, fp
 8008e2e:	9308      	str	r3, [sp, #32]
 8008e30:	9b04      	ldr	r3, [sp, #16]
 8008e32:	f003 0301 	and.w	r3, r3, #1
 8008e36:	462f      	mov	r7, r5
 8008e38:	9306      	str	r3, [sp, #24]
 8008e3a:	4605      	mov	r5, r0
 8008e3c:	9b00      	ldr	r3, [sp, #0]
 8008e3e:	9802      	ldr	r0, [sp, #8]
 8008e40:	4621      	mov	r1, r4
 8008e42:	f103 3bff 	add.w	fp, r3, #4294967295	@ 0xffffffff
 8008e46:	f7ff fa8a 	bl	800835e <quorem>
 8008e4a:	4603      	mov	r3, r0
 8008e4c:	3330      	adds	r3, #48	@ 0x30
 8008e4e:	9003      	str	r0, [sp, #12]
 8008e50:	4639      	mov	r1, r7
 8008e52:	9802      	ldr	r0, [sp, #8]
 8008e54:	9309      	str	r3, [sp, #36]	@ 0x24
 8008e56:	f000 fc4d 	bl	80096f4 <__mcmp>
 8008e5a:	462a      	mov	r2, r5
 8008e5c:	9004      	str	r0, [sp, #16]
 8008e5e:	4621      	mov	r1, r4
 8008e60:	4648      	mov	r0, r9
 8008e62:	f000 fc63 	bl	800972c <__mdiff>
 8008e66:	68c2      	ldr	r2, [r0, #12]
 8008e68:	9b09      	ldr	r3, [sp, #36]	@ 0x24
 8008e6a:	4606      	mov	r6, r0
 8008e6c:	bb02      	cbnz	r2, 8008eb0 <_dtoa_r+0xa40>
 8008e6e:	4601      	mov	r1, r0
 8008e70:	9802      	ldr	r0, [sp, #8]
 8008e72:	f000 fc3f 	bl	80096f4 <__mcmp>
 8008e76:	9b09      	ldr	r3, [sp, #36]	@ 0x24
 8008e78:	4602      	mov	r2, r0
 8008e7a:	4631      	mov	r1, r6
 8008e7c:	4648      	mov	r0, r9
 8008e7e:	920c      	str	r2, [sp, #48]	@ 0x30
 8008e80:	9309      	str	r3, [sp, #36]	@ 0x24
 8008e82:	f000 fa05 	bl	8009290 <_Bfree>
 8008e86:	9b07      	ldr	r3, [sp, #28]
 8008e88:	9a0c      	ldr	r2, [sp, #48]	@ 0x30
 8008e8a:	9e00      	ldr	r6, [sp, #0]
 8008e8c:	ea42 0103 	orr.w	r1, r2, r3
 8008e90:	9b06      	ldr	r3, [sp, #24]
 8008e92:	4319      	orrs	r1, r3
 8008e94:	9b09      	ldr	r3, [sp, #36]	@ 0x24
 8008e96:	d10d      	bne.n	8008eb4 <_dtoa_r+0xa44>
 8008e98:	2b39      	cmp	r3, #57	@ 0x39
 8008e9a:	d027      	beq.n	8008eec <_dtoa_r+0xa7c>
 8008e9c:	9a04      	ldr	r2, [sp, #16]
 8008e9e:	2a00      	cmp	r2, #0
 8008ea0:	dd01      	ble.n	8008ea6 <_dtoa_r+0xa36>
 8008ea2:	9b03      	ldr	r3, [sp, #12]
 8008ea4:	3331      	adds	r3, #49	@ 0x31
 8008ea6:	f88b 3000 	strb.w	r3, [fp]
 8008eaa:	e52e      	b.n	800890a <_dtoa_r+0x49a>
 8008eac:	4628      	mov	r0, r5
 8008eae:	e7b9      	b.n	8008e24 <_dtoa_r+0x9b4>
 8008eb0:	2201      	movs	r2, #1
 8008eb2:	e7e2      	b.n	8008e7a <_dtoa_r+0xa0a>
 8008eb4:	9904      	ldr	r1, [sp, #16]
 8008eb6:	2900      	cmp	r1, #0
 8008eb8:	db04      	blt.n	8008ec4 <_dtoa_r+0xa54>
 8008eba:	9807      	ldr	r0, [sp, #28]
 8008ebc:	4301      	orrs	r1, r0
 8008ebe:	9806      	ldr	r0, [sp, #24]
 8008ec0:	4301      	orrs	r1, r0
 8008ec2:	d120      	bne.n	8008f06 <_dtoa_r+0xa96>
 8008ec4:	2a00      	cmp	r2, #0
 8008ec6:	ddee      	ble.n	8008ea6 <_dtoa_r+0xa36>
 8008ec8:	9902      	ldr	r1, [sp, #8]
 8008eca:	9300      	str	r3, [sp, #0]
 8008ecc:	2201      	movs	r2, #1
 8008ece:	4648      	mov	r0, r9
 8008ed0:	f000 fba4 	bl	800961c <__lshift>
 8008ed4:	4621      	mov	r1, r4
 8008ed6:	9002      	str	r0, [sp, #8]
 8008ed8:	f000 fc0c 	bl	80096f4 <__mcmp>
 8008edc:	2800      	cmp	r0, #0
 8008ede:	9b00      	ldr	r3, [sp, #0]
 8008ee0:	dc02      	bgt.n	8008ee8 <_dtoa_r+0xa78>
 8008ee2:	d1e0      	bne.n	8008ea6 <_dtoa_r+0xa36>
 8008ee4:	07da      	lsls	r2, r3, #31
 8008ee6:	d5de      	bpl.n	8008ea6 <_dtoa_r+0xa36>
 8008ee8:	2b39      	cmp	r3, #57	@ 0x39
 8008eea:	d1da      	bne.n	8008ea2 <_dtoa_r+0xa32>
 8008eec:	2339      	movs	r3, #57	@ 0x39
 8008eee:	f88b 3000 	strb.w	r3, [fp]
 8008ef2:	4633      	mov	r3, r6
 8008ef4:	461e      	mov	r6, r3
 8008ef6:	3b01      	subs	r3, #1
 8008ef8:	f816 2c01 	ldrb.w	r2, [r6, #-1]
 8008efc:	2a39      	cmp	r2, #57	@ 0x39
 8008efe:	d04e      	beq.n	8008f9e <_dtoa_r+0xb2e>
 8008f00:	3201      	adds	r2, #1
 8008f02:	701a      	strb	r2, [r3, #0]
 8008f04:	e501      	b.n	800890a <_dtoa_r+0x49a>
 8008f06:	2a00      	cmp	r2, #0
 8008f08:	dd03      	ble.n	8008f12 <_dtoa_r+0xaa2>
 8008f0a:	2b39      	cmp	r3, #57	@ 0x39
 8008f0c:	d0ee      	beq.n	8008eec <_dtoa_r+0xa7c>
 8008f0e:	3301      	adds	r3, #1
 8008f10:	e7c9      	b.n	8008ea6 <_dtoa_r+0xa36>
 8008f12:	9a00      	ldr	r2, [sp, #0]
 8008f14:	9908      	ldr	r1, [sp, #32]
 8008f16:	f802 3c01 	strb.w	r3, [r2, #-1]
 8008f1a:	428a      	cmp	r2, r1
 8008f1c:	d028      	beq.n	8008f70 <_dtoa_r+0xb00>
 8008f1e:	9902      	ldr	r1, [sp, #8]
 8008f20:	2300      	movs	r3, #0
 8008f22:	220a      	movs	r2, #10
 8008f24:	4648      	mov	r0, r9
 8008f26:	f000 f9d5 	bl	80092d4 <__multadd>
 8008f2a:	42af      	cmp	r7, r5
 8008f2c:	9002      	str	r0, [sp, #8]
 8008f2e:	f04f 0300 	mov.w	r3, #0
 8008f32:	f04f 020a 	mov.w	r2, #10
 8008f36:	4639      	mov	r1, r7
 8008f38:	4648      	mov	r0, r9
 8008f3a:	d107      	bne.n	8008f4c <_dtoa_r+0xadc>
 8008f3c:	f000 f9ca 	bl	80092d4 <__multadd>
 8008f40:	4607      	mov	r7, r0
 8008f42:	4605      	mov	r5, r0
 8008f44:	9b00      	ldr	r3, [sp, #0]
 8008f46:	3301      	adds	r3, #1
 8008f48:	9300      	str	r3, [sp, #0]
 8008f4a:	e777      	b.n	8008e3c <_dtoa_r+0x9cc>
 8008f4c:	f000 f9c2 	bl	80092d4 <__multadd>
 8008f50:	4629      	mov	r1, r5
 8008f52:	4607      	mov	r7, r0
 8008f54:	2300      	movs	r3, #0
 8008f56:	220a      	movs	r2, #10
 8008f58:	4648      	mov	r0, r9
 8008f5a:	f000 f9bb 	bl	80092d4 <__multadd>
 8008f5e:	4605      	mov	r5, r0
 8008f60:	e7f0      	b.n	8008f44 <_dtoa_r+0xad4>
 8008f62:	f1bb 0f00 	cmp.w	fp, #0
 8008f66:	bfcc      	ite	gt
 8008f68:	465e      	movgt	r6, fp
 8008f6a:	2601      	movle	r6, #1
 8008f6c:	4456      	add	r6, sl
 8008f6e:	2700      	movs	r7, #0
 8008f70:	9902      	ldr	r1, [sp, #8]
 8008f72:	9300      	str	r3, [sp, #0]
 8008f74:	2201      	movs	r2, #1
 8008f76:	4648      	mov	r0, r9
 8008f78:	f000 fb50 	bl	800961c <__lshift>
 8008f7c:	4621      	mov	r1, r4
 8008f7e:	9002      	str	r0, [sp, #8]
 8008f80:	f000 fbb8 	bl	80096f4 <__mcmp>
 8008f84:	2800      	cmp	r0, #0
 8008f86:	dcb4      	bgt.n	8008ef2 <_dtoa_r+0xa82>
 8008f88:	d102      	bne.n	8008f90 <_dtoa_r+0xb20>
 8008f8a:	9b00      	ldr	r3, [sp, #0]
 8008f8c:	07db      	lsls	r3, r3, #31
 8008f8e:	d4b0      	bmi.n	8008ef2 <_dtoa_r+0xa82>
 8008f90:	4633      	mov	r3, r6
 8008f92:	461e      	mov	r6, r3
 8008f94:	f813 2d01 	ldrb.w	r2, [r3, #-1]!
 8008f98:	2a30      	cmp	r2, #48	@ 0x30
 8008f9a:	d0fa      	beq.n	8008f92 <_dtoa_r+0xb22>
 8008f9c:	e4b5      	b.n	800890a <_dtoa_r+0x49a>
 8008f9e:	459a      	cmp	sl, r3
 8008fa0:	d1a8      	bne.n	8008ef4 <_dtoa_r+0xa84>
 8008fa2:	2331      	movs	r3, #49	@ 0x31
 8008fa4:	f108 0801 	add.w	r8, r8, #1
 8008fa8:	f88a 3000 	strb.w	r3, [sl]
 8008fac:	e4ad      	b.n	800890a <_dtoa_r+0x49a>
 8008fae:	9b21      	ldr	r3, [sp, #132]	@ 0x84
 8008fb0:	f8df a058 	ldr.w	sl, [pc, #88]	@ 800900c <_dtoa_r+0xb9c>
 8008fb4:	b11b      	cbz	r3, 8008fbe <_dtoa_r+0xb4e>
 8008fb6:	f10a 0308 	add.w	r3, sl, #8
 8008fba:	9a21      	ldr	r2, [sp, #132]	@ 0x84
 8008fbc:	6013      	str	r3, [r2, #0]
 8008fbe:	4650      	mov	r0, sl
 8008fc0:	b017      	add	sp, #92	@ 0x5c
 8008fc2:	e8bd 8ff0 	ldmia.w	sp!, {r4, r5, r6, r7, r8, r9, sl, fp, pc}
 8008fc6:	9b07      	ldr	r3, [sp, #28]
 8008fc8:	2b01      	cmp	r3, #1
 8008fca:	f77f ae2e 	ble.w	8008c2a <_dtoa_r+0x7ba>
 8008fce:	9b0d      	ldr	r3, [sp, #52]	@ 0x34
 8008fd0:	9308      	str	r3, [sp, #32]
 8008fd2:	2001      	movs	r0, #1
 8008fd4:	e64d      	b.n	8008c72 <_dtoa_r+0x802>
 8008fd6:	f1bb 0f00 	cmp.w	fp, #0
 8008fda:	f77f aed9 	ble.w	8008d90 <_dtoa_r+0x920>
 8008fde:	4656      	mov	r6, sl
 8008fe0:	9802      	ldr	r0, [sp, #8]
 8008fe2:	4621      	mov	r1, r4
 8008fe4:	f7ff f9bb 	bl	800835e <quorem>
 8008fe8:	f100 0330 	add.w	r3, r0, #48	@ 0x30
 8008fec:	f806 3b01 	strb.w	r3, [r6], #1
 8008ff0:	eba6 020a 	sub.w	r2, r6, sl
 8008ff4:	4593      	cmp	fp, r2
 8008ff6:	ddb4      	ble.n	8008f62 <_dtoa_r+0xaf2>
 8008ff8:	9902      	ldr	r1, [sp, #8]
 8008ffa:	2300      	movs	r3, #0
 8008ffc:	220a      	movs	r2, #10
 8008ffe:	4648      	mov	r0, r9
 8009000:	f000 f968 	bl	80092d4 <__multadd>
 8009004:	9002      	str	r0, [sp, #8]
 8009006:	e7eb      	b.n	8008fe0 <_dtoa_r+0xb70>
 8009008:	0800a1b6 	.word	0x0800a1b6
 800900c:	0800a13a 	.word	0x0800a13a

08009010 <_free_r>:
 8009010:	b538      	push	{r3, r4, r5, lr}
 8009012:	4605      	mov	r5, r0
 8009014:	2900      	cmp	r1, #0
 8009016:	d041      	beq.n	800909c <_free_r+0x8c>
 8009018:	f851 3c04 	ldr.w	r3, [r1, #-4]
 800901c:	1f0c      	subs	r4, r1, #4
 800901e:	2b00      	cmp	r3, #0
 8009020:	bfb8      	it	lt
 8009022:	18e4      	addlt	r4, r4, r3
 8009024:	f000 f8e8 	bl	80091f8 <__malloc_lock>
 8009028:	4a1d      	ldr	r2, [pc, #116]	@ (80090a0 <_free_r+0x90>)
 800902a:	6813      	ldr	r3, [r2, #0]
 800902c:	b933      	cbnz	r3, 800903c <_free_r+0x2c>
 800902e:	6063      	str	r3, [r4, #4]
 8009030:	6014      	str	r4, [r2, #0]
 8009032:	4628      	mov	r0, r5
 8009034:	e8bd 4038 	ldmia.w	sp!, {r3, r4, r5, lr}
 8009038:	f000 b8e4 	b.w	8009204 <__malloc_unlock>
 800903c:	42a3      	cmp	r3, r4
 800903e:	d908      	bls.n	8009052 <_free_r+0x42>
 8009040:	6820      	ldr	r0, [r4, #0]
 8009042:	1821      	adds	r1, r4, r0
 8009044:	428b      	cmp	r3, r1
 8009046:	bf01      	itttt	eq
 8009048:	6819      	ldreq	r1, [r3, #0]
 800904a:	685b      	ldreq	r3, [r3, #4]
 800904c:	1809      	addeq	r1, r1, r0
 800904e:	6021      	streq	r1, [r4, #0]
 8009050:	e7ed      	b.n	800902e <_free_r+0x1e>
 8009052:	461a      	mov	r2, r3
 8009054:	685b      	ldr	r3, [r3, #4]
 8009056:	b10b      	cbz	r3, 800905c <_free_r+0x4c>
 8009058:	42a3      	cmp	r3, r4
 800905a:	d9fa      	bls.n	8009052 <_free_r+0x42>
 800905c:	6811      	ldr	r1, [r2, #0]
 800905e:	1850      	adds	r0, r2, r1
 8009060:	42a0      	cmp	r0, r4
 8009062:	d10b      	bne.n	800907c <_free_r+0x6c>
 8009064:	6820      	ldr	r0, [r4, #0]
 8009066:	4401      	add	r1, r0
 8009068:	1850      	adds	r0, r2, r1
 800906a:	4283      	cmp	r3, r0
 800906c:	6011      	str	r1, [r2, #0]
 800906e:	d1e0      	bne.n	8009032 <_free_r+0x22>
 8009070:	6818      	ldr	r0, [r3, #0]
 8009072:	685b      	ldr	r3, [r3, #4]
 8009074:	6053      	str	r3, [r2, #4]
 8009076:	4408      	add	r0, r1
 8009078:	6010      	str	r0, [r2, #0]
 800907a:	e7da      	b.n	8009032 <_free_r+0x22>
 800907c:	d902      	bls.n	8009084 <_free_r+0x74>
 800907e:	230c      	movs	r3, #12
 8009080:	602b      	str	r3, [r5, #0]
 8009082:	e7d6      	b.n	8009032 <_free_r+0x22>
 8009084:	6820      	ldr	r0, [r4, #0]
 8009086:	1821      	adds	r1, r4, r0
 8009088:	428b      	cmp	r3, r1
 800908a:	bf04      	itt	eq
 800908c:	6819      	ldreq	r1, [r3, #0]
 800908e:	685b      	ldreq	r3, [r3, #4]
 8009090:	6063      	str	r3, [r4, #4]
 8009092:	bf04      	itt	eq
 8009094:	1809      	addeq	r1, r1, r0
 8009096:	6021      	streq	r1, [r4, #0]
 8009098:	6054      	str	r4, [r2, #4]
 800909a:	e7ca      	b.n	8009032 <_free_r+0x22>
 800909c:	bd38      	pop	{r3, r4, r5, pc}
 800909e:	bf00      	nop
 80090a0:	200024c4 	.word	0x200024c4

080090a4 <malloc>:
 80090a4:	4b02      	ldr	r3, [pc, #8]	@ (80090b0 <malloc+0xc>)
 80090a6:	4601      	mov	r1, r0
 80090a8:	6818      	ldr	r0, [r3, #0]
 80090aa:	f000 b825 	b.w	80090f8 <_malloc_r>
 80090ae:	bf00      	nop
 80090b0:	200001d4 	.word	0x200001d4

080090b4 <sbrk_aligned>:
 80090b4:	b570      	push	{r4, r5, r6, lr}
 80090b6:	4e0f      	ldr	r6, [pc, #60]	@ (80090f4 <sbrk_aligned+0x40>)
 80090b8:	460c      	mov	r4, r1
 80090ba:	6831      	ldr	r1, [r6, #0]
 80090bc:	4605      	mov	r5, r0
 80090be:	b911      	cbnz	r1, 80090c6 <sbrk_aligned+0x12>
 80090c0:	f000 fccc 	bl	8009a5c <_sbrk_r>
 80090c4:	6030      	str	r0, [r6, #0]
 80090c6:	4621      	mov	r1, r4
 80090c8:	4628      	mov	r0, r5
 80090ca:	f000 fcc7 	bl	8009a5c <_sbrk_r>
 80090ce:	1c43      	adds	r3, r0, #1
 80090d0:	d103      	bne.n	80090da <sbrk_aligned+0x26>
 80090d2:	f04f 34ff 	mov.w	r4, #4294967295	@ 0xffffffff
 80090d6:	4620      	mov	r0, r4
 80090d8:	bd70      	pop	{r4, r5, r6, pc}
 80090da:	1cc4      	adds	r4, r0, #3
 80090dc:	f024 0403 	bic.w	r4, r4, #3
 80090e0:	42a0      	cmp	r0, r4
 80090e2:	d0f8      	beq.n	80090d6 <sbrk_aligned+0x22>
 80090e4:	1a21      	subs	r1, r4, r0
 80090e6:	4628      	mov	r0, r5
 80090e8:	f000 fcb8 	bl	8009a5c <_sbrk_r>
 80090ec:	3001      	adds	r0, #1
 80090ee:	d1f2      	bne.n	80090d6 <sbrk_aligned+0x22>
 80090f0:	e7ef      	b.n	80090d2 <sbrk_aligned+0x1e>
 80090f2:	bf00      	nop
 80090f4:	200024c0 	.word	0x200024c0

080090f8 <_malloc_r>:
 80090f8:	e92d 43f8 	stmdb	sp!, {r3, r4, r5, r6, r7, r8, r9, lr}
 80090fc:	1ccd      	adds	r5, r1, #3
 80090fe:	f025 0503 	bic.w	r5, r5, #3
 8009102:	3508      	adds	r5, #8
 8009104:	2d0c      	cmp	r5, #12
 8009106:	bf38      	it	cc
 8009108:	250c      	movcc	r5, #12
 800910a:	2d00      	cmp	r5, #0
 800910c:	4606      	mov	r6, r0
 800910e:	db01      	blt.n	8009114 <_malloc_r+0x1c>
 8009110:	42a9      	cmp	r1, r5
 8009112:	d904      	bls.n	800911e <_malloc_r+0x26>
 8009114:	230c      	movs	r3, #12
 8009116:	6033      	str	r3, [r6, #0]
 8009118:	2000      	movs	r0, #0
 800911a:	e8bd 83f8 	ldmia.w	sp!, {r3, r4, r5, r6, r7, r8, r9, pc}
 800911e:	f8df 80d4 	ldr.w	r8, [pc, #212]	@ 80091f4 <_malloc_r+0xfc>
 8009122:	f000 f869 	bl	80091f8 <__malloc_lock>
 8009126:	f8d8 3000 	ldr.w	r3, [r8]
 800912a:	461c      	mov	r4, r3
 800912c:	bb44      	cbnz	r4, 8009180 <_malloc_r+0x88>
 800912e:	4629      	mov	r1, r5
 8009130:	4630      	mov	r0, r6
 8009132:	f7ff ffbf 	bl	80090b4 <sbrk_aligned>
 8009136:	1c43      	adds	r3, r0, #1
 8009138:	4604      	mov	r4, r0
 800913a:	d158      	bne.n	80091ee <_malloc_r+0xf6>
 800913c:	f8d8 4000 	ldr.w	r4, [r8]
 8009140:	4627      	mov	r7, r4
 8009142:	2f00      	cmp	r7, #0
 8009144:	d143      	bne.n	80091ce <_malloc_r+0xd6>
 8009146:	2c00      	cmp	r4, #0
 8009148:	d04b      	beq.n	80091e2 <_malloc_r+0xea>
 800914a:	6823      	ldr	r3, [r4, #0]
 800914c:	4639      	mov	r1, r7
 800914e:	4630      	mov	r0, r6
 8009150:	eb04 0903 	add.w	r9, r4, r3
 8009154:	f000 fc82 	bl	8009a5c <_sbrk_r>
 8009158:	4581      	cmp	r9, r0
 800915a:	d142      	bne.n	80091e2 <_malloc_r+0xea>
 800915c:	6821      	ldr	r1, [r4, #0]
 800915e:	1a6d      	subs	r5, r5, r1
 8009160:	4629      	mov	r1, r5
 8009162:	4630      	mov	r0, r6
 8009164:	f7ff ffa6 	bl	80090b4 <sbrk_aligned>
 8009168:	3001      	adds	r0, #1
 800916a:	d03a      	beq.n	80091e2 <_malloc_r+0xea>
 800916c:	6823      	ldr	r3, [r4, #0]
 800916e:	442b      	add	r3, r5
 8009170:	6023      	str	r3, [r4, #0]
 8009172:	f8d8 3000 	ldr.w	r3, [r8]
 8009176:	685a      	ldr	r2, [r3, #4]
 8009178:	bb62      	cbnz	r2, 80091d4 <_malloc_r+0xdc>
 800917a:	f8c8 7000 	str.w	r7, [r8]
 800917e:	e00f      	b.n	80091a0 <_malloc_r+0xa8>
 8009180:	6822      	ldr	r2, [r4, #0]
 8009182:	1b52      	subs	r2, r2, r5
 8009184:	d420      	bmi.n	80091c8 <_malloc_r+0xd0>
 8009186:	2a0b      	cmp	r2, #11
 8009188:	d917      	bls.n	80091ba <_malloc_r+0xc2>
 800918a:	1961      	adds	r1, r4, r5
 800918c:	42a3      	cmp	r3, r4
 800918e:	6025      	str	r5, [r4, #0]
 8009190:	bf18      	it	ne
 8009192:	6059      	strne	r1, [r3, #4]
 8009194:	6863      	ldr	r3, [r4, #4]
 8009196:	bf08      	it	eq
 8009198:	f8c8 1000 	streq.w	r1, [r8]
 800919c:	5162      	str	r2, [r4, r5]
 800919e:	604b      	str	r3, [r1, #4]
 80091a0:	4630      	mov	r0, r6
 80091a2:	f000 f82f 	bl	8009204 <__malloc_unlock>
 80091a6:	f104 000b 	add.w	r0, r4, #11
 80091aa:	1d23      	adds	r3, r4, #4
 80091ac:	f020 0007 	bic.w	r0, r0, #7
 80091b0:	1ac2      	subs	r2, r0, r3
 80091b2:	bf1c      	itt	ne
 80091b4:	1a1b      	subne	r3, r3, r0
 80091b6:	50a3      	strne	r3, [r4, r2]
 80091b8:	e7af      	b.n	800911a <_malloc_r+0x22>
 80091ba:	6862      	ldr	r2, [r4, #4]
 80091bc:	42a3      	cmp	r3, r4
 80091be:	bf0c      	ite	eq
 80091c0:	f8c8 2000 	streq.w	r2, [r8]
 80091c4:	605a      	strne	r2, [r3, #4]
 80091c6:	e7eb      	b.n	80091a0 <_malloc_r+0xa8>
 80091c8:	4623      	mov	r3, r4
 80091ca:	6864      	ldr	r4, [r4, #4]
 80091cc:	e7ae      	b.n	800912c <_malloc_r+0x34>
 80091ce:	463c      	mov	r4, r7
 80091d0:	687f      	ldr	r7, [r7, #4]
 80091d2:	e7b6      	b.n	8009142 <_malloc_r+0x4a>
 80091d4:	461a      	mov	r2, r3
 80091d6:	685b      	ldr	r3, [r3, #4]
 80091d8:	42a3      	cmp	r3, r4
 80091da:	d1fb      	bne.n	80091d4 <_malloc_r+0xdc>
 80091dc:	2300      	movs	r3, #0
 80091de:	6053      	str	r3, [r2, #4]
 80091e0:	e7de      	b.n	80091a0 <_malloc_r+0xa8>
 80091e2:	230c      	movs	r3, #12
 80091e4:	6033      	str	r3, [r6, #0]
 80091e6:	4630      	mov	r0, r6
 80091e8:	f000 f80c 	bl	8009204 <__malloc_unlock>
 80091ec:	e794      	b.n	8009118 <_malloc_r+0x20>
 80091ee:	6005      	str	r5, [r0, #0]
 80091f0:	e7d6      	b.n	80091a0 <_malloc_r+0xa8>
 80091f2:	bf00      	nop
 80091f4:	200024c4 	.word	0x200024c4

080091f8 <__malloc_lock>:
 80091f8:	4801      	ldr	r0, [pc, #4]	@ (8009200 <__malloc_lock+0x8>)
 80091fa:	f7ff b898 	b.w	800832e <__retarget_lock_acquire_recursive>
 80091fe:	bf00      	nop
 8009200:	200024bc 	.word	0x200024bc

08009204 <__malloc_unlock>:
 8009204:	4801      	ldr	r0, [pc, #4]	@ (800920c <__malloc_unlock+0x8>)
 8009206:	f7ff b893 	b.w	8008330 <__retarget_lock_release_recursive>
 800920a:	bf00      	nop
 800920c:	200024bc 	.word	0x200024bc

08009210 <_Balloc>:
 8009210:	b570      	push	{r4, r5, r6, lr}
 8009212:	69c6      	ldr	r6, [r0, #28]
 8009214:	4604      	mov	r4, r0
 8009216:	460d      	mov	r5, r1
 8009218:	b976      	cbnz	r6, 8009238 <_Balloc+0x28>
 800921a:	2010      	movs	r0, #16
 800921c:	f7ff ff42 	bl	80090a4 <malloc>
 8009220:	4602      	mov	r2, r0
 8009222:	61e0      	str	r0, [r4, #28]
 8009224:	b920      	cbnz	r0, 8009230 <_Balloc+0x20>
 8009226:	4b18      	ldr	r3, [pc, #96]	@ (8009288 <_Balloc+0x78>)
 8009228:	4818      	ldr	r0, [pc, #96]	@ (800928c <_Balloc+0x7c>)
 800922a:	216b      	movs	r1, #107	@ 0x6b
 800922c:	f000 fc26 	bl	8009a7c <__assert_func>
 8009230:	e9c0 6601 	strd	r6, r6, [r0, #4]
 8009234:	6006      	str	r6, [r0, #0]
 8009236:	60c6      	str	r6, [r0, #12]
 8009238:	69e6      	ldr	r6, [r4, #28]
 800923a:	68f3      	ldr	r3, [r6, #12]
 800923c:	b183      	cbz	r3, 8009260 <_Balloc+0x50>
 800923e:	69e3      	ldr	r3, [r4, #28]
 8009240:	68db      	ldr	r3, [r3, #12]
 8009242:	f853 0025 	ldr.w	r0, [r3, r5, lsl #2]
 8009246:	b9b8      	cbnz	r0, 8009278 <_Balloc+0x68>
 8009248:	2101      	movs	r1, #1
 800924a:	fa01 f605 	lsl.w	r6, r1, r5
 800924e:	1d72      	adds	r2, r6, #5
 8009250:	0092      	lsls	r2, r2, #2
 8009252:	4620      	mov	r0, r4
 8009254:	f000 fc30 	bl	8009ab8 <_calloc_r>
 8009258:	b160      	cbz	r0, 8009274 <_Balloc+0x64>
 800925a:	e9c0 5601 	strd	r5, r6, [r0, #4]
 800925e:	e00e      	b.n	800927e <_Balloc+0x6e>
 8009260:	2221      	movs	r2, #33	@ 0x21
 8009262:	2104      	movs	r1, #4
 8009264:	4620      	mov	r0, r4
 8009266:	f000 fc27 	bl	8009ab8 <_calloc_r>
 800926a:	69e3      	ldr	r3, [r4, #28]
 800926c:	60f0      	str	r0, [r6, #12]
 800926e:	68db      	ldr	r3, [r3, #12]
 8009270:	2b00      	cmp	r3, #0
 8009272:	d1e4      	bne.n	800923e <_Balloc+0x2e>
 8009274:	2000      	movs	r0, #0
 8009276:	bd70      	pop	{r4, r5, r6, pc}
 8009278:	6802      	ldr	r2, [r0, #0]
 800927a:	f843 2025 	str.w	r2, [r3, r5, lsl #2]
 800927e:	2300      	movs	r3, #0
 8009280:	e9c0 3303 	strd	r3, r3, [r0, #12]
 8009284:	e7f7      	b.n	8009276 <_Balloc+0x66>
 8009286:	bf00      	nop
 8009288:	0800a147 	.word	0x0800a147
 800928c:	0800a1c7 	.word	0x0800a1c7

08009290 <_Bfree>:
 8009290:	b570      	push	{r4, r5, r6, lr}
 8009292:	69c6      	ldr	r6, [r0, #28]
 8009294:	4605      	mov	r5, r0
 8009296:	460c      	mov	r4, r1
 8009298:	b976      	cbnz	r6, 80092b8 <_Bfree+0x28>
 800929a:	2010      	movs	r0, #16
 800929c:	f7ff ff02 	bl	80090a4 <malloc>
 80092a0:	4602      	mov	r2, r0
 80092a2:	61e8      	str	r0, [r5, #28]
 80092a4:	b920      	cbnz	r0, 80092b0 <_Bfree+0x20>
 80092a6:	4b09      	ldr	r3, [pc, #36]	@ (80092cc <_Bfree+0x3c>)
 80092a8:	4809      	ldr	r0, [pc, #36]	@ (80092d0 <_Bfree+0x40>)
 80092aa:	218f      	movs	r1, #143	@ 0x8f
 80092ac:	f000 fbe6 	bl	8009a7c <__assert_func>
 80092b0:	e9c0 6601 	strd	r6, r6, [r0, #4]
 80092b4:	6006      	str	r6, [r0, #0]
 80092b6:	60c6      	str	r6, [r0, #12]
 80092b8:	b13c      	cbz	r4, 80092ca <_Bfree+0x3a>
 80092ba:	69eb      	ldr	r3, [r5, #28]
 80092bc:	6862      	ldr	r2, [r4, #4]
 80092be:	68db      	ldr	r3, [r3, #12]
 80092c0:	f853 1022 	ldr.w	r1, [r3, r2, lsl #2]
 80092c4:	6021      	str	r1, [r4, #0]
 80092c6:	f843 4022 	str.w	r4, [r3, r2, lsl #2]
 80092ca:	bd70      	pop	{r4, r5, r6, pc}
 80092cc:	0800a147 	.word	0x0800a147
 80092d0:	0800a1c7 	.word	0x0800a1c7

080092d4 <__multadd>:
 80092d4:	e92d 41f0 	stmdb	sp!, {r4, r5, r6, r7, r8, lr}
 80092d8:	690d      	ldr	r5, [r1, #16]
 80092da:	4607      	mov	r7, r0
 80092dc:	460c      	mov	r4, r1
 80092de:	461e      	mov	r6, r3
 80092e0:	f101 0c14 	add.w	ip, r1, #20
 80092e4:	2000      	movs	r0, #0
 80092e6:	f8dc 3000 	ldr.w	r3, [ip]
 80092ea:	b299      	uxth	r1, r3
 80092ec:	fb02 6101 	mla	r1, r2, r1, r6
 80092f0:	0c1e      	lsrs	r6, r3, #16
 80092f2:	0c0b      	lsrs	r3, r1, #16
 80092f4:	fb02 3306 	mla	r3, r2, r6, r3
 80092f8:	b289      	uxth	r1, r1
 80092fa:	3001      	adds	r0, #1
 80092fc:	eb01 4103 	add.w	r1, r1, r3, lsl #16
 8009300:	4285      	cmp	r5, r0
 8009302:	f84c 1b04 	str.w	r1, [ip], #4
 8009306:	ea4f 4613 	mov.w	r6, r3, lsr #16
 800930a:	dcec      	bgt.n	80092e6 <__multadd+0x12>
 800930c:	b30e      	cbz	r6, 8009352 <__multadd+0x7e>
 800930e:	68a3      	ldr	r3, [r4, #8]
 8009310:	42ab      	cmp	r3, r5
 8009312:	dc19      	bgt.n	8009348 <__multadd+0x74>
 8009314:	6861      	ldr	r1, [r4, #4]
 8009316:	4638      	mov	r0, r7
 8009318:	3101      	adds	r1, #1
 800931a:	f7ff ff79 	bl	8009210 <_Balloc>
 800931e:	4680      	mov	r8, r0
 8009320:	b928      	cbnz	r0, 800932e <__multadd+0x5a>
 8009322:	4602      	mov	r2, r0
 8009324:	4b0c      	ldr	r3, [pc, #48]	@ (8009358 <__multadd+0x84>)
 8009326:	480d      	ldr	r0, [pc, #52]	@ (800935c <__multadd+0x88>)
 8009328:	21ba      	movs	r1, #186	@ 0xba
 800932a:	f000 fba7 	bl	8009a7c <__assert_func>
 800932e:	6922      	ldr	r2, [r4, #16]
 8009330:	3202      	adds	r2, #2
 8009332:	f104 010c 	add.w	r1, r4, #12
 8009336:	0092      	lsls	r2, r2, #2
 8009338:	300c      	adds	r0, #12
 800933a:	f7ff f802 	bl	8008342 <memcpy>
 800933e:	4621      	mov	r1, r4
 8009340:	4638      	mov	r0, r7
 8009342:	f7ff ffa5 	bl	8009290 <_Bfree>
 8009346:	4644      	mov	r4, r8
 8009348:	eb04 0385 	add.w	r3, r4, r5, lsl #2
 800934c:	3501      	adds	r5, #1
 800934e:	615e      	str	r6, [r3, #20]
 8009350:	6125      	str	r5, [r4, #16]
 8009352:	4620      	mov	r0, r4
 8009354:	e8bd 81f0 	ldmia.w	sp!, {r4, r5, r6, r7, r8, pc}
 8009358:	0800a1b6 	.word	0x0800a1b6
 800935c:	0800a1c7 	.word	0x0800a1c7

08009360 <__hi0bits>:
 8009360:	f5b0 3f80 	cmp.w	r0, #65536	@ 0x10000
 8009364:	4603      	mov	r3, r0
 8009366:	bf36      	itet	cc
 8009368:	0403      	lslcc	r3, r0, #16
 800936a:	2000      	movcs	r0, #0
 800936c:	2010      	movcc	r0, #16
 800936e:	f1b3 7f80 	cmp.w	r3, #16777216	@ 0x1000000
 8009372:	bf3c      	itt	cc
 8009374:	021b      	lslcc	r3, r3, #8
 8009376:	3008      	addcc	r0, #8
 8009378:	f1b3 5f80 	cmp.w	r3, #268435456	@ 0x10000000
 800937c:	bf3c      	itt	cc
 800937e:	011b      	lslcc	r3, r3, #4
 8009380:	3004      	addcc	r0, #4
 8009382:	f1b3 4f80 	cmp.w	r3, #1073741824	@ 0x40000000
 8009386:	bf3c      	itt	cc
 8009388:	009b      	lslcc	r3, r3, #2
 800938a:	3002      	addcc	r0, #2
 800938c:	2b00      	cmp	r3, #0
 800938e:	db05      	blt.n	800939c <__hi0bits+0x3c>
 8009390:	f013 4f80 	tst.w	r3, #1073741824	@ 0x40000000
 8009394:	f100 0001 	add.w	r0, r0, #1
 8009398:	bf08      	it	eq
 800939a:	2020      	moveq	r0, #32
 800939c:	4770      	bx	lr

0800939e <__lo0bits>:
 800939e:	6803      	ldr	r3, [r0, #0]
 80093a0:	4602      	mov	r2, r0
 80093a2:	f013 0007 	ands.w	r0, r3, #7
 80093a6:	d00b      	beq.n	80093c0 <__lo0bits+0x22>
 80093a8:	07d9      	lsls	r1, r3, #31
 80093aa:	d421      	bmi.n	80093f0 <__lo0bits+0x52>
 80093ac:	0798      	lsls	r0, r3, #30
 80093ae:	bf49      	itett	mi
 80093b0:	085b      	lsrmi	r3, r3, #1
 80093b2:	089b      	lsrpl	r3, r3, #2
 80093b4:	2001      	movmi	r0, #1
 80093b6:	6013      	strmi	r3, [r2, #0]
 80093b8:	bf5c      	itt	pl
 80093ba:	6013      	strpl	r3, [r2, #0]
 80093bc:	2002      	movpl	r0, #2
 80093be:	4770      	bx	lr
 80093c0:	b299      	uxth	r1, r3
 80093c2:	b909      	cbnz	r1, 80093c8 <__lo0bits+0x2a>
 80093c4:	0c1b      	lsrs	r3, r3, #16
 80093c6:	2010      	movs	r0, #16
 80093c8:	b2d9      	uxtb	r1, r3
 80093ca:	b909      	cbnz	r1, 80093d0 <__lo0bits+0x32>
 80093cc:	3008      	adds	r0, #8
 80093ce:	0a1b      	lsrs	r3, r3, #8
 80093d0:	0719      	lsls	r1, r3, #28
 80093d2:	bf04      	itt	eq
 80093d4:	091b      	lsreq	r3, r3, #4
 80093d6:	3004      	addeq	r0, #4
 80093d8:	0799      	lsls	r1, r3, #30
 80093da:	bf04      	itt	eq
 80093dc:	089b      	lsreq	r3, r3, #2
 80093de:	3002      	addeq	r0, #2
 80093e0:	07d9      	lsls	r1, r3, #31
 80093e2:	d403      	bmi.n	80093ec <__lo0bits+0x4e>
 80093e4:	085b      	lsrs	r3, r3, #1
 80093e6:	f100 0001 	add.w	r0, r0, #1
 80093ea:	d003      	beq.n	80093f4 <__lo0bits+0x56>
 80093ec:	6013      	str	r3, [r2, #0]
 80093ee:	4770      	bx	lr
 80093f0:	2000      	movs	r0, #0
 80093f2:	4770      	bx	lr
 80093f4:	2020      	movs	r0, #32
 80093f6:	4770      	bx	lr

080093f8 <__i2b>:
 80093f8:	b510      	push	{r4, lr}
 80093fa:	460c      	mov	r4, r1
 80093fc:	2101      	movs	r1, #1
 80093fe:	f7ff ff07 	bl	8009210 <_Balloc>
 8009402:	4602      	mov	r2, r0
 8009404:	b928      	cbnz	r0, 8009412 <__i2b+0x1a>
 8009406:	4b05      	ldr	r3, [pc, #20]	@ (800941c <__i2b+0x24>)
 8009408:	4805      	ldr	r0, [pc, #20]	@ (8009420 <__i2b+0x28>)
 800940a:	f240 1145 	movw	r1, #325	@ 0x145
 800940e:	f000 fb35 	bl	8009a7c <__assert_func>
 8009412:	2301      	movs	r3, #1
 8009414:	6144      	str	r4, [r0, #20]
 8009416:	6103      	str	r3, [r0, #16]
 8009418:	bd10      	pop	{r4, pc}
 800941a:	bf00      	nop
 800941c:	0800a1b6 	.word	0x0800a1b6
 8009420:	0800a1c7 	.word	0x0800a1c7

08009424 <__multiply>:
 8009424:	e92d 4ff0 	stmdb	sp!, {r4, r5, r6, r7, r8, r9, sl, fp, lr}
 8009428:	4617      	mov	r7, r2
 800942a:	690a      	ldr	r2, [r1, #16]
 800942c:	693b      	ldr	r3, [r7, #16]
 800942e:	429a      	cmp	r2, r3
 8009430:	bfa8      	it	ge
 8009432:	463b      	movge	r3, r7
 8009434:	4689      	mov	r9, r1
 8009436:	bfa4      	itt	ge
 8009438:	460f      	movge	r7, r1
 800943a:	4699      	movge	r9, r3
 800943c:	693d      	ldr	r5, [r7, #16]
 800943e:	f8d9 a010 	ldr.w	sl, [r9, #16]
 8009442:	68bb      	ldr	r3, [r7, #8]
 8009444:	6879      	ldr	r1, [r7, #4]
 8009446:	eb05 060a 	add.w	r6, r5, sl
 800944a:	42b3      	cmp	r3, r6
 800944c:	b085      	sub	sp, #20
 800944e:	bfb8      	it	lt
 8009450:	3101      	addlt	r1, #1
 8009452:	f7ff fedd 	bl	8009210 <_Balloc>
 8009456:	b930      	cbnz	r0, 8009466 <__multiply+0x42>
 8009458:	4602      	mov	r2, r0
 800945a:	4b41      	ldr	r3, [pc, #260]	@ (8009560 <__multiply+0x13c>)
 800945c:	4841      	ldr	r0, [pc, #260]	@ (8009564 <__multiply+0x140>)
 800945e:	f44f 71b1 	mov.w	r1, #354	@ 0x162
 8009462:	f000 fb0b 	bl	8009a7c <__assert_func>
 8009466:	f100 0414 	add.w	r4, r0, #20
 800946a:	eb04 0e86 	add.w	lr, r4, r6, lsl #2
 800946e:	4623      	mov	r3, r4
 8009470:	2200      	movs	r2, #0
 8009472:	4573      	cmp	r3, lr
 8009474:	d320      	bcc.n	80094b8 <__multiply+0x94>
 8009476:	f107 0814 	add.w	r8, r7, #20
 800947a:	f109 0114 	add.w	r1, r9, #20
 800947e:	eb08 0585 	add.w	r5, r8, r5, lsl #2
 8009482:	eb01 038a 	add.w	r3, r1, sl, lsl #2
 8009486:	9302      	str	r3, [sp, #8]
 8009488:	1beb      	subs	r3, r5, r7
 800948a:	3b15      	subs	r3, #21
 800948c:	f023 0303 	bic.w	r3, r3, #3
 8009490:	3304      	adds	r3, #4
 8009492:	3715      	adds	r7, #21
 8009494:	42bd      	cmp	r5, r7
 8009496:	bf38      	it	cc
 8009498:	2304      	movcc	r3, #4
 800949a:	9301      	str	r3, [sp, #4]
 800949c:	9b02      	ldr	r3, [sp, #8]
 800949e:	9103      	str	r1, [sp, #12]
 80094a0:	428b      	cmp	r3, r1
 80094a2:	d80c      	bhi.n	80094be <__multiply+0x9a>
 80094a4:	2e00      	cmp	r6, #0
 80094a6:	dd03      	ble.n	80094b0 <__multiply+0x8c>
 80094a8:	f85e 3d04 	ldr.w	r3, [lr, #-4]!
 80094ac:	2b00      	cmp	r3, #0
 80094ae:	d055      	beq.n	800955c <__multiply+0x138>
 80094b0:	6106      	str	r6, [r0, #16]
 80094b2:	b005      	add	sp, #20
 80094b4:	e8bd 8ff0 	ldmia.w	sp!, {r4, r5, r6, r7, r8, r9, sl, fp, pc}
 80094b8:	f843 2b04 	str.w	r2, [r3], #4
 80094bc:	e7d9      	b.n	8009472 <__multiply+0x4e>
 80094be:	f8b1 a000 	ldrh.w	sl, [r1]
 80094c2:	f1ba 0f00 	cmp.w	sl, #0
 80094c6:	d01f      	beq.n	8009508 <__multiply+0xe4>
 80094c8:	46c4      	mov	ip, r8
 80094ca:	46a1      	mov	r9, r4
 80094cc:	2700      	movs	r7, #0
 80094ce:	f85c 2b04 	ldr.w	r2, [ip], #4
 80094d2:	f8d9 3000 	ldr.w	r3, [r9]
 80094d6:	fa1f fb82 	uxth.w	fp, r2
 80094da:	b29b      	uxth	r3, r3
 80094dc:	fb0a 330b 	mla	r3, sl, fp, r3
 80094e0:	443b      	add	r3, r7
 80094e2:	f8d9 7000 	ldr.w	r7, [r9]
 80094e6:	0c12      	lsrs	r2, r2, #16
 80094e8:	0c3f      	lsrs	r7, r7, #16
 80094ea:	fb0a 7202 	mla	r2, sl, r2, r7
 80094ee:	eb02 4213 	add.w	r2, r2, r3, lsr #16
 80094f2:	b29b      	uxth	r3, r3
 80094f4:	ea43 4302 	orr.w	r3, r3, r2, lsl #16
 80094f8:	4565      	cmp	r5, ip
 80094fa:	f849 3b04 	str.w	r3, [r9], #4
 80094fe:	ea4f 4712 	mov.w	r7, r2, lsr #16
 8009502:	d8e4      	bhi.n	80094ce <__multiply+0xaa>
 8009504:	9b01      	ldr	r3, [sp, #4]
 8009506:	50e7      	str	r7, [r4, r3]
 8009508:	9b03      	ldr	r3, [sp, #12]
 800950a:	f8b3 9002 	ldrh.w	r9, [r3, #2]
 800950e:	3104      	adds	r1, #4
 8009510:	f1b9 0f00 	cmp.w	r9, #0
 8009514:	d020      	beq.n	8009558 <__multiply+0x134>
 8009516:	6823      	ldr	r3, [r4, #0]
 8009518:	4647      	mov	r7, r8
 800951a:	46a4      	mov	ip, r4
 800951c:	f04f 0a00 	mov.w	sl, #0
 8009520:	f8b7 b000 	ldrh.w	fp, [r7]
 8009524:	f8bc 2002 	ldrh.w	r2, [ip, #2]
 8009528:	fb09 220b 	mla	r2, r9, fp, r2
 800952c:	4452      	add	r2, sl
 800952e:	b29b      	uxth	r3, r3
 8009530:	ea43 4302 	orr.w	r3, r3, r2, lsl #16
 8009534:	f84c 3b04 	str.w	r3, [ip], #4
 8009538:	f857 3b04 	ldr.w	r3, [r7], #4
 800953c:	ea4f 4a13 	mov.w	sl, r3, lsr #16
 8009540:	f8bc 3000 	ldrh.w	r3, [ip]
 8009544:	fb09 330a 	mla	r3, r9, sl, r3
 8009548:	eb03 4312 	add.w	r3, r3, r2, lsr #16
 800954c:	42bd      	cmp	r5, r7
 800954e:	ea4f 4a13 	mov.w	sl, r3, lsr #16
 8009552:	d8e5      	bhi.n	8009520 <__multiply+0xfc>
 8009554:	9a01      	ldr	r2, [sp, #4]
 8009556:	50a3      	str	r3, [r4, r2]
 8009558:	3404      	adds	r4, #4
 800955a:	e79f      	b.n	800949c <__multiply+0x78>
 800955c:	3e01      	subs	r6, #1
 800955e:	e7a1      	b.n	80094a4 <__multiply+0x80>
 8009560:	0800a1b6 	.word	0x0800a1b6
 8009564:	0800a1c7 	.word	0x0800a1c7

08009568 <__pow5mult>:
 8009568:	e92d 43f8 	stmdb	sp!, {r3, r4, r5, r6, r7, r8, r9, lr}
 800956c:	4615      	mov	r5, r2
 800956e:	f012 0203 	ands.w	r2, r2, #3
 8009572:	4607      	mov	r7, r0
 8009574:	460e      	mov	r6, r1
 8009576:	d007      	beq.n	8009588 <__pow5mult+0x20>
 8009578:	4c25      	ldr	r4, [pc, #148]	@ (8009610 <__pow5mult+0xa8>)
 800957a:	3a01      	subs	r2, #1
 800957c:	2300      	movs	r3, #0
 800957e:	f854 2022 	ldr.w	r2, [r4, r2, lsl #2]
 8009582:	f7ff fea7 	bl	80092d4 <__multadd>
 8009586:	4606      	mov	r6, r0
 8009588:	10ad      	asrs	r5, r5, #2
 800958a:	d03d      	beq.n	8009608 <__pow5mult+0xa0>
 800958c:	69fc      	ldr	r4, [r7, #28]
 800958e:	b97c      	cbnz	r4, 80095b0 <__pow5mult+0x48>
 8009590:	2010      	movs	r0, #16
 8009592:	f7ff fd87 	bl	80090a4 <malloc>
 8009596:	4602      	mov	r2, r0
 8009598:	61f8      	str	r0, [r7, #28]
 800959a:	b928      	cbnz	r0, 80095a8 <__pow5mult+0x40>
 800959c:	4b1d      	ldr	r3, [pc, #116]	@ (8009614 <__pow5mult+0xac>)
 800959e:	481e      	ldr	r0, [pc, #120]	@ (8009618 <__pow5mult+0xb0>)
 80095a0:	f240 11b3 	movw	r1, #435	@ 0x1b3
 80095a4:	f000 fa6a 	bl	8009a7c <__assert_func>
 80095a8:	e9c0 4401 	strd	r4, r4, [r0, #4]
 80095ac:	6004      	str	r4, [r0, #0]
 80095ae:	60c4      	str	r4, [r0, #12]
 80095b0:	f8d7 801c 	ldr.w	r8, [r7, #28]
 80095b4:	f8d8 4008 	ldr.w	r4, [r8, #8]
 80095b8:	b94c      	cbnz	r4, 80095ce <__pow5mult+0x66>
 80095ba:	f240 2171 	movw	r1, #625	@ 0x271
 80095be:	4638      	mov	r0, r7
 80095c0:	f7ff ff1a 	bl	80093f8 <__i2b>
 80095c4:	2300      	movs	r3, #0
 80095c6:	f8c8 0008 	str.w	r0, [r8, #8]
 80095ca:	4604      	mov	r4, r0
 80095cc:	6003      	str	r3, [r0, #0]
 80095ce:	f04f 0900 	mov.w	r9, #0
 80095d2:	07eb      	lsls	r3, r5, #31
 80095d4:	d50a      	bpl.n	80095ec <__pow5mult+0x84>
 80095d6:	4631      	mov	r1, r6
 80095d8:	4622      	mov	r2, r4
 80095da:	4638      	mov	r0, r7
 80095dc:	f7ff ff22 	bl	8009424 <__multiply>
 80095e0:	4631      	mov	r1, r6
 80095e2:	4680      	mov	r8, r0
 80095e4:	4638      	mov	r0, r7
 80095e6:	f7ff fe53 	bl	8009290 <_Bfree>
 80095ea:	4646      	mov	r6, r8
 80095ec:	106d      	asrs	r5, r5, #1
 80095ee:	d00b      	beq.n	8009608 <__pow5mult+0xa0>
 80095f0:	6820      	ldr	r0, [r4, #0]
 80095f2:	b938      	cbnz	r0, 8009604 <__pow5mult+0x9c>
 80095f4:	4622      	mov	r2, r4
 80095f6:	4621      	mov	r1, r4
 80095f8:	4638      	mov	r0, r7
 80095fa:	f7ff ff13 	bl	8009424 <__multiply>
 80095fe:	6020      	str	r0, [r4, #0]
 8009600:	f8c0 9000 	str.w	r9, [r0]
 8009604:	4604      	mov	r4, r0
 8009606:	e7e4      	b.n	80095d2 <__pow5mult+0x6a>
 8009608:	4630      	mov	r0, r6
 800960a:	e8bd 83f8 	ldmia.w	sp!, {r3, r4, r5, r6, r7, r8, r9, pc}
 800960e:	bf00      	nop
 8009610:	0800a2d8 	.word	0x0800a2d8
 8009614:	0800a147 	.word	0x0800a147
 8009618:	0800a1c7 	.word	0x0800a1c7

0800961c <__lshift>:
 800961c:	e92d 47f0 	stmdb	sp!, {r4, r5, r6, r7, r8, r9, sl, lr}
 8009620:	460c      	mov	r4, r1
 8009622:	6849      	ldr	r1, [r1, #4]
 8009624:	6923      	ldr	r3, [r4, #16]
 8009626:	eb03 1862 	add.w	r8, r3, r2, asr #5
 800962a:	68a3      	ldr	r3, [r4, #8]
 800962c:	4607      	mov	r7, r0
 800962e:	4691      	mov	r9, r2
 8009630:	ea4f 1a62 	mov.w	sl, r2, asr #5
 8009634:	f108 0601 	add.w	r6, r8, #1
 8009638:	42b3      	cmp	r3, r6
 800963a:	db0b      	blt.n	8009654 <__lshift+0x38>
 800963c:	4638      	mov	r0, r7
 800963e:	f7ff fde7 	bl	8009210 <_Balloc>
 8009642:	4605      	mov	r5, r0
 8009644:	b948      	cbnz	r0, 800965a <__lshift+0x3e>
 8009646:	4602      	mov	r2, r0
 8009648:	4b28      	ldr	r3, [pc, #160]	@ (80096ec <__lshift+0xd0>)
 800964a:	4829      	ldr	r0, [pc, #164]	@ (80096f0 <__lshift+0xd4>)
 800964c:	f44f 71ef 	mov.w	r1, #478	@ 0x1de
 8009650:	f000 fa14 	bl	8009a7c <__assert_func>
 8009654:	3101      	adds	r1, #1
 8009656:	005b      	lsls	r3, r3, #1
 8009658:	e7ee      	b.n	8009638 <__lshift+0x1c>
 800965a:	2300      	movs	r3, #0
 800965c:	f100 0114 	add.w	r1, r0, #20
 8009660:	f100 0210 	add.w	r2, r0, #16
 8009664:	4618      	mov	r0, r3
 8009666:	4553      	cmp	r3, sl
 8009668:	db33      	blt.n	80096d2 <__lshift+0xb6>
 800966a:	6920      	ldr	r0, [r4, #16]
 800966c:	ea2a 7aea 	bic.w	sl, sl, sl, asr #31
 8009670:	f104 0314 	add.w	r3, r4, #20
 8009674:	f019 091f 	ands.w	r9, r9, #31
 8009678:	eb01 018a 	add.w	r1, r1, sl, lsl #2
 800967c:	eb03 0c80 	add.w	ip, r3, r0, lsl #2
 8009680:	d02b      	beq.n	80096da <__lshift+0xbe>
 8009682:	f1c9 0e20 	rsb	lr, r9, #32
 8009686:	468a      	mov	sl, r1
 8009688:	2200      	movs	r2, #0
 800968a:	6818      	ldr	r0, [r3, #0]
 800968c:	fa00 f009 	lsl.w	r0, r0, r9
 8009690:	4310      	orrs	r0, r2
 8009692:	f84a 0b04 	str.w	r0, [sl], #4
 8009696:	f853 2b04 	ldr.w	r2, [r3], #4
 800969a:	459c      	cmp	ip, r3
 800969c:	fa22 f20e 	lsr.w	r2, r2, lr
 80096a0:	d8f3      	bhi.n	800968a <__lshift+0x6e>
 80096a2:	ebac 0304 	sub.w	r3, ip, r4
 80096a6:	3b15      	subs	r3, #21
 80096a8:	f023 0303 	bic.w	r3, r3, #3
 80096ac:	3304      	adds	r3, #4
 80096ae:	f104 0015 	add.w	r0, r4, #21
 80096b2:	4560      	cmp	r0, ip
 80096b4:	bf88      	it	hi
 80096b6:	2304      	movhi	r3, #4
 80096b8:	50ca      	str	r2, [r1, r3]
 80096ba:	b10a      	cbz	r2, 80096c0 <__lshift+0xa4>
 80096bc:	f108 0602 	add.w	r6, r8, #2
 80096c0:	3e01      	subs	r6, #1
 80096c2:	4638      	mov	r0, r7
 80096c4:	612e      	str	r6, [r5, #16]
 80096c6:	4621      	mov	r1, r4
 80096c8:	f7ff fde2 	bl	8009290 <_Bfree>
 80096cc:	4628      	mov	r0, r5
 80096ce:	e8bd 87f0 	ldmia.w	sp!, {r4, r5, r6, r7, r8, r9, sl, pc}
 80096d2:	f842 0f04 	str.w	r0, [r2, #4]!
 80096d6:	3301      	adds	r3, #1
 80096d8:	e7c5      	b.n	8009666 <__lshift+0x4a>
 80096da:	3904      	subs	r1, #4
 80096dc:	f853 2b04 	ldr.w	r2, [r3], #4
 80096e0:	f841 2f04 	str.w	r2, [r1, #4]!
 80096e4:	459c      	cmp	ip, r3
 80096e6:	d8f9      	bhi.n	80096dc <__lshift+0xc0>
 80096e8:	e7ea      	b.n	80096c0 <__lshift+0xa4>
 80096ea:	bf00      	nop
 80096ec:	0800a1b6 	.word	0x0800a1b6
 80096f0:	0800a1c7 	.word	0x0800a1c7

080096f4 <__mcmp>:
 80096f4:	690a      	ldr	r2, [r1, #16]
 80096f6:	4603      	mov	r3, r0
 80096f8:	6900      	ldr	r0, [r0, #16]
 80096fa:	1a80      	subs	r0, r0, r2
 80096fc:	b530      	push	{r4, r5, lr}
 80096fe:	d10e      	bne.n	800971e <__mcmp+0x2a>
 8009700:	3314      	adds	r3, #20
 8009702:	3114      	adds	r1, #20
 8009704:	eb03 0482 	add.w	r4, r3, r2, lsl #2
 8009708:	eb01 0182 	add.w	r1, r1, r2, lsl #2
 800970c:	f854 5d04 	ldr.w	r5, [r4, #-4]!
 8009710:	f851 2d04 	ldr.w	r2, [r1, #-4]!
 8009714:	4295      	cmp	r5, r2
 8009716:	d003      	beq.n	8009720 <__mcmp+0x2c>
 8009718:	d205      	bcs.n	8009726 <__mcmp+0x32>
 800971a:	f04f 30ff 	mov.w	r0, #4294967295	@ 0xffffffff
 800971e:	bd30      	pop	{r4, r5, pc}
 8009720:	42a3      	cmp	r3, r4
 8009722:	d3f3      	bcc.n	800970c <__mcmp+0x18>
 8009724:	e7fb      	b.n	800971e <__mcmp+0x2a>
 8009726:	2001      	movs	r0, #1
 8009728:	e7f9      	b.n	800971e <__mcmp+0x2a>
	...

0800972c <__mdiff>:
 800972c:	e92d 4ff7 	stmdb	sp!, {r0, r1, r2, r4, r5, r6, r7, r8, r9, sl, fp, lr}
 8009730:	4689      	mov	r9, r1
 8009732:	4606      	mov	r6, r0
 8009734:	4611      	mov	r1, r2
 8009736:	4648      	mov	r0, r9
 8009738:	4614      	mov	r4, r2
 800973a:	f7ff ffdb 	bl	80096f4 <__mcmp>
 800973e:	1e05      	subs	r5, r0, #0
 8009740:	d112      	bne.n	8009768 <__mdiff+0x3c>
 8009742:	4629      	mov	r1, r5
 8009744:	4630      	mov	r0, r6
 8009746:	f7ff fd63 	bl	8009210 <_Balloc>
 800974a:	4602      	mov	r2, r0
 800974c:	b928      	cbnz	r0, 800975a <__mdiff+0x2e>
 800974e:	4b3f      	ldr	r3, [pc, #252]	@ (800984c <__mdiff+0x120>)
 8009750:	f240 2137 	movw	r1, #567	@ 0x237
 8009754:	483e      	ldr	r0, [pc, #248]	@ (8009850 <__mdiff+0x124>)
 8009756:	f000 f991 	bl	8009a7c <__assert_func>
 800975a:	2301      	movs	r3, #1
 800975c:	e9c0 3504 	strd	r3, r5, [r0, #16]
 8009760:	4610      	mov	r0, r2
 8009762:	b003      	add	sp, #12
 8009764:	e8bd 8ff0 	ldmia.w	sp!, {r4, r5, r6, r7, r8, r9, sl, fp, pc}
 8009768:	bfbc      	itt	lt
 800976a:	464b      	movlt	r3, r9
 800976c:	46a1      	movlt	r9, r4
 800976e:	4630      	mov	r0, r6
 8009770:	f8d9 1004 	ldr.w	r1, [r9, #4]
 8009774:	bfba      	itte	lt
 8009776:	461c      	movlt	r4, r3
 8009778:	2501      	movlt	r5, #1
 800977a:	2500      	movge	r5, #0
 800977c:	f7ff fd48 	bl	8009210 <_Balloc>
 8009780:	4602      	mov	r2, r0
 8009782:	b918      	cbnz	r0, 800978c <__mdiff+0x60>
 8009784:	4b31      	ldr	r3, [pc, #196]	@ (800984c <__mdiff+0x120>)
 8009786:	f240 2145 	movw	r1, #581	@ 0x245
 800978a:	e7e3      	b.n	8009754 <__mdiff+0x28>
 800978c:	f8d9 7010 	ldr.w	r7, [r9, #16]
 8009790:	6926      	ldr	r6, [r4, #16]
 8009792:	60c5      	str	r5, [r0, #12]
 8009794:	f109 0310 	add.w	r3, r9, #16
 8009798:	f109 0514 	add.w	r5, r9, #20
 800979c:	f104 0e14 	add.w	lr, r4, #20
 80097a0:	f100 0b14 	add.w	fp, r0, #20
 80097a4:	eb05 0887 	add.w	r8, r5, r7, lsl #2
 80097a8:	eb0e 0686 	add.w	r6, lr, r6, lsl #2
 80097ac:	9301      	str	r3, [sp, #4]
 80097ae:	46d9      	mov	r9, fp
 80097b0:	f04f 0c00 	mov.w	ip, #0
 80097b4:	9b01      	ldr	r3, [sp, #4]
 80097b6:	f85e 0b04 	ldr.w	r0, [lr], #4
 80097ba:	f853 af04 	ldr.w	sl, [r3, #4]!
 80097be:	9301      	str	r3, [sp, #4]
 80097c0:	fa1f f38a 	uxth.w	r3, sl
 80097c4:	4619      	mov	r1, r3
 80097c6:	b283      	uxth	r3, r0
 80097c8:	1acb      	subs	r3, r1, r3
 80097ca:	0c00      	lsrs	r0, r0, #16
 80097cc:	4463      	add	r3, ip
 80097ce:	ebc0 401a 	rsb	r0, r0, sl, lsr #16
 80097d2:	eb00 4023 	add.w	r0, r0, r3, asr #16
 80097d6:	b29b      	uxth	r3, r3
 80097d8:	ea43 4300 	orr.w	r3, r3, r0, lsl #16
 80097dc:	4576      	cmp	r6, lr
 80097de:	f849 3b04 	str.w	r3, [r9], #4
 80097e2:	ea4f 4c20 	mov.w	ip, r0, asr #16
 80097e6:	d8e5      	bhi.n	80097b4 <__mdiff+0x88>
 80097e8:	1b33      	subs	r3, r6, r4
 80097ea:	3b15      	subs	r3, #21
 80097ec:	f023 0303 	bic.w	r3, r3, #3
 80097f0:	3415      	adds	r4, #21
 80097f2:	3304      	adds	r3, #4
 80097f4:	42a6      	cmp	r6, r4
 80097f6:	bf38      	it	cc
 80097f8:	2304      	movcc	r3, #4
 80097fa:	441d      	add	r5, r3
 80097fc:	445b      	add	r3, fp
 80097fe:	461e      	mov	r6, r3
 8009800:	462c      	mov	r4, r5
 8009802:	4544      	cmp	r4, r8
 8009804:	d30e      	bcc.n	8009824 <__mdiff+0xf8>
 8009806:	f108 0103 	add.w	r1, r8, #3
 800980a:	1b49      	subs	r1, r1, r5
 800980c:	f021 0103 	bic.w	r1, r1, #3
 8009810:	3d03      	subs	r5, #3
 8009812:	45a8      	cmp	r8, r5
 8009814:	bf38      	it	cc
 8009816:	2100      	movcc	r1, #0
 8009818:	440b      	add	r3, r1
 800981a:	f853 1d04 	ldr.w	r1, [r3, #-4]!
 800981e:	b191      	cbz	r1, 8009846 <__mdiff+0x11a>
 8009820:	6117      	str	r7, [r2, #16]
 8009822:	e79d      	b.n	8009760 <__mdiff+0x34>
 8009824:	f854 1b04 	ldr.w	r1, [r4], #4
 8009828:	46e6      	mov	lr, ip
 800982a:	0c08      	lsrs	r0, r1, #16
 800982c:	fa1c fc81 	uxtah	ip, ip, r1
 8009830:	4471      	add	r1, lr
 8009832:	eb00 402c 	add.w	r0, r0, ip, asr #16
 8009836:	b289      	uxth	r1, r1
 8009838:	ea41 4100 	orr.w	r1, r1, r0, lsl #16
 800983c:	f846 1b04 	str.w	r1, [r6], #4
 8009840:	ea4f 4c20 	mov.w	ip, r0, asr #16
 8009844:	e7dd      	b.n	8009802 <__mdiff+0xd6>
 8009846:	3f01      	subs	r7, #1
 8009848:	e7e7      	b.n	800981a <__mdiff+0xee>
 800984a:	bf00      	nop
 800984c:	0800a1b6 	.word	0x0800a1b6
 8009850:	0800a1c7 	.word	0x0800a1c7

08009854 <__d2b>:
 8009854:	e92d 43f7 	stmdb	sp!, {r0, r1, r2, r4, r5, r6, r7, r8, r9, lr}
 8009858:	460f      	mov	r7, r1
 800985a:	2101      	movs	r1, #1
 800985c:	ec59 8b10 	vmov	r8, r9, d0
 8009860:	4616      	mov	r6, r2
 8009862:	f7ff fcd5 	bl	8009210 <_Balloc>
 8009866:	4604      	mov	r4, r0
 8009868:	b930      	cbnz	r0, 8009878 <__d2b+0x24>
 800986a:	4602      	mov	r2, r0
 800986c:	4b23      	ldr	r3, [pc, #140]	@ (80098fc <__d2b+0xa8>)
 800986e:	4824      	ldr	r0, [pc, #144]	@ (8009900 <__d2b+0xac>)
 8009870:	f240 310f 	movw	r1, #783	@ 0x30f
 8009874:	f000 f902 	bl	8009a7c <__assert_func>
 8009878:	f3c9 550a 	ubfx	r5, r9, #20, #11
 800987c:	f3c9 0313 	ubfx	r3, r9, #0, #20
 8009880:	b10d      	cbz	r5, 8009886 <__d2b+0x32>
 8009882:	f443 1380 	orr.w	r3, r3, #1048576	@ 0x100000
 8009886:	9301      	str	r3, [sp, #4]
 8009888:	f1b8 0300 	subs.w	r3, r8, #0
 800988c:	d023      	beq.n	80098d6 <__d2b+0x82>
 800988e:	4668      	mov	r0, sp
 8009890:	9300      	str	r3, [sp, #0]
 8009892:	f7ff fd84 	bl	800939e <__lo0bits>
 8009896:	e9dd 1200 	ldrd	r1, r2, [sp]
 800989a:	b1d0      	cbz	r0, 80098d2 <__d2b+0x7e>
 800989c:	f1c0 0320 	rsb	r3, r0, #32
 80098a0:	fa02 f303 	lsl.w	r3, r2, r3
 80098a4:	430b      	orrs	r3, r1
 80098a6:	40c2      	lsrs	r2, r0
 80098a8:	6163      	str	r3, [r4, #20]
 80098aa:	9201      	str	r2, [sp, #4]
 80098ac:	9b01      	ldr	r3, [sp, #4]
 80098ae:	61a3      	str	r3, [r4, #24]
 80098b0:	2b00      	cmp	r3, #0
 80098b2:	bf0c      	ite	eq
 80098b4:	2201      	moveq	r2, #1
 80098b6:	2202      	movne	r2, #2
 80098b8:	6122      	str	r2, [r4, #16]
 80098ba:	b1a5      	cbz	r5, 80098e6 <__d2b+0x92>
 80098bc:	f2a5 4533 	subw	r5, r5, #1075	@ 0x433
 80098c0:	4405      	add	r5, r0
 80098c2:	603d      	str	r5, [r7, #0]
 80098c4:	f1c0 0035 	rsb	r0, r0, #53	@ 0x35
 80098c8:	6030      	str	r0, [r6, #0]
 80098ca:	4620      	mov	r0, r4
 80098cc:	b003      	add	sp, #12
 80098ce:	e8bd 83f0 	ldmia.w	sp!, {r4, r5, r6, r7, r8, r9, pc}
 80098d2:	6161      	str	r1, [r4, #20]
 80098d4:	e7ea      	b.n	80098ac <__d2b+0x58>
 80098d6:	a801      	add	r0, sp, #4
 80098d8:	f7ff fd61 	bl	800939e <__lo0bits>
 80098dc:	9b01      	ldr	r3, [sp, #4]
 80098de:	6163      	str	r3, [r4, #20]
 80098e0:	3020      	adds	r0, #32
 80098e2:	2201      	movs	r2, #1
 80098e4:	e7e8      	b.n	80098b8 <__d2b+0x64>
 80098e6:	eb04 0382 	add.w	r3, r4, r2, lsl #2
 80098ea:	f2a0 4032 	subw	r0, r0, #1074	@ 0x432
 80098ee:	6038      	str	r0, [r7, #0]
 80098f0:	6918      	ldr	r0, [r3, #16]
 80098f2:	f7ff fd35 	bl	8009360 <__hi0bits>
 80098f6:	ebc0 1042 	rsb	r0, r0, r2, lsl #5
 80098fa:	e7e5      	b.n	80098c8 <__d2b+0x74>
 80098fc:	0800a1b6 	.word	0x0800a1b6
 8009900:	0800a1c7 	.word	0x0800a1c7

08009904 <__sflush_r>:
 8009904:	f9b1 200c 	ldrsh.w	r2, [r1, #12]
 8009908:	e92d 41f0 	stmdb	sp!, {r4, r5, r6, r7, r8, lr}
 800990c:	0716      	lsls	r6, r2, #28
 800990e:	4605      	mov	r5, r0
 8009910:	460c      	mov	r4, r1
 8009912:	d454      	bmi.n	80099be <__sflush_r+0xba>
 8009914:	684b      	ldr	r3, [r1, #4]
 8009916:	2b00      	cmp	r3, #0
 8009918:	dc02      	bgt.n	8009920 <__sflush_r+0x1c>
 800991a:	6c0b      	ldr	r3, [r1, #64]	@ 0x40
 800991c:	2b00      	cmp	r3, #0
 800991e:	dd48      	ble.n	80099b2 <__sflush_r+0xae>
 8009920:	6ae6      	ldr	r6, [r4, #44]	@ 0x2c
 8009922:	2e00      	cmp	r6, #0
 8009924:	d045      	beq.n	80099b2 <__sflush_r+0xae>
 8009926:	2300      	movs	r3, #0
 8009928:	f412 5280 	ands.w	r2, r2, #4096	@ 0x1000
 800992c:	682f      	ldr	r7, [r5, #0]
 800992e:	6a21      	ldr	r1, [r4, #32]
 8009930:	602b      	str	r3, [r5, #0]
 8009932:	d030      	beq.n	8009996 <__sflush_r+0x92>
 8009934:	6d62      	ldr	r2, [r4, #84]	@ 0x54
 8009936:	89a3      	ldrh	r3, [r4, #12]
 8009938:	0759      	lsls	r1, r3, #29
 800993a:	d505      	bpl.n	8009948 <__sflush_r+0x44>
 800993c:	6863      	ldr	r3, [r4, #4]
 800993e:	1ad2      	subs	r2, r2, r3
 8009940:	6b63      	ldr	r3, [r4, #52]	@ 0x34
 8009942:	b10b      	cbz	r3, 8009948 <__sflush_r+0x44>
 8009944:	6c23      	ldr	r3, [r4, #64]	@ 0x40
 8009946:	1ad2      	subs	r2, r2, r3
 8009948:	2300      	movs	r3, #0
 800994a:	6ae6      	ldr	r6, [r4, #44]	@ 0x2c
 800994c:	6a21      	ldr	r1, [r4, #32]
 800994e:	4628      	mov	r0, r5
 8009950:	47b0      	blx	r6
 8009952:	1c43      	adds	r3, r0, #1
 8009954:	89a3      	ldrh	r3, [r4, #12]
 8009956:	d106      	bne.n	8009966 <__sflush_r+0x62>
 8009958:	6829      	ldr	r1, [r5, #0]
 800995a:	291d      	cmp	r1, #29
 800995c:	d82b      	bhi.n	80099b6 <__sflush_r+0xb2>
 800995e:	4a2a      	ldr	r2, [pc, #168]	@ (8009a08 <__sflush_r+0x104>)
 8009960:	40ca      	lsrs	r2, r1
 8009962:	07d6      	lsls	r6, r2, #31
 8009964:	d527      	bpl.n	80099b6 <__sflush_r+0xb2>
 8009966:	2200      	movs	r2, #0
 8009968:	6062      	str	r2, [r4, #4]
 800996a:	04d9      	lsls	r1, r3, #19
 800996c:	6922      	ldr	r2, [r4, #16]
 800996e:	6022      	str	r2, [r4, #0]
 8009970:	d504      	bpl.n	800997c <__sflush_r+0x78>
 8009972:	1c42      	adds	r2, r0, #1
 8009974:	d101      	bne.n	800997a <__sflush_r+0x76>
 8009976:	682b      	ldr	r3, [r5, #0]
 8009978:	b903      	cbnz	r3, 800997c <__sflush_r+0x78>
 800997a:	6560      	str	r0, [r4, #84]	@ 0x54
 800997c:	6b61      	ldr	r1, [r4, #52]	@ 0x34
 800997e:	602f      	str	r7, [r5, #0]
 8009980:	b1b9      	cbz	r1, 80099b2 <__sflush_r+0xae>
 8009982:	f104 0344 	add.w	r3, r4, #68	@ 0x44
 8009986:	4299      	cmp	r1, r3
 8009988:	d002      	beq.n	8009990 <__sflush_r+0x8c>
 800998a:	4628      	mov	r0, r5
 800998c:	f7ff fb40 	bl	8009010 <_free_r>
 8009990:	2300      	movs	r3, #0
 8009992:	6363      	str	r3, [r4, #52]	@ 0x34
 8009994:	e00d      	b.n	80099b2 <__sflush_r+0xae>
 8009996:	2301      	movs	r3, #1
 8009998:	4628      	mov	r0, r5
 800999a:	47b0      	blx	r6
 800999c:	4602      	mov	r2, r0
 800999e:	1c50      	adds	r0, r2, #1
 80099a0:	d1c9      	bne.n	8009936 <__sflush_r+0x32>
 80099a2:	682b      	ldr	r3, [r5, #0]
 80099a4:	2b00      	cmp	r3, #0
 80099a6:	d0c6      	beq.n	8009936 <__sflush_r+0x32>
 80099a8:	2b1d      	cmp	r3, #29
 80099aa:	d001      	beq.n	80099b0 <__sflush_r+0xac>
 80099ac:	2b16      	cmp	r3, #22
 80099ae:	d11e      	bne.n	80099ee <__sflush_r+0xea>
 80099b0:	602f      	str	r7, [r5, #0]
 80099b2:	2000      	movs	r0, #0
 80099b4:	e022      	b.n	80099fc <__sflush_r+0xf8>
 80099b6:	f043 0340 	orr.w	r3, r3, #64	@ 0x40
 80099ba:	b21b      	sxth	r3, r3
 80099bc:	e01b      	b.n	80099f6 <__sflush_r+0xf2>
 80099be:	690f      	ldr	r7, [r1, #16]
 80099c0:	2f00      	cmp	r7, #0
 80099c2:	d0f6      	beq.n	80099b2 <__sflush_r+0xae>
 80099c4:	0793      	lsls	r3, r2, #30
 80099c6:	680e      	ldr	r6, [r1, #0]
 80099c8:	bf08      	it	eq
 80099ca:	694b      	ldreq	r3, [r1, #20]
 80099cc:	600f      	str	r7, [r1, #0]
 80099ce:	bf18      	it	ne
 80099d0:	2300      	movne	r3, #0
 80099d2:	eba6 0807 	sub.w	r8, r6, r7
 80099d6:	608b      	str	r3, [r1, #8]
 80099d8:	f1b8 0f00 	cmp.w	r8, #0
 80099dc:	dde9      	ble.n	80099b2 <__sflush_r+0xae>
 80099de:	6a21      	ldr	r1, [r4, #32]
 80099e0:	6aa6      	ldr	r6, [r4, #40]	@ 0x28
 80099e2:	4643      	mov	r3, r8
 80099e4:	463a      	mov	r2, r7
 80099e6:	4628      	mov	r0, r5
 80099e8:	47b0      	blx	r6
 80099ea:	2800      	cmp	r0, #0
 80099ec:	dc08      	bgt.n	8009a00 <__sflush_r+0xfc>
 80099ee:	f9b4 300c 	ldrsh.w	r3, [r4, #12]
 80099f2:	f043 0340 	orr.w	r3, r3, #64	@ 0x40
 80099f6:	81a3      	strh	r3, [r4, #12]
 80099f8:	f04f 30ff 	mov.w	r0, #4294967295	@ 0xffffffff
 80099fc:	e8bd 81f0 	ldmia.w	sp!, {r4, r5, r6, r7, r8, pc}
 8009a00:	4407      	add	r7, r0
 8009a02:	eba8 0800 	sub.w	r8, r8, r0
 8009a06:	e7e7      	b.n	80099d8 <__sflush_r+0xd4>
 8009a08:	20400001 	.word	0x20400001

08009a0c <_fflush_r>:
 8009a0c:	b538      	push	{r3, r4, r5, lr}
 8009a0e:	690b      	ldr	r3, [r1, #16]
 8009a10:	4605      	mov	r5, r0
 8009a12:	460c      	mov	r4, r1
 8009a14:	b913      	cbnz	r3, 8009a1c <_fflush_r+0x10>
 8009a16:	2500      	movs	r5, #0
 8009a18:	4628      	mov	r0, r5
 8009a1a:	bd38      	pop	{r3, r4, r5, pc}
 8009a1c:	b118      	cbz	r0, 8009a26 <_fflush_r+0x1a>
 8009a1e:	6a03      	ldr	r3, [r0, #32]
 8009a20:	b90b      	cbnz	r3, 8009a26 <_fflush_r+0x1a>
 8009a22:	f7fe fb8d 	bl	8008140 <__sinit>
 8009a26:	f9b4 300c 	ldrsh.w	r3, [r4, #12]
 8009a2a:	2b00      	cmp	r3, #0
 8009a2c:	d0f3      	beq.n	8009a16 <_fflush_r+0xa>
 8009a2e:	6e62      	ldr	r2, [r4, #100]	@ 0x64
 8009a30:	07d0      	lsls	r0, r2, #31
 8009a32:	d404      	bmi.n	8009a3e <_fflush_r+0x32>
 8009a34:	0599      	lsls	r1, r3, #22
 8009a36:	d402      	bmi.n	8009a3e <_fflush_r+0x32>
 8009a38:	6da0      	ldr	r0, [r4, #88]	@ 0x58
 8009a3a:	f7fe fc78 	bl	800832e <__retarget_lock_acquire_recursive>
 8009a3e:	4628      	mov	r0, r5
 8009a40:	4621      	mov	r1, r4
 8009a42:	f7ff ff5f 	bl	8009904 <__sflush_r>
 8009a46:	6e63      	ldr	r3, [r4, #100]	@ 0x64
 8009a48:	07da      	lsls	r2, r3, #31
 8009a4a:	4605      	mov	r5, r0
 8009a4c:	d4e4      	bmi.n	8009a18 <_fflush_r+0xc>
 8009a4e:	89a3      	ldrh	r3, [r4, #12]
 8009a50:	059b      	lsls	r3, r3, #22
 8009a52:	d4e1      	bmi.n	8009a18 <_fflush_r+0xc>
 8009a54:	6da0      	ldr	r0, [r4, #88]	@ 0x58
 8009a56:	f7fe fc6b 	bl	8008330 <__retarget_lock_release_recursive>
 8009a5a:	e7dd      	b.n	8009a18 <_fflush_r+0xc>

08009a5c <_sbrk_r>:
 8009a5c:	b538      	push	{r3, r4, r5, lr}
 8009a5e:	4d06      	ldr	r5, [pc, #24]	@ (8009a78 <_sbrk_r+0x1c>)
 8009a60:	2300      	movs	r3, #0
 8009a62:	4604      	mov	r4, r0
 8009a64:	4608      	mov	r0, r1
 8009a66:	602b      	str	r3, [r5, #0]
 8009a68:	f7f8 fe54 	bl	8002714 <_sbrk>
 8009a6c:	1c43      	adds	r3, r0, #1
 8009a6e:	d102      	bne.n	8009a76 <_sbrk_r+0x1a>
 8009a70:	682b      	ldr	r3, [r5, #0]
 8009a72:	b103      	cbz	r3, 8009a76 <_sbrk_r+0x1a>
 8009a74:	6023      	str	r3, [r4, #0]
 8009a76:	bd38      	pop	{r3, r4, r5, pc}
 8009a78:	200024b8 	.word	0x200024b8

08009a7c <__assert_func>:
 8009a7c:	b51f      	push	{r0, r1, r2, r3, r4, lr}
 8009a7e:	4614      	mov	r4, r2
 8009a80:	461a      	mov	r2, r3
 8009a82:	4b09      	ldr	r3, [pc, #36]	@ (8009aa8 <__assert_func+0x2c>)
 8009a84:	681b      	ldr	r3, [r3, #0]
 8009a86:	4605      	mov	r5, r0
 8009a88:	68d8      	ldr	r0, [r3, #12]
 8009a8a:	b14c      	cbz	r4, 8009aa0 <__assert_func+0x24>
 8009a8c:	4b07      	ldr	r3, [pc, #28]	@ (8009aac <__assert_func+0x30>)
 8009a8e:	9100      	str	r1, [sp, #0]
 8009a90:	e9cd 3401 	strd	r3, r4, [sp, #4]
 8009a94:	4906      	ldr	r1, [pc, #24]	@ (8009ab0 <__assert_func+0x34>)
 8009a96:	462b      	mov	r3, r5
 8009a98:	f000 f842 	bl	8009b20 <fiprintf>
 8009a9c:	f000 f852 	bl	8009b44 <abort>
 8009aa0:	4b04      	ldr	r3, [pc, #16]	@ (8009ab4 <__assert_func+0x38>)
 8009aa2:	461c      	mov	r4, r3
 8009aa4:	e7f3      	b.n	8009a8e <__assert_func+0x12>
 8009aa6:	bf00      	nop
 8009aa8:	200001d4 	.word	0x200001d4
 8009aac:	0800a22a 	.word	0x0800a22a
 8009ab0:	0800a237 	.word	0x0800a237
 8009ab4:	0800a0c3 	.word	0x0800a0c3

08009ab8 <_calloc_r>:
 8009ab8:	b570      	push	{r4, r5, r6, lr}
 8009aba:	fba1 5402 	umull	r5, r4, r1, r2
 8009abe:	b934      	cbnz	r4, 8009ace <_calloc_r+0x16>
 8009ac0:	4629      	mov	r1, r5
 8009ac2:	f7ff fb19 	bl	80090f8 <_malloc_r>
 8009ac6:	4606      	mov	r6, r0
 8009ac8:	b928      	cbnz	r0, 8009ad6 <_calloc_r+0x1e>
 8009aca:	4630      	mov	r0, r6
 8009acc:	bd70      	pop	{r4, r5, r6, pc}
 8009ace:	220c      	movs	r2, #12
 8009ad0:	6002      	str	r2, [r0, #0]
 8009ad2:	2600      	movs	r6, #0
 8009ad4:	e7f9      	b.n	8009aca <_calloc_r+0x12>
 8009ad6:	462a      	mov	r2, r5
 8009ad8:	4621      	mov	r1, r4
 8009ada:	f7fe fbaa 	bl	8008232 <memset>
 8009ade:	e7f4      	b.n	8009aca <_calloc_r+0x12>

08009ae0 <__ascii_mbtowc>:
 8009ae0:	b082      	sub	sp, #8
 8009ae2:	b901      	cbnz	r1, 8009ae6 <__ascii_mbtowc+0x6>
 8009ae4:	a901      	add	r1, sp, #4
 8009ae6:	b142      	cbz	r2, 8009afa <__ascii_mbtowc+0x1a>
 8009ae8:	b14b      	cbz	r3, 8009afe <__ascii_mbtowc+0x1e>
 8009aea:	7813      	ldrb	r3, [r2, #0]
 8009aec:	600b      	str	r3, [r1, #0]
 8009aee:	7812      	ldrb	r2, [r2, #0]
 8009af0:	1e10      	subs	r0, r2, #0
 8009af2:	bf18      	it	ne
 8009af4:	2001      	movne	r0, #1
 8009af6:	b002      	add	sp, #8
 8009af8:	4770      	bx	lr
 8009afa:	4610      	mov	r0, r2
 8009afc:	e7fb      	b.n	8009af6 <__ascii_mbtowc+0x16>
 8009afe:	f06f 0001 	mvn.w	r0, #1
 8009b02:	e7f8      	b.n	8009af6 <__ascii_mbtowc+0x16>

08009b04 <__ascii_wctomb>:
 8009b04:	4603      	mov	r3, r0
 8009b06:	4608      	mov	r0, r1
 8009b08:	b141      	cbz	r1, 8009b1c <__ascii_wctomb+0x18>
 8009b0a:	2aff      	cmp	r2, #255	@ 0xff
 8009b0c:	d904      	bls.n	8009b18 <__ascii_wctomb+0x14>
 8009b0e:	228a      	movs	r2, #138	@ 0x8a
 8009b10:	601a      	str	r2, [r3, #0]
 8009b12:	f04f 30ff 	mov.w	r0, #4294967295	@ 0xffffffff
 8009b16:	4770      	bx	lr
 8009b18:	700a      	strb	r2, [r1, #0]
 8009b1a:	2001      	movs	r0, #1
 8009b1c:	4770      	bx	lr
	...

08009b20 <fiprintf>:
 8009b20:	b40e      	push	{r1, r2, r3}
 8009b22:	b503      	push	{r0, r1, lr}
 8009b24:	4601      	mov	r1, r0
 8009b26:	ab03      	add	r3, sp, #12
 8009b28:	4805      	ldr	r0, [pc, #20]	@ (8009b40 <fiprintf+0x20>)
 8009b2a:	f853 2b04 	ldr.w	r2, [r3], #4
 8009b2e:	6800      	ldr	r0, [r0, #0]
 8009b30:	9301      	str	r3, [sp, #4]
 8009b32:	f000 f837 	bl	8009ba4 <_vfiprintf_r>
 8009b36:	b002      	add	sp, #8
 8009b38:	f85d eb04 	ldr.w	lr, [sp], #4
 8009b3c:	b003      	add	sp, #12
 8009b3e:	4770      	bx	lr
 8009b40:	200001d4 	.word	0x200001d4

08009b44 <abort>:
 8009b44:	b508      	push	{r3, lr}
 8009b46:	2006      	movs	r0, #6
 8009b48:	f000 fa00 	bl	8009f4c <raise>
 8009b4c:	2001      	movs	r0, #1
 8009b4e:	f7f8 fdb3 	bl	80026b8 <_exit>

08009b52 <__sfputc_r>:
 8009b52:	6893      	ldr	r3, [r2, #8]
 8009b54:	3b01      	subs	r3, #1
 8009b56:	2b00      	cmp	r3, #0
 8009b58:	b410      	push	{r4}
 8009b5a:	6093      	str	r3, [r2, #8]
 8009b5c:	da08      	bge.n	8009b70 <__sfputc_r+0x1e>
 8009b5e:	6994      	ldr	r4, [r2, #24]
 8009b60:	42a3      	cmp	r3, r4
 8009b62:	db01      	blt.n	8009b68 <__sfputc_r+0x16>
 8009b64:	290a      	cmp	r1, #10
 8009b66:	d103      	bne.n	8009b70 <__sfputc_r+0x1e>
 8009b68:	f85d 4b04 	ldr.w	r4, [sp], #4
 8009b6c:	f000 b932 	b.w	8009dd4 <__swbuf_r>
 8009b70:	6813      	ldr	r3, [r2, #0]
 8009b72:	1c58      	adds	r0, r3, #1
 8009b74:	6010      	str	r0, [r2, #0]
 8009b76:	7019      	strb	r1, [r3, #0]
 8009b78:	4608      	mov	r0, r1
 8009b7a:	f85d 4b04 	ldr.w	r4, [sp], #4
 8009b7e:	4770      	bx	lr

08009b80 <__sfputs_r>:
 8009b80:	b5f8      	push	{r3, r4, r5, r6, r7, lr}
 8009b82:	4606      	mov	r6, r0
 8009b84:	460f      	mov	r7, r1
 8009b86:	4614      	mov	r4, r2
 8009b88:	18d5      	adds	r5, r2, r3
 8009b8a:	42ac      	cmp	r4, r5
 8009b8c:	d101      	bne.n	8009b92 <__sfputs_r+0x12>
 8009b8e:	2000      	movs	r0, #0
 8009b90:	e007      	b.n	8009ba2 <__sfputs_r+0x22>
 8009b92:	f814 1b01 	ldrb.w	r1, [r4], #1
 8009b96:	463a      	mov	r2, r7
 8009b98:	4630      	mov	r0, r6
 8009b9a:	f7ff ffda 	bl	8009b52 <__sfputc_r>
 8009b9e:	1c43      	adds	r3, r0, #1
 8009ba0:	d1f3      	bne.n	8009b8a <__sfputs_r+0xa>
 8009ba2:	bdf8      	pop	{r3, r4, r5, r6, r7, pc}

08009ba4 <_vfiprintf_r>:
 8009ba4:	e92d 4ff0 	stmdb	sp!, {r4, r5, r6, r7, r8, r9, sl, fp, lr}
 8009ba8:	460d      	mov	r5, r1
 8009baa:	b09d      	sub	sp, #116	@ 0x74
 8009bac:	4614      	mov	r4, r2
 8009bae:	4698      	mov	r8, r3
 8009bb0:	4606      	mov	r6, r0
 8009bb2:	b118      	cbz	r0, 8009bbc <_vfiprintf_r+0x18>
 8009bb4:	6a03      	ldr	r3, [r0, #32]
 8009bb6:	b90b      	cbnz	r3, 8009bbc <_vfiprintf_r+0x18>
 8009bb8:	f7fe fac2 	bl	8008140 <__sinit>
 8009bbc:	6e6b      	ldr	r3, [r5, #100]	@ 0x64
 8009bbe:	07d9      	lsls	r1, r3, #31
 8009bc0:	d405      	bmi.n	8009bce <_vfiprintf_r+0x2a>
 8009bc2:	89ab      	ldrh	r3, [r5, #12]
 8009bc4:	059a      	lsls	r2, r3, #22
 8009bc6:	d402      	bmi.n	8009bce <_vfiprintf_r+0x2a>
 8009bc8:	6da8      	ldr	r0, [r5, #88]	@ 0x58
 8009bca:	f7fe fbb0 	bl	800832e <__retarget_lock_acquire_recursive>
 8009bce:	89ab      	ldrh	r3, [r5, #12]
 8009bd0:	071b      	lsls	r3, r3, #28
 8009bd2:	d501      	bpl.n	8009bd8 <_vfiprintf_r+0x34>
 8009bd4:	692b      	ldr	r3, [r5, #16]
 8009bd6:	b99b      	cbnz	r3, 8009c00 <_vfiprintf_r+0x5c>
 8009bd8:	4629      	mov	r1, r5
 8009bda:	4630      	mov	r0, r6
 8009bdc:	f000 f938 	bl	8009e50 <__swsetup_r>
 8009be0:	b170      	cbz	r0, 8009c00 <_vfiprintf_r+0x5c>
 8009be2:	6e6b      	ldr	r3, [r5, #100]	@ 0x64
 8009be4:	07dc      	lsls	r4, r3, #31
 8009be6:	d504      	bpl.n	8009bf2 <_vfiprintf_r+0x4e>
 8009be8:	f04f 30ff 	mov.w	r0, #4294967295	@ 0xffffffff
 8009bec:	b01d      	add	sp, #116	@ 0x74
 8009bee:	e8bd 8ff0 	ldmia.w	sp!, {r4, r5, r6, r7, r8, r9, sl, fp, pc}
 8009bf2:	89ab      	ldrh	r3, [r5, #12]
 8009bf4:	0598      	lsls	r0, r3, #22
 8009bf6:	d4f7      	bmi.n	8009be8 <_vfiprintf_r+0x44>
 8009bf8:	6da8      	ldr	r0, [r5, #88]	@ 0x58
 8009bfa:	f7fe fb99 	bl	8008330 <__retarget_lock_release_recursive>
 8009bfe:	e7f3      	b.n	8009be8 <_vfiprintf_r+0x44>
 8009c00:	2300      	movs	r3, #0
 8009c02:	9309      	str	r3, [sp, #36]	@ 0x24
 8009c04:	2320      	movs	r3, #32
 8009c06:	f88d 3029 	strb.w	r3, [sp, #41]	@ 0x29
 8009c0a:	f8cd 800c 	str.w	r8, [sp, #12]
 8009c0e:	2330      	movs	r3, #48	@ 0x30
 8009c10:	f8df 81ac 	ldr.w	r8, [pc, #428]	@ 8009dc0 <_vfiprintf_r+0x21c>
 8009c14:	f88d 302a 	strb.w	r3, [sp, #42]	@ 0x2a
 8009c18:	f04f 0901 	mov.w	r9, #1
 8009c1c:	4623      	mov	r3, r4
 8009c1e:	469a      	mov	sl, r3
 8009c20:	f813 2b01 	ldrb.w	r2, [r3], #1
 8009c24:	b10a      	cbz	r2, 8009c2a <_vfiprintf_r+0x86>
 8009c26:	2a25      	cmp	r2, #37	@ 0x25
 8009c28:	d1f9      	bne.n	8009c1e <_vfiprintf_r+0x7a>
 8009c2a:	ebba 0b04 	subs.w	fp, sl, r4
 8009c2e:	d00b      	beq.n	8009c48 <_vfiprintf_r+0xa4>
 8009c30:	465b      	mov	r3, fp
 8009c32:	4622      	mov	r2, r4
 8009c34:	4629      	mov	r1, r5
 8009c36:	4630      	mov	r0, r6
 8009c38:	f7ff ffa2 	bl	8009b80 <__sfputs_r>
 8009c3c:	3001      	adds	r0, #1
 8009c3e:	f000 80a7 	beq.w	8009d90 <_vfiprintf_r+0x1ec>
 8009c42:	9a09      	ldr	r2, [sp, #36]	@ 0x24
 8009c44:	445a      	add	r2, fp
 8009c46:	9209      	str	r2, [sp, #36]	@ 0x24
 8009c48:	f89a 3000 	ldrb.w	r3, [sl]
 8009c4c:	2b00      	cmp	r3, #0
 8009c4e:	f000 809f 	beq.w	8009d90 <_vfiprintf_r+0x1ec>
 8009c52:	2300      	movs	r3, #0
 8009c54:	f04f 32ff 	mov.w	r2, #4294967295	@ 0xffffffff
 8009c58:	e9cd 2305 	strd	r2, r3, [sp, #20]
 8009c5c:	f10a 0a01 	add.w	sl, sl, #1
 8009c60:	9304      	str	r3, [sp, #16]
 8009c62:	9307      	str	r3, [sp, #28]
 8009c64:	f88d 3053 	strb.w	r3, [sp, #83]	@ 0x53
 8009c68:	931a      	str	r3, [sp, #104]	@ 0x68
 8009c6a:	4654      	mov	r4, sl
 8009c6c:	2205      	movs	r2, #5
 8009c6e:	f814 1b01 	ldrb.w	r1, [r4], #1
 8009c72:	4853      	ldr	r0, [pc, #332]	@ (8009dc0 <_vfiprintf_r+0x21c>)
 8009c74:	f7f6 fad4 	bl	8000220 <memchr>
 8009c78:	9a04      	ldr	r2, [sp, #16]
 8009c7a:	b9d8      	cbnz	r0, 8009cb4 <_vfiprintf_r+0x110>
 8009c7c:	06d1      	lsls	r1, r2, #27
 8009c7e:	bf44      	itt	mi
 8009c80:	2320      	movmi	r3, #32
 8009c82:	f88d 3053 	strbmi.w	r3, [sp, #83]	@ 0x53
 8009c86:	0713      	lsls	r3, r2, #28
 8009c88:	bf44      	itt	mi
 8009c8a:	232b      	movmi	r3, #43	@ 0x2b
 8009c8c:	f88d 3053 	strbmi.w	r3, [sp, #83]	@ 0x53
 8009c90:	f89a 3000 	ldrb.w	r3, [sl]
 8009c94:	2b2a      	cmp	r3, #42	@ 0x2a
 8009c96:	d015      	beq.n	8009cc4 <_vfiprintf_r+0x120>
 8009c98:	9a07      	ldr	r2, [sp, #28]
 8009c9a:	4654      	mov	r4, sl
 8009c9c:	2000      	movs	r0, #0
 8009c9e:	f04f 0c0a 	mov.w	ip, #10
 8009ca2:	4621      	mov	r1, r4
 8009ca4:	f811 3b01 	ldrb.w	r3, [r1], #1
 8009ca8:	3b30      	subs	r3, #48	@ 0x30
 8009caa:	2b09      	cmp	r3, #9
 8009cac:	d94b      	bls.n	8009d46 <_vfiprintf_r+0x1a2>
 8009cae:	b1b0      	cbz	r0, 8009cde <_vfiprintf_r+0x13a>
 8009cb0:	9207      	str	r2, [sp, #28]
 8009cb2:	e014      	b.n	8009cde <_vfiprintf_r+0x13a>
 8009cb4:	eba0 0308 	sub.w	r3, r0, r8
 8009cb8:	fa09 f303 	lsl.w	r3, r9, r3
 8009cbc:	4313      	orrs	r3, r2
 8009cbe:	9304      	str	r3, [sp, #16]
 8009cc0:	46a2      	mov	sl, r4
 8009cc2:	e7d2      	b.n	8009c6a <_vfiprintf_r+0xc6>
 8009cc4:	9b03      	ldr	r3, [sp, #12]
 8009cc6:	1d19      	adds	r1, r3, #4
 8009cc8:	681b      	ldr	r3, [r3, #0]
 8009cca:	9103      	str	r1, [sp, #12]
 8009ccc:	2b00      	cmp	r3, #0
 8009cce:	bfbb      	ittet	lt
 8009cd0:	425b      	neglt	r3, r3
 8009cd2:	f042 0202 	orrlt.w	r2, r2, #2
 8009cd6:	9307      	strge	r3, [sp, #28]
 8009cd8:	9307      	strlt	r3, [sp, #28]
 8009cda:	bfb8      	it	lt
 8009cdc:	9204      	strlt	r2, [sp, #16]
 8009cde:	7823      	ldrb	r3, [r4, #0]
 8009ce0:	2b2e      	cmp	r3, #46	@ 0x2e
 8009ce2:	d10a      	bne.n	8009cfa <_vfiprintf_r+0x156>
 8009ce4:	7863      	ldrb	r3, [r4, #1]
 8009ce6:	2b2a      	cmp	r3, #42	@ 0x2a
 8009ce8:	d132      	bne.n	8009d50 <_vfiprintf_r+0x1ac>
 8009cea:	9b03      	ldr	r3, [sp, #12]
 8009cec:	1d1a      	adds	r2, r3, #4
 8009cee:	681b      	ldr	r3, [r3, #0]
 8009cf0:	9203      	str	r2, [sp, #12]
 8009cf2:	ea43 73e3 	orr.w	r3, r3, r3, asr #31
 8009cf6:	3402      	adds	r4, #2
 8009cf8:	9305      	str	r3, [sp, #20]
 8009cfa:	f8df a0d4 	ldr.w	sl, [pc, #212]	@ 8009dd0 <_vfiprintf_r+0x22c>
 8009cfe:	7821      	ldrb	r1, [r4, #0]
 8009d00:	2203      	movs	r2, #3
 8009d02:	4650      	mov	r0, sl
 8009d04:	f7f6 fa8c 	bl	8000220 <memchr>
 8009d08:	b138      	cbz	r0, 8009d1a <_vfiprintf_r+0x176>
 8009d0a:	9b04      	ldr	r3, [sp, #16]
 8009d0c:	eba0 000a 	sub.w	r0, r0, sl
 8009d10:	2240      	movs	r2, #64	@ 0x40
 8009d12:	4082      	lsls	r2, r0
 8009d14:	4313      	orrs	r3, r2
 8009d16:	3401      	adds	r4, #1
 8009d18:	9304      	str	r3, [sp, #16]
 8009d1a:	f814 1b01 	ldrb.w	r1, [r4], #1
 8009d1e:	4829      	ldr	r0, [pc, #164]	@ (8009dc4 <_vfiprintf_r+0x220>)
 8009d20:	f88d 1028 	strb.w	r1, [sp, #40]	@ 0x28
 8009d24:	2206      	movs	r2, #6
 8009d26:	f7f6 fa7b 	bl	8000220 <memchr>
 8009d2a:	2800      	cmp	r0, #0
 8009d2c:	d03f      	beq.n	8009dae <_vfiprintf_r+0x20a>
 8009d2e:	4b26      	ldr	r3, [pc, #152]	@ (8009dc8 <_vfiprintf_r+0x224>)
 8009d30:	bb1b      	cbnz	r3, 8009d7a <_vfiprintf_r+0x1d6>
 8009d32:	9b03      	ldr	r3, [sp, #12]
 8009d34:	3307      	adds	r3, #7
 8009d36:	f023 0307 	bic.w	r3, r3, #7
 8009d3a:	3308      	adds	r3, #8
 8009d3c:	9303      	str	r3, [sp, #12]
 8009d3e:	9b09      	ldr	r3, [sp, #36]	@ 0x24
 8009d40:	443b      	add	r3, r7
 8009d42:	9309      	str	r3, [sp, #36]	@ 0x24
 8009d44:	e76a      	b.n	8009c1c <_vfiprintf_r+0x78>
 8009d46:	fb0c 3202 	mla	r2, ip, r2, r3
 8009d4a:	460c      	mov	r4, r1
 8009d4c:	2001      	movs	r0, #1
 8009d4e:	e7a8      	b.n	8009ca2 <_vfiprintf_r+0xfe>
 8009d50:	2300      	movs	r3, #0
 8009d52:	3401      	adds	r4, #1
 8009d54:	9305      	str	r3, [sp, #20]
 8009d56:	4619      	mov	r1, r3
 8009d58:	f04f 0c0a 	mov.w	ip, #10
 8009d5c:	4620      	mov	r0, r4
 8009d5e:	f810 2b01 	ldrb.w	r2, [r0], #1
 8009d62:	3a30      	subs	r2, #48	@ 0x30
 8009d64:	2a09      	cmp	r2, #9
 8009d66:	d903      	bls.n	8009d70 <_vfiprintf_r+0x1cc>
 8009d68:	2b00      	cmp	r3, #0
 8009d6a:	d0c6      	beq.n	8009cfa <_vfiprintf_r+0x156>
 8009d6c:	9105      	str	r1, [sp, #20]
 8009d6e:	e7c4      	b.n	8009cfa <_vfiprintf_r+0x156>
 8009d70:	fb0c 2101 	mla	r1, ip, r1, r2
 8009d74:	4604      	mov	r4, r0
 8009d76:	2301      	movs	r3, #1
 8009d78:	e7f0      	b.n	8009d5c <_vfiprintf_r+0x1b8>
 8009d7a:	ab03      	add	r3, sp, #12
 8009d7c:	9300      	str	r3, [sp, #0]
 8009d7e:	462a      	mov	r2, r5
 8009d80:	4b12      	ldr	r3, [pc, #72]	@ (8009dcc <_vfiprintf_r+0x228>)
 8009d82:	a904      	add	r1, sp, #16
 8009d84:	4630      	mov	r0, r6
 8009d86:	f7fd fd99 	bl	80078bc <_printf_float>
 8009d8a:	4607      	mov	r7, r0
 8009d8c:	1c78      	adds	r0, r7, #1
 8009d8e:	d1d6      	bne.n	8009d3e <_vfiprintf_r+0x19a>
 8009d90:	6e6b      	ldr	r3, [r5, #100]	@ 0x64
 8009d92:	07d9      	lsls	r1, r3, #31
 8009d94:	d405      	bmi.n	8009da2 <_vfiprintf_r+0x1fe>
 8009d96:	89ab      	ldrh	r3, [r5, #12]
 8009d98:	059a      	lsls	r2, r3, #22
 8009d9a:	d402      	bmi.n	8009da2 <_vfiprintf_r+0x1fe>
 8009d9c:	6da8      	ldr	r0, [r5, #88]	@ 0x58
 8009d9e:	f7fe fac7 	bl	8008330 <__retarget_lock_release_recursive>
 8009da2:	89ab      	ldrh	r3, [r5, #12]
 8009da4:	065b      	lsls	r3, r3, #25
 8009da6:	f53f af1f 	bmi.w	8009be8 <_vfiprintf_r+0x44>
 8009daa:	9809      	ldr	r0, [sp, #36]	@ 0x24
 8009dac:	e71e      	b.n	8009bec <_vfiprintf_r+0x48>
 8009dae:	ab03      	add	r3, sp, #12
 8009db0:	9300      	str	r3, [sp, #0]
 8009db2:	462a      	mov	r2, r5
 8009db4:	4b05      	ldr	r3, [pc, #20]	@ (8009dcc <_vfiprintf_r+0x228>)
 8009db6:	a904      	add	r1, sp, #16
 8009db8:	4630      	mov	r0, r6
 8009dba:	f7fe f817 	bl	8007dec <_printf_i>
 8009dbe:	e7e4      	b.n	8009d8a <_vfiprintf_r+0x1e6>
 8009dc0:	0800a266 	.word	0x0800a266
 8009dc4:	0800a270 	.word	0x0800a270
 8009dc8:	080078bd 	.word	0x080078bd
 8009dcc:	08009b81 	.word	0x08009b81
 8009dd0:	0800a26c 	.word	0x0800a26c

08009dd4 <__swbuf_r>:
 8009dd4:	b5f8      	push	{r3, r4, r5, r6, r7, lr}
 8009dd6:	460e      	mov	r6, r1
 8009dd8:	4614      	mov	r4, r2
 8009dda:	4605      	mov	r5, r0
 8009ddc:	b118      	cbz	r0, 8009de6 <__swbuf_r+0x12>
 8009dde:	6a03      	ldr	r3, [r0, #32]
 8009de0:	b90b      	cbnz	r3, 8009de6 <__swbuf_r+0x12>
 8009de2:	f7fe f9ad 	bl	8008140 <__sinit>
 8009de6:	69a3      	ldr	r3, [r4, #24]
 8009de8:	60a3      	str	r3, [r4, #8]
 8009dea:	89a3      	ldrh	r3, [r4, #12]
 8009dec:	071a      	lsls	r2, r3, #28
 8009dee:	d501      	bpl.n	8009df4 <__swbuf_r+0x20>
 8009df0:	6923      	ldr	r3, [r4, #16]
 8009df2:	b943      	cbnz	r3, 8009e06 <__swbuf_r+0x32>
 8009df4:	4621      	mov	r1, r4
 8009df6:	4628      	mov	r0, r5
 8009df8:	f000 f82a 	bl	8009e50 <__swsetup_r>
 8009dfc:	b118      	cbz	r0, 8009e06 <__swbuf_r+0x32>
 8009dfe:	f04f 37ff 	mov.w	r7, #4294967295	@ 0xffffffff
 8009e02:	4638      	mov	r0, r7
 8009e04:	bdf8      	pop	{r3, r4, r5, r6, r7, pc}
 8009e06:	6823      	ldr	r3, [r4, #0]
 8009e08:	6922      	ldr	r2, [r4, #16]
 8009e0a:	1a98      	subs	r0, r3, r2
 8009e0c:	6963      	ldr	r3, [r4, #20]
 8009e0e:	b2f6      	uxtb	r6, r6
 8009e10:	4283      	cmp	r3, r0
 8009e12:	4637      	mov	r7, r6
 8009e14:	dc05      	bgt.n	8009e22 <__swbuf_r+0x4e>
 8009e16:	4621      	mov	r1, r4
 8009e18:	4628      	mov	r0, r5
 8009e1a:	f7ff fdf7 	bl	8009a0c <_fflush_r>
 8009e1e:	2800      	cmp	r0, #0
 8009e20:	d1ed      	bne.n	8009dfe <__swbuf_r+0x2a>
 8009e22:	68a3      	ldr	r3, [r4, #8]
 8009e24:	3b01      	subs	r3, #1
 8009e26:	60a3      	str	r3, [r4, #8]
 8009e28:	6823      	ldr	r3, [r4, #0]
 8009e2a:	1c5a      	adds	r2, r3, #1
 8009e2c:	6022      	str	r2, [r4, #0]
 8009e2e:	701e      	strb	r6, [r3, #0]
 8009e30:	6962      	ldr	r2, [r4, #20]
 8009e32:	1c43      	adds	r3, r0, #1
 8009e34:	429a      	cmp	r2, r3
 8009e36:	d004      	beq.n	8009e42 <__swbuf_r+0x6e>
 8009e38:	89a3      	ldrh	r3, [r4, #12]
 8009e3a:	07db      	lsls	r3, r3, #31
 8009e3c:	d5e1      	bpl.n	8009e02 <__swbuf_r+0x2e>
 8009e3e:	2e0a      	cmp	r6, #10
 8009e40:	d1df      	bne.n	8009e02 <__swbuf_r+0x2e>
 8009e42:	4621      	mov	r1, r4
 8009e44:	4628      	mov	r0, r5
 8009e46:	f7ff fde1 	bl	8009a0c <_fflush_r>
 8009e4a:	2800      	cmp	r0, #0
 8009e4c:	d0d9      	beq.n	8009e02 <__swbuf_r+0x2e>
 8009e4e:	e7d6      	b.n	8009dfe <__swbuf_r+0x2a>

08009e50 <__swsetup_r>:
 8009e50:	b538      	push	{r3, r4, r5, lr}
 8009e52:	4b29      	ldr	r3, [pc, #164]	@ (8009ef8 <__swsetup_r+0xa8>)
 8009e54:	4605      	mov	r5, r0
 8009e56:	6818      	ldr	r0, [r3, #0]
 8009e58:	460c      	mov	r4, r1
 8009e5a:	b118      	cbz	r0, 8009e64 <__swsetup_r+0x14>
 8009e5c:	6a03      	ldr	r3, [r0, #32]
 8009e5e:	b90b      	cbnz	r3, 8009e64 <__swsetup_r+0x14>
 8009e60:	f7fe f96e 	bl	8008140 <__sinit>
 8009e64:	f9b4 300c 	ldrsh.w	r3, [r4, #12]
 8009e68:	0719      	lsls	r1, r3, #28
 8009e6a:	d422      	bmi.n	8009eb2 <__swsetup_r+0x62>
 8009e6c:	06da      	lsls	r2, r3, #27
 8009e6e:	d407      	bmi.n	8009e80 <__swsetup_r+0x30>
 8009e70:	2209      	movs	r2, #9
 8009e72:	602a      	str	r2, [r5, #0]
 8009e74:	f043 0340 	orr.w	r3, r3, #64	@ 0x40
 8009e78:	81a3      	strh	r3, [r4, #12]
 8009e7a:	f04f 30ff 	mov.w	r0, #4294967295	@ 0xffffffff
 8009e7e:	e033      	b.n	8009ee8 <__swsetup_r+0x98>
 8009e80:	0758      	lsls	r0, r3, #29
 8009e82:	d512      	bpl.n	8009eaa <__swsetup_r+0x5a>
 8009e84:	6b61      	ldr	r1, [r4, #52]	@ 0x34
 8009e86:	b141      	cbz	r1, 8009e9a <__swsetup_r+0x4a>
 8009e88:	f104 0344 	add.w	r3, r4, #68	@ 0x44
 8009e8c:	4299      	cmp	r1, r3
 8009e8e:	d002      	beq.n	8009e96 <__swsetup_r+0x46>
 8009e90:	4628      	mov	r0, r5
 8009e92:	f7ff f8bd 	bl	8009010 <_free_r>
 8009e96:	2300      	movs	r3, #0
 8009e98:	6363      	str	r3, [r4, #52]	@ 0x34
 8009e9a:	89a3      	ldrh	r3, [r4, #12]
 8009e9c:	f023 0324 	bic.w	r3, r3, #36	@ 0x24
 8009ea0:	81a3      	strh	r3, [r4, #12]
 8009ea2:	2300      	movs	r3, #0
 8009ea4:	6063      	str	r3, [r4, #4]
 8009ea6:	6923      	ldr	r3, [r4, #16]
 8009ea8:	6023      	str	r3, [r4, #0]
 8009eaa:	89a3      	ldrh	r3, [r4, #12]
 8009eac:	f043 0308 	orr.w	r3, r3, #8
 8009eb0:	81a3      	strh	r3, [r4, #12]
 8009eb2:	6923      	ldr	r3, [r4, #16]
 8009eb4:	b94b      	cbnz	r3, 8009eca <__swsetup_r+0x7a>
 8009eb6:	89a3      	ldrh	r3, [r4, #12]
 8009eb8:	f403 7320 	and.w	r3, r3, #640	@ 0x280
 8009ebc:	f5b3 7f00 	cmp.w	r3, #512	@ 0x200
 8009ec0:	d003      	beq.n	8009eca <__swsetup_r+0x7a>
 8009ec2:	4621      	mov	r1, r4
 8009ec4:	4628      	mov	r0, r5
 8009ec6:	f000 f883 	bl	8009fd0 <__smakebuf_r>
 8009eca:	f9b4 300c 	ldrsh.w	r3, [r4, #12]
 8009ece:	f013 0201 	ands.w	r2, r3, #1
 8009ed2:	d00a      	beq.n	8009eea <__swsetup_r+0x9a>
 8009ed4:	2200      	movs	r2, #0
 8009ed6:	60a2      	str	r2, [r4, #8]
 8009ed8:	6962      	ldr	r2, [r4, #20]
 8009eda:	4252      	negs	r2, r2
 8009edc:	61a2      	str	r2, [r4, #24]
 8009ede:	6922      	ldr	r2, [r4, #16]
 8009ee0:	b942      	cbnz	r2, 8009ef4 <__swsetup_r+0xa4>
 8009ee2:	f013 0080 	ands.w	r0, r3, #128	@ 0x80
 8009ee6:	d1c5      	bne.n	8009e74 <__swsetup_r+0x24>
 8009ee8:	bd38      	pop	{r3, r4, r5, pc}
 8009eea:	0799      	lsls	r1, r3, #30
 8009eec:	bf58      	it	pl
 8009eee:	6962      	ldrpl	r2, [r4, #20]
 8009ef0:	60a2      	str	r2, [r4, #8]
 8009ef2:	e7f4      	b.n	8009ede <__swsetup_r+0x8e>
 8009ef4:	2000      	movs	r0, #0
 8009ef6:	e7f7      	b.n	8009ee8 <__swsetup_r+0x98>
 8009ef8:	200001d4 	.word	0x200001d4

08009efc <_raise_r>:
 8009efc:	291f      	cmp	r1, #31
 8009efe:	b538      	push	{r3, r4, r5, lr}
 8009f00:	4605      	mov	r5, r0
 8009f02:	460c      	mov	r4, r1
 8009f04:	d904      	bls.n	8009f10 <_raise_r+0x14>
 8009f06:	2316      	movs	r3, #22
 8009f08:	6003      	str	r3, [r0, #0]
 8009f0a:	f04f 30ff 	mov.w	r0, #4294967295	@ 0xffffffff
 8009f0e:	bd38      	pop	{r3, r4, r5, pc}
 8009f10:	6bc2      	ldr	r2, [r0, #60]	@ 0x3c
 8009f12:	b112      	cbz	r2, 8009f1a <_raise_r+0x1e>
 8009f14:	f852 3021 	ldr.w	r3, [r2, r1, lsl #2]
 8009f18:	b94b      	cbnz	r3, 8009f2e <_raise_r+0x32>
 8009f1a:	4628      	mov	r0, r5
 8009f1c:	f000 f830 	bl	8009f80 <_getpid_r>
 8009f20:	4622      	mov	r2, r4
 8009f22:	4601      	mov	r1, r0
 8009f24:	4628      	mov	r0, r5
 8009f26:	e8bd 4038 	ldmia.w	sp!, {r3, r4, r5, lr}
 8009f2a:	f000 b817 	b.w	8009f5c <_kill_r>
 8009f2e:	2b01      	cmp	r3, #1
 8009f30:	d00a      	beq.n	8009f48 <_raise_r+0x4c>
 8009f32:	1c59      	adds	r1, r3, #1
 8009f34:	d103      	bne.n	8009f3e <_raise_r+0x42>
 8009f36:	2316      	movs	r3, #22
 8009f38:	6003      	str	r3, [r0, #0]
 8009f3a:	2001      	movs	r0, #1
 8009f3c:	e7e7      	b.n	8009f0e <_raise_r+0x12>
 8009f3e:	2100      	movs	r1, #0
 8009f40:	f842 1024 	str.w	r1, [r2, r4, lsl #2]
 8009f44:	4620      	mov	r0, r4
 8009f46:	4798      	blx	r3
 8009f48:	2000      	movs	r0, #0
 8009f4a:	e7e0      	b.n	8009f0e <_raise_r+0x12>

08009f4c <raise>:
 8009f4c:	4b02      	ldr	r3, [pc, #8]	@ (8009f58 <raise+0xc>)
 8009f4e:	4601      	mov	r1, r0
 8009f50:	6818      	ldr	r0, [r3, #0]
 8009f52:	f7ff bfd3 	b.w	8009efc <_raise_r>
 8009f56:	bf00      	nop
 8009f58:	200001d4 	.word	0x200001d4

08009f5c <_kill_r>:
 8009f5c:	b538      	push	{r3, r4, r5, lr}
 8009f5e:	4d07      	ldr	r5, [pc, #28]	@ (8009f7c <_kill_r+0x20>)
 8009f60:	2300      	movs	r3, #0
 8009f62:	4604      	mov	r4, r0
 8009f64:	4608      	mov	r0, r1
 8009f66:	4611      	mov	r1, r2
 8009f68:	602b      	str	r3, [r5, #0]
 8009f6a:	f7f8 fb9d 	bl	80026a8 <_kill>
 8009f6e:	1c43      	adds	r3, r0, #1
 8009f70:	d102      	bne.n	8009f78 <_kill_r+0x1c>
 8009f72:	682b      	ldr	r3, [r5, #0]
 8009f74:	b103      	cbz	r3, 8009f78 <_kill_r+0x1c>
 8009f76:	6023      	str	r3, [r4, #0]
 8009f78:	bd38      	pop	{r3, r4, r5, pc}
 8009f7a:	bf00      	nop
 8009f7c:	200024b8 	.word	0x200024b8

08009f80 <_getpid_r>:
 8009f80:	f7f8 bb90 	b.w	80026a4 <_getpid>

08009f84 <__swhatbuf_r>:
 8009f84:	b570      	push	{r4, r5, r6, lr}
 8009f86:	460c      	mov	r4, r1
 8009f88:	f9b1 100e 	ldrsh.w	r1, [r1, #14]
 8009f8c:	2900      	cmp	r1, #0
 8009f8e:	b096      	sub	sp, #88	@ 0x58
 8009f90:	4615      	mov	r5, r2
 8009f92:	461e      	mov	r6, r3
 8009f94:	da0d      	bge.n	8009fb2 <__swhatbuf_r+0x2e>
 8009f96:	89a3      	ldrh	r3, [r4, #12]
 8009f98:	f013 0f80 	tst.w	r3, #128	@ 0x80
 8009f9c:	f04f 0100 	mov.w	r1, #0
 8009fa0:	bf14      	ite	ne
 8009fa2:	2340      	movne	r3, #64	@ 0x40
 8009fa4:	f44f 6380 	moveq.w	r3, #1024	@ 0x400
 8009fa8:	2000      	movs	r0, #0
 8009faa:	6031      	str	r1, [r6, #0]
 8009fac:	602b      	str	r3, [r5, #0]
 8009fae:	b016      	add	sp, #88	@ 0x58
 8009fb0:	bd70      	pop	{r4, r5, r6, pc}
 8009fb2:	466a      	mov	r2, sp
 8009fb4:	f000 f848 	bl	800a048 <_fstat_r>
 8009fb8:	2800      	cmp	r0, #0
 8009fba:	dbec      	blt.n	8009f96 <__swhatbuf_r+0x12>
 8009fbc:	9901      	ldr	r1, [sp, #4]
 8009fbe:	f401 4170 	and.w	r1, r1, #61440	@ 0xf000
 8009fc2:	f5a1 5300 	sub.w	r3, r1, #8192	@ 0x2000
 8009fc6:	4259      	negs	r1, r3
 8009fc8:	4159      	adcs	r1, r3
 8009fca:	f44f 6380 	mov.w	r3, #1024	@ 0x400
 8009fce:	e7eb      	b.n	8009fa8 <__swhatbuf_r+0x24>

08009fd0 <__smakebuf_r>:
 8009fd0:	898b      	ldrh	r3, [r1, #12]
 8009fd2:	b5f7      	push	{r0, r1, r2, r4, r5, r6, r7, lr}
 8009fd4:	079d      	lsls	r5, r3, #30
 8009fd6:	4606      	mov	r6, r0
 8009fd8:	460c      	mov	r4, r1
 8009fda:	d507      	bpl.n	8009fec <__smakebuf_r+0x1c>
 8009fdc:	f104 0347 	add.w	r3, r4, #71	@ 0x47
 8009fe0:	6023      	str	r3, [r4, #0]
 8009fe2:	6123      	str	r3, [r4, #16]
 8009fe4:	2301      	movs	r3, #1
 8009fe6:	6163      	str	r3, [r4, #20]
 8009fe8:	b003      	add	sp, #12
 8009fea:	bdf0      	pop	{r4, r5, r6, r7, pc}
 8009fec:	ab01      	add	r3, sp, #4
 8009fee:	466a      	mov	r2, sp
 8009ff0:	f7ff ffc8 	bl	8009f84 <__swhatbuf_r>
 8009ff4:	9f00      	ldr	r7, [sp, #0]
 8009ff6:	4605      	mov	r5, r0
 8009ff8:	4639      	mov	r1, r7
 8009ffa:	4630      	mov	r0, r6
 8009ffc:	f7ff f87c 	bl	80090f8 <_malloc_r>
 800a000:	b948      	cbnz	r0, 800a016 <__smakebuf_r+0x46>
 800a002:	f9b4 300c 	ldrsh.w	r3, [r4, #12]
 800a006:	059a      	lsls	r2, r3, #22
 800a008:	d4ee      	bmi.n	8009fe8 <__smakebuf_r+0x18>
 800a00a:	f023 0303 	bic.w	r3, r3, #3
 800a00e:	f043 0302 	orr.w	r3, r3, #2
 800a012:	81a3      	strh	r3, [r4, #12]
 800a014:	e7e2      	b.n	8009fdc <__smakebuf_r+0xc>
 800a016:	89a3      	ldrh	r3, [r4, #12]
 800a018:	6020      	str	r0, [r4, #0]
 800a01a:	f043 0380 	orr.w	r3, r3, #128	@ 0x80
 800a01e:	81a3      	strh	r3, [r4, #12]
 800a020:	9b01      	ldr	r3, [sp, #4]
 800a022:	e9c4 0704 	strd	r0, r7, [r4, #16]
 800a026:	b15b      	cbz	r3, 800a040 <__smakebuf_r+0x70>
 800a028:	f9b4 100e 	ldrsh.w	r1, [r4, #14]
 800a02c:	4630      	mov	r0, r6
 800a02e:	f000 f81d 	bl	800a06c <_isatty_r>
 800a032:	b128      	cbz	r0, 800a040 <__smakebuf_r+0x70>
 800a034:	89a3      	ldrh	r3, [r4, #12]
 800a036:	f023 0303 	bic.w	r3, r3, #3
 800a03a:	f043 0301 	orr.w	r3, r3, #1
 800a03e:	81a3      	strh	r3, [r4, #12]
 800a040:	89a3      	ldrh	r3, [r4, #12]
 800a042:	431d      	orrs	r5, r3
 800a044:	81a5      	strh	r5, [r4, #12]
 800a046:	e7cf      	b.n	8009fe8 <__smakebuf_r+0x18>

0800a048 <_fstat_r>:
 800a048:	b538      	push	{r3, r4, r5, lr}
 800a04a:	4d07      	ldr	r5, [pc, #28]	@ (800a068 <_fstat_r+0x20>)
 800a04c:	2300      	movs	r3, #0
 800a04e:	4604      	mov	r4, r0
 800a050:	4608      	mov	r0, r1
 800a052:	4611      	mov	r1, r2
 800a054:	602b      	str	r3, [r5, #0]
 800a056:	f7f8 fb54 	bl	8002702 <_fstat>
 800a05a:	1c43      	adds	r3, r0, #1
 800a05c:	d102      	bne.n	800a064 <_fstat_r+0x1c>
 800a05e:	682b      	ldr	r3, [r5, #0]
 800a060:	b103      	cbz	r3, 800a064 <_fstat_r+0x1c>
 800a062:	6023      	str	r3, [r4, #0]
 800a064:	bd38      	pop	{r3, r4, r5, pc}
 800a066:	bf00      	nop
 800a068:	200024b8 	.word	0x200024b8

0800a06c <_isatty_r>:
 800a06c:	b538      	push	{r3, r4, r5, lr}
 800a06e:	4d06      	ldr	r5, [pc, #24]	@ (800a088 <_isatty_r+0x1c>)
 800a070:	2300      	movs	r3, #0
 800a072:	4604      	mov	r4, r0
 800a074:	4608      	mov	r0, r1
 800a076:	602b      	str	r3, [r5, #0]
 800a078:	f7f8 fb48 	bl	800270c <_isatty>
 800a07c:	1c43      	adds	r3, r0, #1
 800a07e:	d102      	bne.n	800a086 <_isatty_r+0x1a>
 800a080:	682b      	ldr	r3, [r5, #0]
 800a082:	b103      	cbz	r3, 800a086 <_isatty_r+0x1a>
 800a084:	6023      	str	r3, [r4, #0]
 800a086:	bd38      	pop	{r3, r4, r5, pc}
 800a088:	200024b8 	.word	0x200024b8

0800a08c <_init>:
 800a08c:	b5f8      	push	{r3, r4, r5, r6, r7, lr}
 800a08e:	bf00      	nop
 800a090:	bcf8      	pop	{r3, r4, r5, r6, r7}
 800a092:	bc08      	pop	{r3}
 800a094:	469e      	mov	lr, r3
 800a096:	4770      	bx	lr

0800a098 <_fini>:
 800a098:	b5f8      	push	{r3, r4, r5, r6, r7, lr}
 800a09a:	bf00      	nop
 800a09c:	bcf8      	pop	{r3, r4, r5, r6, r7}
 800a09e:	bc08      	pop	{r3}
 800a0a0:	469e      	mov	lr, r3
 800a0a2:	4770      	bx	lr
